(dp0
Vlimited
p1
F7.565961988846496e-05
sVsuicidal
p2
F9.348932266659223e-06
sVsearchable
p3
F9.262708907747179e-07
sVsecondly
p4
F2.0067400547275106e-05
sVconsolidated
p5
F5.286530888708787e-19
sVdesirable
p6
F1.5665538290052757e-05
sVfoul
p7
F0.0
sVasian
p8
F1.309136938302673e-10
sVcontroversial
p9
F8.480033484323712e-05
sVcaptain
p10
F0.0
sVself-reliant
p11
F8.533700380793865e-07
sVundisputed
p12
F1.365321459828728e-07
sVsomeplace
p13
F4.768004655026379e-06
sVeligible
p14
F2.7360286067776285e-07
sVpoorest
p15
F0.0001485425888597585
sVboundless
p16
F7.345224437469871e-06
sVunanswered
p17
F1.654015545233389e-07
sVneighbours
p18
F2.3190968120950336e-05
sVsorry
p19
F6.792392655072226e-05
sVworth
p20
F9.795478854140313e-07
sVdivergent
p21
F1.6155336428833113e-08
sVupdated
p22
F1.1668525868848881e-07
sVrational
p23
F6.458693454297369e-06
sVco-operation
p24
F4.920034949784266e-07
sVdynamic
p25
F1.6000710450717614e-07
sVokey
p26
F3.295662532257615e-07
sVmla
p27
F1.3533519075094356e-18
sVevery
p28
F0.0
sVjack
p29
F0.0
sVthriving
p30
F1.005486652618836e-07
sVstrictest
p31
F0.0001540461436293251
sVcourageous
p32
F4.312297999256465e-06
sVvast
p33
F0.00012999145009231277
sVbravest
p34
F3.8705554219336333e-07
sVschool
p35
F0.0
sVreciprocal
p36
F1.208072879327575e-06
sVcourrier
p37
F6.125043368189888e-08
sVwell-maintained
p38
F4.229745370591491e-08
sVcorrect
p39
F2.6864060938017733e-05
sVadmissible
p40
F3.0474486804018466e-06
sVunrelated
p41
F9.57806476444262e-15
sVfast-switched
p42
F0.0
sVdeplorable
p43
F0.00011718484958680603
sVreliable
p44
F6.6529408252182775e-06
sVfavoured
p45
F0.0
sVcher
p46
F3.713607308837082e-05
sVtenuous
p47
F1.832591528750968e-05
sVnigh
p48
F0.0
sVconcise
p49
F1.6797785391045218e-05
sVconsistent
p50
F2.135773116524336e-05
sVdirect
p51
F2.927439717219868e-06
sVelegant
p52
F2.3190968120950394e-16
sVlikely
p53
F7.676936053436692e-06
sVlouder
p54
F1.6244214874459326e-05
sVrigorous
p55
F0.0021448791346600775
sVsubordinate
p56
F0.0
sVestimated
p57
F2.3190968120950336e-05
sVeven
p58
F1.8547878055448205e-05
sVestablished
p59
F2.1146123554835148e-18
sVoldest
p60
F1.1728445085289742e-14
sVincompatible
p61
F1.233537912097005e-07
sVruthless
p62
F1.3392398441220794e-05
sVminuscule
p63
F1.0420623888307393e-05
sVexactly
p64
F6.419141994415335e-05
sVselected
p65
F6.392270206556021e-14
sVprofitability
p66
F7.868896409152188e-07
sVsupplied
p67
F0.0
sVliberated
p68
F2.748131520339675e-07
sVabove
p69
F7.636604757547886e-05
sVevey
p70
F0.0
sVresilient
p71
F6.061494025516299e-05
sVnew
p72
F6.386149809075446e-05
sVnet
p73
F2.656454785865992e-07
sVincreasing
p74
F5.1847838703548974e-05
sVever
p75
F0.0
sVadmiral
p76
F0.0
sVevolving
p77
F5.6372916002037304e-08
sVfeisty
p78
F3.8705554219336333e-07
sVrichest
p79
F4.675493964670583e-05
sVunseemly
p80
F5.213672538375904e-06
sVremarried
p81
F5.265369458946828e-08
sVreported
p82
F0.0
sVsmokin
p83
F3.247100654973071e-05
sVactive
p84
F4.7435437253557256e-06
sVdry
p85
F9.726997035357453e-10
sVloverly
p86
F6.989578204642676e-06
sVchaotic
p87
F3.138769919659476e-07
sVrubbish
p88
F8.617255086564653e-06
sVelaborate
p89
F5.142792254147361e-05
sVchanged
p90
F4.84660097503187e-08
sVexpedited
p91
F4.173054135123778e-08
sVsuperstitious
p92
F2.3190968120950336e-05
sVlonesome
p93
F5.9952058058920676e-06
sVsymmetrical
p94
F2.1818586705952404e-07
sVstipulated
p95
F2.86798586144905e-06
sVsettled
p96
F5.7634528210385403e-11
sVastute
p97
F2.8433148329353537e-05
sVmutual
p98
F1.8359395521640362e-09
sVfantastic
p99
F0.00035324428624338095
sVsecure
p100
F2.1710172822008173e-05
sVelaborated
p101
F9.973629231311565e-07
sVspooky
p102
F0.0003127662104354331
sVexplained
p103
F0.0
sVinequitable
p104
F9.242119742311519e-06
sVerected
p105
F0.0
sVbro
p106
F5.529157667386612e-12
sVvisible
p107
F2.5539478745869605e-05
sVsizeable
p108
F3.8367149782491796e-05
sVachievable
p109
F2.1952991898758603e-05
sVstern
p110
F0.000636666425046703
sVoff-site
p111
F1.0755680834095833e-06
sVtotal
p112
F2.5690491032994535e-08
sVreceivable
p113
F2.5324404954777746e-05
sVnegative
p114
F7.37268582106748e-05
sVwell-trained
p115
F8.178626153936057e-10
sVcalm
p116
F1.1139404384920589e-05
sVright-
p117
F2.9875478299874013e-07
sVtell
p118
F2.5690491032994535e-08
sVravishing
p119
F2.878575812102901e-05
sVbreathe
p120
F1.1323714902807781e-08
sVtolerated
p121
F0.0
sVgriet
p122
F4.053220689483324e-09
sVstandardized
p123
F1.761617705001232e-06
sVholy
p124
F7.035961856598692e-07
sVwary
p125
F1.0769448142801334e-06
sVsuccessful
p126
F9.012349376908122e-06
sVnaive
p127
F1.63508207335064e-08
sVhereby
p128
F3.1486310090891044e-08
sVacceded
p129
F0.0
sVphony
p130
F1.0772025969224166e-05
sVaware
p131
F1.1047255948405081e-06
sVfinal
p132
F1.0325269704386937e-06
sVwarm
p133
F0.0005656168774517023
sVexcellent
p134
F0.00025537672162388763
sVcontinual
p135
F3.2240238169482324e-09
sVadamant
p136
F5.6524315378937416e-08
sVoutdated
p137
F4.474589144589215e-13
sVimmature
p138
F2.4281193416491014e-05
sVsupplemental
p139
F3.063154623614457e-06
sVsegregated
p140
F1.8220876410395887e-07
sVme
p141
F2.4339557743116046e-20
sVma
p142
F0.0
sVcheapest
p143
F0.0006723178754233725
sVwork
p144
F0.0
sVdaft
p145
F3.153582077699957e-05
sVsweeter
p146
F3.9330591630758515e-05
sVhenry
p147
F0.0
sVaddictive
p148
F5.0894428759218504e-08
sVindicated
p149
F0.0
sVjoyous
p150
F3.3971144708423344e-08
sVunjust
p151
F1.1645139518672146e-05
sVcited
p152
F0.0
sVorganized
p153
F0.0
sVoverheard
p154
F5.798184933514189e-08
sVneed-to-know
p155
F1.8540279473796962e-07
sVpluralistic
p156
F8.370895702660449e-08
sVdavid
p157
F0.0
sVlooser
p158
F1.4845505310263357e-05
sVabsolute
p159
F0.00017296722787203087
sVwell-armed
p160
F1.3091369383026713e-10
sVaging
p161
F0.0
sVconfidential
p162
F1.2736763351633448e-06
sVillicit
p163
F0.0
sVhon
p164
F8.721073708860261e-07
sVverify
p165
F6.513329483862022e-08
sVnuts
p166
F1.1264241197261271e-05
sVfunky
p167
F7.1607151032064865e-06
sVfairer
p168
F1.7776256203307864e-05
sVvery
p169
F7.65340018617107e-05
sVhot
p170
F0.00013183018507259445
sVmorbid
p171
F0.00011994282491836267
sVadjacent
p172
F0.0
sVtoxic
p173
F9.79473693304536e-07
sVwidespread
p174
F1.1891492831558471e-05
sVfaulty
p175
F3.0667254617263593e-06
sVpreferable
p176
F2.063055334172242e-05
sVmassive
p177
F0.00010139447982197505
sVbadly
p178
F5.080645499276082e-05
sVdoable
p179
F7.981196400694136e-07
sVnon-exhaustive
p180
F9.844163192075988e-06
sVinsecure
p181
F3.7203005608408455e-05
sVearlier
p182
F3.0470222302204576e-05
sVvicious
p183
F0.00024825688266866193
sVdemanding
p184
F0.0013472358275567376
sVtherefore
p185
F1.25416383257235e-07
sVthankyou
p186
F3.395674829989421e-07
sVmodest
p187
F4.170858234867187e-05
sVfragile
p188
F7.977960985091556e-05
sVmeaningful
p189
F2.592238904190787e-05
sVparallel
p190
F2.1818586705952404e-07
sVmoister
p191
F4.564678255246654e-11
sVcomplacent
p192
F1.7008117107235512e-06
sVelusive
p193
F0.003229350491778542
sVsplendid
p194
F0.00029272688385814877
sVthird
p195
F5.812021847833554e-05
sVhasty
p196
F5.562476796557712e-06
sVacknowledged
p197
F2.9022585944594504e-08
sVstand-alone
p198
F8.533700380793865e-07
sVcold-rolled
p199
F0.0003543368597292358
sVencompassing
p200
F0.0
sVrogue
p201
F7.051924375355678e-06
sVgreen
p202
F7.503113877437369e-06
sVpuny
p203
F1.7848118937448223e-12
sVuninsured
p204
F1.0702292049974412e-07
sVdemocratic
p205
F5.236547753210685e-10
sVnonsensical
p206
F4.695004794292478e-06
sVwing
p207
F0.0
sVunsteady
p208
F1.6943706935830936e-05
sVexecuted
p209
F6.392270206556021e-14
sVwelcomed
p210
F1.4401416020503484e-07
sVover
p211
F1.96644835572412e-05
sVoff-the-record
p212
F1.8540279473796962e-07
sVinconclusive
p213
F6.529262770566253e-06
sVsatisfied
p214
F1.1100229136928487e-05
sVproportionate
p215
F2.3081321904711862e-05
sVfrankenstein
p216
F2.3190968120950336e-05
sVfinest
p217
F0.0003476713549766599
sVghastly
p218
F0.000342302866020409
sVinnovative
p219
F1.1323714902807781e-08
sVresponsive
p220
F1.753498286095436e-05
sVslimmer
p221
F1.5461227001644338e-07
sVtalkative
p222
F7.851488736723332e-07
sVbefore
p223
F4.906227854795257e-08
sVom-mazing
p224
F2.65147907148819e-05
sVindispensible
p225
F2.198299120832552e-06
sVby-election
p226
F8.317167948379883e-07
sVfit
p227
F3.509717934473475e-05
sVfun-loving
p228
F1.2320512062198996e-06
sVpersonal
p229
F2.751242532405988e-06
sVcomprehend
p230
F5.202143702368865e-07
sVbetter
p231
F0.0001118855141540832
sVbottled
p232
F2.3190968120950336e-05
sVcompelling
p233
F5.878474955043061e-06
sVdifferently
p234
F2.481850298805495e-07
sVinsubstantial
p235
F9.105048447499764e-07
sVworkable
p236
F1.1645015702483059e-05
sVnobler
p237
F9.474199247145273e-08
sVadmirable
p238
F2.542232971430171e-05
sVeasier
p239
F0.0009277014429360171
sVpleasurable
p240
F7.623132055133084e-06
sVmaximal
p241
F7.0976541592238975e-09
sVthen
p242
F7.429721398097517e-08
sVthem
p243
F0.0
sVaffected
p244
F7.390116334471752e-16
sVwoken
p245
F7.576203321803879e-09
sVinterdisciplinary
p246
F0.0
sVunemployed
p247
F1.531061233789795e-08
sVsafe
p248
F9.462661464732448e-06
sVdiseased
p249
F2.181192788160798e-05
sVrepulsive
p250
F0.00019356412789617728
sVshameful
p251
F0.00010815471401661995
sVmultidimensional
p252
F5.294818753963538e-07
sVsixteen
p253
F1.6618629849467635e-09
sVundeveloped
p254
F4.221632782485223e-15
sVleaner
p255
F3.333317208568551e-05
sV-ready
p256
F6.454233080070823e-05
sVnotified
p257
F0.0
sVreasonably
p258
F1.1246357778006751e-06
sVclassified
p259
F1.8540279473796962e-07
sVl
p260
F7.82730230817745e-07
sVdroll
p261
F7.5191523415692415e-06
sVdeficient
p262
F7.444231747162468e-05
sVspotless
p263
F7.969364357597973e-07
sVreasonable
p264
F3.618023513016041e-05
sVend-to-end
p265
F2.6702612898290487e-08
sVentitled
p266
F2.5690491032994535e-08
sVlow-skilled
p267
F7.719119694123341e-09
sVluck
p268
F1.59952969867264e-06
sVfairly
p269
F0.0
sVskint
p270
F9.693281066396316e-08
sVdoomed
p271
F4.445966381411003e-08
sVdisplacement
p272
F1.2009927767336721e-11
sVworded
p273
F0.0
sVchubby
p274
F7.253894990206535e-08
sVdispleased
p275
F8.341642344666856e-06
sVfirst-class
p276
F4.773301504931809e-06
sVblinded
p277
F6.727702824131322e-07
sVcertifiable
p278
F1.1600681899170223e-05
sVice-cold
p279
F5.8709860512361816e-05
sVespeciaily
p280
F1.4904790259078225e-05
sVrestricted
p281
F2.5242888950996672e-05
sVwide-open
p282
F1.654015545233389e-07
sVhooked
p283
F9.535409257332853e-08
sVcontent
p284
F5.866540680786924e-06
sVdrawn-out
p285
F0.0
sVsluggish
p286
F1.663076802733183e-05
sVassured
p287
F1.7600234601640915e-06
sVu.s.
p288
F4.749510271170632e-13
sVlittle
p289
F0.00014192279599053689
sVfree
p290
F4.505224436084489e-07
sVstandard
p291
F5.125024873538724e-07
sVaforesaid
p292
F3.9816150020257013e-19
sVsalutary
p293
F3.5120596098480216e-07
sVelle
p294
F0.0
sVchecked
p295
F6.392270206556021e-14
sVwanted
p296
F2.3190968120950336e-05
sVcertified
p297
F1.841880403281751e-09
sVenormous
p298
F0.0006001687475327519
sVcreated
p299
F0.0
sVhorseshit
p300
F4.75657452408749e-06
sVinexpensive
p301
F0.00026273240477084423
sVlongterm
p302
F0.0
sVdispersal
p303
F1.1323714902807781e-08
sVflawless
p304
F1.3561329687769609e-05
sVdisturbed
p305
F2.0770329267630204e-06
sVspeedy
p306
F2.8603717342193243e-06
sVmulti-ethnic
p307
F2.3190968120950336e-05
sVtempting
p308
F2.903705395131427e-05
sVrepealed
p309
F2.3190968120950336e-05
sVloud
p310
F4.200703043844445e-05
sVfuckin
p311
F5.0141054419341585e-09
sVenraged
p312
F2.5453962740437412e-05
sValready
p313
F3.833075715825619e-08
sVdaunting
p314
F0.00047475347121638163
sVstate-run
p315
F3.033234547106004e-08
sVunfilled
p316
F2.346314582660858e-09
sVencouraging
p317
F9.003617622380874e-08
sVrank
p318
F3.444045191793863e-08
sV-mentioned
p319
F0.0
sVunspecified
p320
F1.4448104450043739e-06
sVanother
p321
F0.0
sVcomin
p322
F1.8083858363071536e-07
sVsober
p323
F2.3190968120950336e-05
sVthick
p324
F5.574821208445281e-07
sVwell-formed
p325
F1.2276929446682975e-06
sVpragmatic
p326
F2.4444623823832347e-06
sVsimilarly
p327
F1.7035639421801782e-06
sVopportunity
p328
F0.0
sVtop
p329
F2.3620867494704232e-05
sVtired
p330
F2.9991214939240157e-06
sVprotracted
p331
F2.6510934319907072e-05
sVtwisted
p332
F3.0667254617263593e-06
sVheights
p333
F0.0
sVplentiful
p334
F1.4782354694854792e-06
sVneeded
p335
F2.0763467592009513e-07
sVresponsable
p336
F4.0118531799612723e-10
sVmaster
p337
F6.360765388928015e-08
sVlisted
p338
F1.4375809882116996e-11
sVtom
p339
F1.6155336428833113e-08
sVinconvenient
p340
F0.00092249428258108
sVoveremotional
p341
F2.631305406840569e-06
sVbitter
p342
F0.0006425716608255555
sVdamaging
p343
F2.5451466584291813e-05
sVilliterate
p344
F2.3190968120950336e-05
sVindiscreet
p345
F6.513329483862022e-08
sVenhancing
p346
F3.167120660693547e-06
sVdiversified
p347
F3.5019108376341105e-07
sVtrippy
p348
F9.013430607710315e-06
sVggood
p349
F1.7163909791090413e-06
sVexhilarating
p350
F5.561490971552336e-06
sVpredictable
p351
F7.800155711034691e-06
sVwestern
p352
F0.0
sVsomewhat
p353
F9.78008843871518e-07
sVlegally
p354
F2.3998176473577904e-07
sVwasted
p355
F3.059253565006454e-06
sVlonger-term
p356
F2.2384020130060025e-07
sVunsanitary
p357
F0.0
sVreimbursable
p358
F6.392270206556021e-14
sVpeculiar
p359
F0.00020203255109153077
sVpositively
p360
F1.6957294613681225e-07
sVself-governing
p361
F8.533700380793865e-07
sVpast
p362
F0.00010329624570145389
sVsurer
p363
F5.094454620822728e-06
sVdisciplined
p364
F0.0
sVenabled
p365
F1.1323714902807781e-08
sVsecond
p366
F6.205758197112704e-05
sVunmistakable
p367
F3.2273961906493657e-06
sVscant
p368
F6.868546505122202e-06
sVwell-positioned
p369
F9.3743278310143e-06
sVobscure
p370
F7.27822624483141e-06
sVidle
p371
F1.531061233789795e-08
sVfabulous
p372
F0.00021804944252437893
sVsilly
p373
F5.812942721508998e-05
sVhistorical
p374
F1.6143106324500852e-07
sVhigh-cost
p375
F0.00014643107593071385
sVforceful
p376
F2.415592656984151e-05
sVrecheck
p377
F2.3190968120950336e-05
sVhonourable
p378
F1.3689539408136323e-06
sVseminal
p379
F2.184139399669461e-06
sVdonkey
p380
F4.4611325596516505e-07
sVmax
p381
F7.0976541592238975e-09
sVmodern
p382
F2.3168297495398604e-12
sVdeprived
p383
F2.1166435768105126e-07
sVantagonistic
p384
F1.8359395521640362e-09
sVscrewy
p385
F1.4631298945166056e-05
sVcorny
p386
F0.0
sVseen
p387
F0.0
sVunaffected
p388
F8.505116307300654e-07
sVrelatively
p389
F4.892290078614884e-07
sVquieter
p390
F8.385277633879438e-06
sVimplemented
p391
F1.1323714902807781e-08
sVgenuine
p392
F1.5073402166748948e-05
sVacademic
p393
F4.1871069486889624e-05
sVconvenient
p394
F0.0002928174243943289
sVlatter
p395
F8.602138753758036e-06
sVresponsible
p396
F1.4501882451802465e-09
sV-
p397
F0.0
sVisolated
p398
F2.401985553467339e-11
sVthorough
p399
F0.0002809178128727119
sVstupid-looking
p400
F2.7428921562605926e-06
sVfitting
p401
F7.4448551914538625e-06
sVamusing
p402
F1.45954399879712e-05
sVeffectiveness
p403
F3.3982846693763565e-06
sVcompleted
p404
F2.4597783414305225e-06
sVpropitious
p405
F2.3603107887208257e-08
sVconducive
p406
F2.812536057746664e-07
sVhurtful
p407
F7.482726654240439e-05
sVstarved
p408
F5.85216257971255e-08
sVthough
p409
F3.6048893542038163e-07
sVthrilled
p410
F9.25588147314133e-06
sVdoin
p411
F7.170280189499684e-07
sVprohibitive
p412
F0.00032690109837895824
sVshorty
p413
F3.0865288395900835e-07
sVregular
p414
F9.287957589180414e-07
sVplenty
p415
F8.594217246054656e-06
sVwhar
p416
F1.6155336428833113e-08
sVgrave
p417
F0.0003480711202014223
sVdummy
p418
F2.7972326802231598e-06
sVhardto
p419
F0.0056410448114298135
sVmedical
p420
F0.0
sVdeliberate
p421
F7.867908291330172e-06
sVtreaty
p422
F0.0
sVorderly
p423
F2.656454785865992e-07
sVentertaining
p424
F6.967010184126179e-06
sVoutnumbered
p425
F2.2758574157363426e-05
sVannoyed
p426
F2.385122513574694e-05
sVincomplete
p427
F2.7378910092468985e-05
sVfussy
p428
F0.006365220650054776
sVsaying
p429
F2.5690491032994535e-08
sVoverpriced
p430
F6.943039075659902e-07
sVhunger
p431
F3.51129754782753e-07
sVrandom
p432
F1.286509579429922e-05
sVprecarious
p433
F3.151080810130636e-05
sVdopey
p434
F4.4611325596516505e-07
sVqueer
p435
F3.4781140119137778e-06
sVlethal
p436
F1.2993116420155706e-05
sVsubtle
p437
F4.960695656364871e-05
sVjam-packed
p438
F1.184609766510573e-06
sVthirds
p439
F0.0
sVabreast
p440
F1.4292975164194863e-08
sVtoast
p441
F9.696899802437203e-08
sVapace
p442
F2.339717150780841e-07
sVrock-hard
p443
F0.0019237320647105748
sVbusy
p444
F3.1081197565101676e-08
sVre-appointed
p445
F6.793611089538517e-09
sVreasonnable
p446
F4.983156521302758e-06
sVundignified
p447
F1.3598468166373001e-05
sVelite
p448
F1.841880403281751e-09
sVfair-minded
p449
F0.0
sVappreciated
p450
F1.3587222179077035e-08
sVgutsy
p451
F0.0
sVdeepest
p452
F0.00019757331721632316
sVrich
p453
F1.5047729783961484e-06
sVfolks
p454
F0.0
sVadequate
p455
F2.2079062994387853e-05
sVwell-represented
p456
F0.0
sVdo
p457
F0.0
sVincorrect
p458
F0.0003042732927757416
sVundecided
p459
F0.0
sVwide
p460
F4.1054141243372416e-05
sVrigght
p461
F1.756882328931069e-06
sVscalable
p462
F1.309136938302673e-10
sVpreferred
p463
F0.0
sVforemost
p464
F8.352484021632188e-06
sVgeek
p465
F4.445966381411003e-08
sVsmug
p466
F3.89496670981944e-07
sVnathan
p467
F2.5690491032994535e-08
sVnasty
p468
F0.0017278469489837413
sVconsiderate
p469
F0.0
sVinfrequent
p470
F8.884699534175157e-06
sVintroduced
p471
F0.0
sVidiotic
p472
F2.0829975726319402e-05
sVrepugnant
p473
F4.5442070631779325e-05
sVpro-choice
p474
F2.3190968120950336e-05
sVmonumental
p475
F9.620006565820076e-06
sVautomatic
p476
F2.3190968120950336e-05
sVrequire
p477
F0.0
sVfarther
p478
F3.065128112469829e-05
sVethical
p479
F1.1323714902807781e-08
sVabove-mentioned
p480
F8.168108999480792e-17
sVerroneous
p481
F0.00013712783296058014
sVmandatory
p482
F1.6659239294950917e-06
sVfascinating
p483
F1.7735678334515822e-05
sVclarified
p484
F1.754007154553022e-06
sVperipheral
p485
F7.81174059666413e-06
sVdisorientated
p486
F5.025866229625248e-06
sVblameless
p487
F4.346236381974504e-09
sVobserved
p488
F1.9410509529688328e-06
sVopposite
p489
F1.7370807223851067e-06
sVdemented
p490
F1.1702488232003973e-05
sVdecided
p491
F0.0
sVwell-documented
p492
F2.912918507569511e-11
sVhorrendous
p493
F0.0010416895519939143
sVcorrupt
p494
F3.577018124852604e-05
sVsporadic
p495
F5.604455054055209e-07
sVwell-educated
p496
F6.392270206556012e-14
sVoptimum
p497
F3.13831114718365e-06
sVbest
p498
F0.00010427369336244897
sVsubject
p499
F5.236547753210685e-10
sVcruellest
p500
F1.7480426966077355e-06
sVinappropriate
p501
F8.906769175610943e-05
sVaway
p502
F3.0400152076438004e-06
sVdynamite
p503
F7.687433299293578e-05
sVcarsick
p504
F3.324364460225085e-05
sVunable
p505
F4.5197592638193075e-06
sVin-flight
p506
F4.749510271170632e-13
sVsimplest
p507
F0.0002951761255147037
sVwhassup
p508
F2.4370929625936392e-05
sVoccupational
p509
F4.114616117255695e-10
sVunconscionable
p510
F2.4387166433577527e-05
sVco-
p511
F2.690929045273393e-09
sVlazy
p512
F2.3190968120950336e-05
sVirate
p513
F6.387831326293232e-05
sVcleverer
p514
F1.106253980425298e-06
sVdumber
p515
F5.346016828838799e-06
sVweak
p516
F0.00011917691944335278
sVhowever
p517
F1.3700755774027515e-06
sVinterdependent
p518
F3.536846232437509e-06
sVsoutheast
p519
F3.927857506445423e-11
sVhere
p520
F7.00598085591979e-08
sVaccessed
p521
F6.58882916583868e-06
sVintelligent
p522
F3.721218479838218e-05
sVabolished
p523
F0.0
sVreceived
p524
F1.4104559155250196e-09
sVessentially
p525
F2.500173063597431e-07
sVirregular
p526
F2.699784017278619e-15
sVsmartest
p527
F3.130093925920602e-06
sVresistant
p528
F1.621931639777022e-05
sVill
p529
F7.049961298970697e-05
sViilegal
p530
F1.216472619764753e-05
sVblack-hearted
p531
F0.0
sVdisastrous
p532
F0.00014480108224303442
sVexport-ready
p533
F0.0
sVplanned
p534
F3.078392847912111e-08
sVlookin
p535
F1.6512186746438266e-09
sVagile
p536
F0.0
sVgreater
p537
F0.0005486221958002042
sVrequests
p538
F1.1376442688798988e-08
sVadapted
p539
F1.0609094718258423e-06
sVasked
p540
F1.938686868465629e-09
sVtough
p541
F0.34523985117993217
sVvain
p542
F1.3012253580859332e-06
sVhardworking
p543
F0.012741000872253126
sV2nd
p544
F5.734298555847146e-05
sVrepresented
p545
F0.0
sVunprotected
p546
F4.749510271170632e-13
sVwider
p547
F0.00010603885326365108
sVloaded
p548
F4.2218585423115155e-10
sVbureaucratic
p549
F2.3190968120950336e-05
sVmultifocal
p550
F3.0332333742614954e-08
sVpoppycock
p551
F6.044279997521206e-06
sVchloe
p552
F0.0
sVthree
p553
F0.0
sVtiny
p554
F2.323422513690381e-05
sVquickly
p555
F9.012935821801173e-07
sVconfident
p556
F3.2716514301499656e-06
sVrecognised
p557
F3.264574190228851e-08
sVdetrimental
p558
F2.8397548796325806e-05
sVsubstandard
p559
F9.958716440980743e-06
sVinterest
p560
F1.4623702071837994e-06
sVbasic
p561
F1.7814425349801316e-05
sVflexible
p562
F3.824038514463432e-06
sVlovely
p563
F0.00038370643729234685
sVincompetent
p564
F5.7936674010646385e-11
sVwell-deserved
p565
F1.3091369383026713e-10
sVbeloved
p566
F2.3190968120950336e-05
sVprosperous
p567
F1.9442443644121503e-07
sVeastern
p568
F1.0473542197958788e-10
sVjeopardized
p569
F3.695058167235876e-16
sVuncommon
p570
F3.248035817008713e-05
sVcoherent
p571
F5.168021924478913e-06
sVpersonally
p572
F5.265207434539358e-10
sVimmersive
p573
F0.0
sVcomfortable
p574
F0.00016390165094660054
sVpatronizing
p575
F0.0
sVgracious
p576
F3.7083384924288964e-07
sVapplied
p577
F2.686337806600648e-08
sVunpopular
p578
F6.208812160229704e-07
sVrighteous
p579
F4.9485703342364125e-06
sVpublicly
p580
F9.56603224517333e-07
sVinviolable
p581
F7.170280189499684e-07
sVprofessionally
p582
F1.841880403281751e-09
sVremaining
p583
F1.8037538140403324e-07
sVlesser
p584
F7.628184820479743e-05
sVugly
p585
F0.001295499304354798
sVnear
p586
F1.689270771893271e-06
sVover-the-air
p587
F2.147363755043169e-06
sVneat
p588
F8.489166687084229e-05
sVlaunched
p589
F1.3052783613364838e-09
sVdelineated
p590
F0.0
sVreadyto
p591
F5.520286666174791e-06
sVpreponderant
p592
F9.812455709590514e-08
sVwell-balanced
p593
F7.164413464486295e-06
sVderisory
p594
F3.6292585333499483e-07
sVit
p595
F0.0
sVill-equipped
p596
F2.7645788336933057e-11
sVil
p597
F1.0380211160965107e-06
sVworld-wide
p598
F6.103281763288901e-08
sVin
p599
F0.0
sVhappening
p600
F7.0976541592238975e-09
sVtrusted
p601
F1.821278384600996e-07
sVgrown
p602
F0.0
sVdamaged
p603
F0.0
sVpatent
p604
F6.882742100493877e-07
sVbelle
p605
F7.1385122977420665e-06
sVrealizing
p606
F1.489142687033359e-07
sVrecurrent
p607
F1.8664252930780833e-07
sVprincipale
p608
F3.304559827973825e-05
sVlinked
p609
F0.0
sVcompensable
p610
F2.16584961899091e-07
sVcomplex
p611
F0.002893828927762897
sVunfortunate
p612
F0.00016873763228105365
sVseveral
p613
F1.2521244949898511e-06
sVinfeasible
p614
F4.533896635463744e-06
sVtoasted
p615
F3.89496670981944e-07
sVeuropean
p616
F0.0
sVunharmed
p617
F1.7189403979337163e-06
sVindependent
p618
F1.4467274308412943e-06
sVemphasise
p619
F2.6010718511844323e-07
sVsocial
p620
F5.400845714057421e-05
sVdiffering
p621
F4.846600928649934e-08
sVevil
p622
F0.0012719394431512027
sVtiring
p623
F0.0
sV-lncredible
p624
F6.182658674985633e-05
sVjealous
p625
F2.899192760601837e-07
sVpalpable
p626
F1.97308653208298e-05
sVovert
p627
F8.874722164800507e-06
sVcost-effectiveness
p628
F3.501396250837026e-05
sVkid
p629
F4.083852208385527e-07
sVprescribed
p630
F0.0
sVridiculus
p631
F7.087646260991046e-06
sVshortly
p632
F1.680276339153991e-05
sVimmaterial
p633
F5.4495894908968504e-06
sVdre
p634
F0.0
sVrescinded
p635
F1.1728445085289767e-14
sVhumble
p636
F3.754343256776333e-06
sV-so
p637
F5.265994363746395e-08
sVunsuitable
p638
F3.1001562791041485e-06
sVhearty
p639
F7.2292975266505155e-06
sVgreatest
p640
F0.0008195560507831331
sVincapable
p641
F5.7936674010646385e-11
sVdreamy
p642
F3.502970483494248e-05
sVtabling
p643
F7.904858546759873e-09
sVleft
p644
F1.3091369383026713e-10
sVunified
p645
F2.7931672286277588e-08
sVstringent
p646
F0.002086871754148839
sVjust
p647
F2.1907879938750623e-05
sVkinky
p648
F2.3190968120950336e-05
sVephemeral
p649
F3.461434380150923e-08
sVwarmest
p650
F1.9813109620236375e-05
sVsleepy
p651
F0.0
sVunfair
p652
F1.6560587653392653e-05
sVidentify
p653
F4.607122335623012e-06
sVthanks
p654
F3.395674829989421e-07
sVhuman
p655
F1.8543880207347655e-08
sVyes
p656
F6.201466499493408e-06
sVyet
p657
F4.072938297454575e-05
sVfunctionally
p658
F5.568668019326329e-11
sVprevious
p659
F2.1733157344337972e-08
sVnote
p660
F3.6231559576940086e-09
sVmonitored
p661
F3.029660882588767e-05
sVdearer
p662
F0.00011472910943907495
sVcherry
p663
F3.360378902421135e-05
sVold-fashioned
p664
F4.638193624190067e-05
sVideal
p665
F9.742755529786494e-06
sVtopical
p666
F5.950249860416277e-08
sVsynergistic
p667
F2.5700160700590175e-06
sVinnocent
p668
F3.148547287562721e-08
sVtechnological
p669
F7.719119694123341e-09
sVpitiful
p670
F7.335576894259503e-05
sVeast
p671
F1.4898413296621356e-09
sVtolerable
p672
F3.839815587322511e-07
sVtrashed
p673
F5.9333598565789175e-08
sVusable
p674
F6.048979438618296e-07
sVinsensitive
p675
F0.0010717065708432671
sVadversarial
p676
F7.146137653968634e-09
sVhypersensitive
p677
F9.955721430563903e-07
sVpossible
p678
F2.4305306070817946e-06
sVfirmer
p679
F0.00051554317365331
sVpossibly
p680
F9.087273995466021e-08
sVcultural
p681
F1.0792811000829949e-06
sVdiscreet
p682
F5.191992127100402e-07
sVindicative
p683
F2.3190968120950336e-05
sVcopacetic
p684
F5.061061555211475e-06
sVunique
p685
F4.2548590874936016e-05
sVunfounded
p686
F8.915202786072145e-06
sVadvanced
p687
F1.1460130693850142e-12
sVapart
p688
F7.403343147977621e-07
sVpsychological
p689
F0.0
sVarticulated
p690
F0.0
sVintertwined
p691
F1.972281825668333e-11
sVpatience
p692
F1.1323714902807781e-08
sVcooler
p693
F1.905817598580435e-05
sVnude
p694
F0.0005358532849466825
sVgifted
p695
F1.447740619152631e-11
sVdishonest
p696
F5.647737060655137e-06
sVunnecessary
p697
F1.000994116738497e-05
sVspecific
p698
F8.775051881417228e-05
sVinformative
p699
F3.712304671733193e-05
sVsparse
p700
F1.9108681735323586e-05
sVarbitrary
p701
F2.3190968120950336e-05
sVnotorious
p702
F1.1055928097315794e-08
sVsecurity
p703
F1.0925571929525591e-06
sVbeneficial
p704
F3.059747127985337e-05
sVright
p705
F1.636646366357139e-05
sVold
p706
F7.620720054641975e-08
sVmacabre
p707
F2.3190968120950336e-05
sVeasy
p708
F0.0036375641389466
sViittle
p709
F1.5228525358298807e-06
sVelderly
p710
F5.198799253863099e-07
sVborn
p711
F0.0
sVsure
p712
F7.662867150523032e-06
sVdear
p713
F0.0
sVmultiple
p714
F1.6643189302696489e-06
sVrepelling
p715
F0.0
sVpsychogenic
p716
F0.0
sVconfusing
p717
F0.0004975559370171697
sVco-funded
p718
F0.0
sVfor
p719
F0.0
sVricher
p720
F4.641818614423245e-07
sVstronger
p721
F0.0011910804128661232
sVphenomenal
p722
F0.00024004661176180265
sVunavoidable
p723
F1.516168801455766e-06
sVcreative
p724
F4.6370612526997864e-05
sVwitty
p725
F1.2445529934394076e-05
sVprejudicial
p726
F1.0144534392502448e-05
sVasking
p727
F1.938686868465629e-09
sVhonoured
p728
F3.121225686794928e-06
sVswearing
p729
F0.0005358532849466825
sVadorable
p730
F2.876374233028408e-05
sVpalatable
p731
F1.1074846005373457e-06
sVcleanest
p732
F4.828681499931682e-08
sVbold
p733
F5.1184973375078295e-06
sVunwholesome
p734
F1.2211709039515425e-06
sVover-optimistic
p735
F7.066440189952753e-09
sVexecutable
p736
F8.479540444589143e-08
sVconstructive
p737
F4.46573425967736e-07
sVsqueamish
p738
F7.60916612212252e-06
sVfar-ranging
p739
F5.294818753963538e-07
sVinvaluable
p740
F1.4155664943517022e-05
sVmemorable
p741
F2.3190968120950336e-05
sVsuper
p742
F0.00010180096395721117
sVpermitted
p743
F1.8814266505088653e-08
sVimpenetrable
p744
F5.462785964762796e-07
sVanomalous
p745
F3.0667254617263593e-06
sVtrustworthy
p746
F2.0213896627484534e-06
sVmisleading
p747
F5.088452298053513e-06
sVensure
p748
F5.462785964762796e-07
sVdotty
p749
F4.195142030863746e-06
sVcost-shared
p750
F2.690929045273393e-09
sVill-founded
p751
F0.0
sVthinner
p752
F1.0383142129062863e-06
sVformerly
p753
F1.9908075010128506e-19
sVrock-solid
p754
F5.286530888708787e-19
sVdelighted
p755
F2.227255654842564e-05
sVobscene
p756
F2.482673710991529e-05
sVdown
p757
F0.0
sVthankful
p758
F6.024096931409111e-07
sVoverkill
p759
F4.792195661999662e-07
sVproblematical
p760
F0.0009250378215275836
sVformidable
p761
F0.0008287035603193589
sVbalanced
p762
F6.853814860885328e-06
sVhonored
p763
F3.121225686794928e-06
sVrefined
p764
F0.0
sVsimillar
p765
F7.338253649265519e-07
sVfrightened
p766
F0.00353127793101536
sVunambiguous
p767
F0.0001295565038703762
sVcleared
p768
F1.91989191020566e-08
sVfrazzled
p769
F0.0
sVbetter-looking
p770
F8.322361075896626e-07
sVindispensable
p771
F3.398611377110391e-06
sVinitial
p772
F2.618273876605343e-11
sVavailable
p773
F8.02021654828974e-06
sVsovereign
p774
F2.3190968120950336e-05
sVtimelier
p775
F1.2751079432124293e-05
sVabsolutely
p776
F1.7705778185240375e-05
sVaccordingly
p777
F1.2136316256775166e-07
sVvictorious
p778
F2.3190968120950336e-05
sVcounterproductive
p779
F2.0992492844288663e-05
sVauthorized
p780
F3.046119426565264e-07
sVway
p781
F0.0
sVbrainless
p782
F7.675902039369027e-06
sVlaunching
p783
F6.039781387451656e-10
sVhappy
p784
F1.8737806034522256e-05
sVlowest
p785
F8.628309026136097e-05
sVmedium
p786
F6.425857165647963e-07
sVoverjoyed
p787
F6.235731833944078e-06
sVafresh
p788
F5.286530888708787e-19
sVsome
p789
F1.3011354785212326e-06
sVenvious
p790
F1.6781987969526554e-07
sVback
p791
F7.390116334471752e-16
sVheinous
p792
F2.2673266264593434e-05
sVpayable
p793
F3.310473833127743e-08
sVunderstandable
p794
F1.8799509917387034e-06
sVdead
p795
F9.04478313045016e-05
sVroisin
p796
F0.0
sVsustained
p797
F1.3253184217965116e-07
sVremoved
p798
F0.0
sVtrue
p799
F2.1095791496330127e-05
sVunderfunded
p800
F1.3002358339903122e-05
sVabsent
p801
F4.853030142756229e-06
sVhigh-quality
p802
F1.0365282752192124e-07
sVbraver
p803
F3.8705554219336333e-07
sVurgent
p804
F3.729924838598162e-05
sVinside
p805
F4.577712863690087e-09
sVmaximum
p806
F2.1292962477671692e-08
sVruined
p807
F9.696899802437203e-08
sVtouchy
p808
F9.955721430563903e-07
sVinsincere
p809
F7.685839683627238e-07
sVunanimous
p810
F2.253621068516897e-06
sVheartening
p811
F4.133976906520604e-09
sVemotional
p812
F4.9332189065856295e-05
sVhorrifying
p813
F0.0006931444742007317
sVpanicky
p814
F0.0009391132248426847
sVjuvenile
p815
F1.1186042935922674e-05
sVproud
p816
F2.644777696332576e-06
sVhotter
p817
F4.917734179435929e-06
sVclassic
p818
F0.00019859863503305685
sVsinful
p819
F8.853512253172162e-05
sVnovel
p820
F2.4943803167398364e-11
sVwretched
p821
F3.5846648260081576e-05
sVproven
p822
F3.910010348185444e-15
sVsale
p823
F0.0
sVacclaimed
p824
F4.800472006834495e-08
sVbelievable
p825
F7.541450911493404e-07
sVmediocre
p826
F2.8491024220748144e-05
sVannoying
p827
F0.0016415915295916214
sVvice-chairperson
p828
F5.309204893238173e-09
sVinjurious
p829
F5.004012383192492e-06
sVshit
p830
F1.925482670628553e-06
sVphysical
p831
F2.2259199541587008e-05
sVdiscriminate
p832
F9.726997035357453e-10
sVfaithful
p833
F1.3721079603113808e-06
sVdying
p834
F2.014124306104071e-06
sVeerie
p835
F2.9690928896437703e-05
sVauthoritative
p836
F1.529792839350396e-05
sVstir-crazy
p837
F1.1180257787551588e-05
sVgenerally
p838
F1.1921788980927007e-07
sVhanded
p839
F0.0
sVreality
p840
F8.813474935768219e-07
sVanswerable
p841
F4.0118531799612723e-10
sVgeographically
p842
F1.865231303997343e-07
sVinterested
p843
F1.8808313341704593e-05
sVstagnant
p844
F3.03778975152505e-06
sVcomplicit
p845
F7.820575598169949e-09
sVambitious
p846
F5.418205230284347e-05
sVshort-term
p847
F6.173057679180167e-07
sVsuperfluous
p848
F8.386519620238292e-06
sVroll
p849
F0.0
sVunbalanced
p850
F0.0
sVtasteful
p851
F1.8102917667201498e-06
sVsavage
p852
F5.260185264042188e-07
sVformally
p853
F0.0
sVsnarky
p854
F9.499020542341263e-13
sVpreceding
p855
F7.390116334471752e-16
sVwelcome
p856
F2.284316526750271e-06
sVconvincing
p857
F3.3909315360385583e-06
sVpolite
p858
F7.390116334471752e-16
sVunwell
p859
F8.256831042208912e-06
sVinvested
p860
F7.807004117084203e-09
sVstress-related
p861
F0.0016962530259408252
sVvariable
p862
F2.3190968120950336e-05
sVdense
p863
F0.0
sVhurt
p864
F5.562791092326361e-05
sVdied
p865
F3.6998647546363655e-06
sVyounger
p866
F4.826081983329623e-05
sVallright
p867
F6.8692340806574e-06
sVopen-minded
p868
F5.682313995975046e-07
sVdaily
p869
F2.3190968120950336e-05
sVwell-designed
p870
F1.0554081956213057e-15
sVloyal
p871
F2.0192869039926963e-06
sVgood-natured
p872
F8.326845692481042e-06
sVwell-filled
p873
F1.0554081956213057e-15
sVtime
p874
F2.699784017278619e-15
sVmoreover
p875
F3.6048893542038163e-07
sVserious
p876
F0.0006503764817740086
sVdebate
p877
F0.0
sVrestored
p878
F0.0
sVoverdue
p879
F3.2253891682040614e-09
sVionely
p880
F5.258014426713655e-06
sVrehearse
p881
F5.529157667386612e-12
sVmanaged
p882
F4.749510271170632e-13
sVregrettably
p883
F3.138769919659476e-07
sVremarkable
p884
F0.00021424694669265707
sVglobal
p885
F2.976204556655174e-07
sVtask-oriented
p886
F3.272000209276224e-07
sVmild
p887
F4.2349675509800275e-05
sVgrateful
p888
F5.457901239395791e-06
sVspaced
p889
F0.0
sVabundant
p890
F3.6107233016390196e-06
sVtenable
p891
F1.3401995277773539e-06
sVseasick
p892
F5.194150913556929e-05
sVcertainly
p893
F1.917300970772495e-06
sVuneven
p894
F6.491743616319405e-05
sVyummy
p895
F3.3580347153798245e-06
sVeverything
p896
F1.5452262225036302e-05
sVdisgusting
p897
F0.0011773438204323032
sVenvironment
p898
F6.867629972913467e-07
sVfinally
p899
F1.0195289660601514e-06
sVunpleasant
p900
F0.0005491099616571899
sVpermanently
p901
F2.7097811053649785e-09
sVknackered
p902
F2.3643406686591493e-06
sVanalogous
p903
F1.3091152023571442e-06
sVoverwrought
p904
F0.00018476328743169507
sVtenacious
p905
F0.002321942131875934
sVshoot
p906
F0.0
sVpursuant
p907
F1.322106813831035e-07
sVsloppy
p908
F0.00010940725470149227
sVvegas
p909
F2.3190968120950336e-05
sVsappy
p910
F7.954830964738697e-07
sVcentralized
p911
F1.7904570770226535e-07
sVanonymous
p912
F2.4839256486194886e-05
sVadvised
p913
F0.0
sVlocked
p914
F4.446013876513715e-08
sVfullest
p915
F1.1303741338001983e-05
sVfifty
p916
F1.6618629849467635e-09
sVexact
p917
F3.528704140424055e-05
sVfeeble
p918
F1.678776665795225e-05
sVminute
p919
F4.994697828525184e-06
sVcool
p920
F0.0005996797420223457
sVdim
p921
F7.042997380839256e-07
sVflammable
p922
F0.0
sVimpressive
p923
F0.00015662016357806147
sVlevel
p924
F0.0
sV-good
p925
F1.6868297446629862e-06
sVregistered
p926
F0.0
sVcloudy
p927
F2.3190968120950336e-05
sVleave
p928
F0.0
sVdiscrete
p929
F2.536652551039134e-07
sVwarmth
p930
F0.00010429410902475938
sVquick
p931
F1.2994403900739544e-05
sVround
p932
F0.0
sVunaware
p933
F1.3294159359774234e-08
sVdistasteful
p934
F1.1074846005373457e-06
sVbrave
p935
F2.7671246226894295e-05
sVslower
p936
F3.9020699364346236e-05
sVill-conceived
p937
F0.0
sVinsignificant
p938
F4.2283783025030085e-05
sVobsolete
p939
F4.474589144589215e-13
sVcomforting
p940
F1.0043386513236104e-05
sVravenous
p941
F4.4148852562598563e-07
sVhelpless
p942
F1.7469641037011303e-05
sVrough
p943
F0.01605719375575883
sVirritated
p944
F1.0944256632591912e-05
sVstressful
p945
F0.004236845772901589
sVunder-age
p946
F2.998591702241675e-07
sVcelebrated
p947
F1.5697525967601432e-06
sVrationalized
p948
F3.800739004837039e-06
sVuniform
p949
F2.077516605263043e-06
sVcurrent
p950
F4.808775822085007e-07
sVsuspect
p951
F0.0005183113421204398
sVlong-standing
p952
F5.051311995827638e-07
sVtime-consuming
p953
F2.7425424225935075e-06
sVunrestricted
p954
F5.138244670582248e-07
sVcommensurate
p955
F1.9963287378118135e-06
sVfreaky
p956
F0.0005395718766063057
sVparadoxical
p957
F4.749510271170632e-13
sVhairy
p958
F0.00044440860877558325
sVunsure
p959
F8.232523209767927e-06
sVtransparency
p960
F6.648138438728199e-07
sVefficacious
p961
F1.0238258686137469e-05
sVassertive
p962
F0.0
sVfrench
p963
F2.898819073647253e-05
sVunderstanding
p964
F2.7340134447821744e-07
sVunanimously
p965
F1.0427073276443701e-06
sVcrippled
p966
F3.323008880822017e-06
sValone
p967
F9.168078543299984e-06
sVdisappeared
p968
F6.766759537547178e-19
sVenvironment-friendly
p969
F1.945963959471031e-06
sVmomentous
p970
F4.4568763867495845e-06
sVwait
p971
F1.7378930355920423e-07
sVboy
p972
F2.3190968120950336e-05
sVunidentified
p973
F1.4448104450043739e-06
sVnoticeable
p974
F0.00010104614996079107
sVbrilliant
p975
F0.00046412126826769464
sVspontaneous
p976
F1.209334976277339e-08
sVfunded
p977
F1.1728445085289767e-14
sVglobalization
p978
F6.103281763288901e-08
sVburdensome
p979
F0.001464572821234599
sVineffective
p980
F7.031944892793619e-06
sVusually
p981
F5.5739524000611275e-08
sVpriceless
p982
F2.9984004023682398e-05
sVweird
p983
F0.0009585771051766014
sVmuscovite
p984
F1.6155336428833113e-08
sVall-out
p985
F4.349286109365743e-07
sVgenuinely
p986
F1.1056743089035705e-06
sVbreathtaking
p987
F4.150832464728647e-05
sVinsolent
p988
F0.0005358532849466825
sVconfidentiality
p989
F4.6350698684492406e-08
sVextra
p990
F3.705266482680685e-05
sVproblematic
p991
F0.00924406695959597
sVmerely
p992
F1.411597269972208e-05
sVhiv-positive
p993
F5.6524315378937416e-08
sVmarked
p994
F0.0
sVmarvelous
p995
F0.0002222077547275703
sVflexibility
p996
F1.5461227001644338e-07
sVself-sufficient
p997
F4.899275386595659e-08
sV1st
p998
F1.1676775049286077e-05
sVatrocious
p999
F0.00045232702314901816
sVrarely
p1000
F2.0521320911889953e-06
sVultra-hazardous
p1001
F3.3295289355788505e-06
sVsympathetic
p1002
F6.425865873083461e-07
sVvivid
p1003
F2.2146287109906424e-05
sVworking
p1004
F0.0
sVhomesick
p1005
F2.3190968120950336e-05
sVpositive
p1006
F7.1724168441936654e-06
sVangry
p1007
F7.218130509510366e-05
sVby
p1008
F0.0
sVlive
p1009
F9.424782763758779e-06
sVopposed
p1010
F2.3712792222377566e-07
sVcuter
p1011
F1.2771566157654275e-05
sVtheoretical
p1012
F2.681112449643871e-07
sVtoday
p1013
F0.0
sVwicked
p1014
F0.0003946007800239497
sVunwarranted
p1015
F5.0676515998162e-06
sVacceptable
p1016
F1.6500875594708298e-06
sVapparent
p1017
F9.003690782733956e-05
sVwell-lit
p1018
F0.0
sVstate-funded
p1019
F1.1728445085289767e-14
sVodious
p1020
F7.34476430168521e-05
sVvisual
p1021
F0.0
sVrigid
p1022
F0.00030298701192425716
sVfirst-hand
p1023
F7.820575598169949e-09
sVeasiest
p1024
F0.0004906662678353687
sVmid-sized
p1025
F0.0
sVvalued
p1026
F0.0
sVanything
p1027
F2.9779802699722013e-05
sVpretend
p1028
F0.0
sVmodified
p1029
F4.63819362419007e-16
sVlongitude
p1030
F0.0
sVinstable
p1031
F3.6335496303806133e-06
sVhardest
p1032
F0.005542295096603885
sVsour
p1033
F0.0002766847024481339
sVamiss
p1034
F3.28898358335712e-05
sVgrowing
p1035
F7.754165266853657e-05
sVbatty
p1036
F1.9352777109668166e-07
sVdeceased
p1037
F1.3770486285156723e-05
sVnearest
p1038
F2.713367230352287e-07
sVdedicated
p1039
F2.3190968120950336e-05
sVgrouchy
p1040
F0.0
sVsmall-time
p1041
F2.3864492894216086e-06
sVgarbled
p1042
F0.0
sVexpanding
p1043
F3.3477708313602335e-06
sVawesome
p1044
F0.0012298520506877444
sVconfused
p1045
F8.221177440826374e-05
sVtopic
p1046
F5.236547753210685e-10
sVheard
p1047
F2.4782512981846364e-05
sVbattered
p1048
F1.2255482193958067e-06
sVdistinguishable
p1049
F1.9835209060502466e-07
sVcraze
p1050
F1.374188628186519e-05
sVill-treated
p1051
F3.3971144708423344e-08
sVproductive
p1052
F4.243490315855916e-06
sVbankrupt
p1053
F3.5956670522631673e-06
sVsecured
p1054
F5.462785964762796e-07
sVdelirious
p1055
F5.621257276024753e-06
sVinnumerable
p1056
F1.1863491359609149e-07
sVvital
p1057
F2.6209574031724446e-05
sVcardinal
p1058
F2.135077121121508e-06
sVactual
p1059
F2.5669710076314822e-06
sVfourth
p1060
F1.6227712154120396e-05
sVsignificant
p1061
F0.00010604006313676052
sVoptimal
p1062
F7.15845945035788e-06
sVallowable
p1063
F9.545452422322985e-08
sVpathway
p1064
F0.0
sVunbelievable
p1065
F0.00014365950220863628
sVparamount
p1066
F2.823091317683934e-05
sVirrational
p1067
F2.576416528116773e-07
sVinformation
p1068
F0.0
sVimpartial
p1069
F2.1884683744638626e-10
sVbroadest
p1070
F2.067927461853974e-05
sVpraiseworthy
p1071
F4.233529104800209e-06
sVprimordial
p1072
F5.064966065054408e-06
sVdesigned
p1073
F0.0
sVimproving
p1074
F1.4061888999046602e-06
sVdrastic
p1075
F4.0789159604054276e-05
sVsuck
p1076
F1.6661649368792105e-05
sVdestructive
p1077
F2.3190968120950336e-05
sVguys
p1078
F0.0
sVnon-toxic
p1079
F3.26491231101512e-07
sVegotistical
p1080
F4.749510271170632e-13
sVdisagreeable
p1081
F0.0003004949501460723
sVcosteffective
p1082
F3.791547730756537e-05
sVnatural
p1083
F9.219351247850351e-07
sVliquid
p1084
F0.0
sVconscious
p1085
F1.184368889839049e-06
sVlong-range
p1086
F0.0
sVslightly
p1087
F6.535473693043522e-06
sVexplicit
p1088
F5.421637225613152e-06
sVnosey
p1089
F6.195236679101652e-06
sVfluent
p1090
F8.750414390201614e-06
sVrather
p1091
F4.3771095700464936e-07
sVthorny
p1092
F3.644176918080483e-05
sVso
p1093
F0.00015164553629075142
sVafrican
p1094
F2.0776588615238217e-09
sVtall
p1095
F3.2621733794315395e-05
sVlabour-intensive
p1096
F2.2427182643131476e-09
sVdrunken
p1097
F7.626221625269981e-07
sVcute
p1098
F0.0001511149079230656
sVinnocuous
p1099
F1.1240116651262825e-05
sVnoteworthy
p1100
F2.4344410774973924e-05
sVshaky
p1101
F2.191291746884175e-05
sVmainly
p1102
F4.906227854795257e-08
sVunacceptable
p1103
F2.948334764261289e-05
sVcharacteristic
p1104
F8.665447232891561e-07
sVcourse
p1105
F1.2230857624471557e-06
sVcold
p1106
F0.0027868028788807075
sVstill
p1107
F4.5297756297004844e-05
sVlovelier
p1108
F1.1086507719239381e-05
sVsacrosanct
p1109
F5.260185264042188e-07
sVconstituted
p1110
F0.0
sVthank
p1111
F2.5690491032994535e-08
sVlackluster
p1112
F3.6179909270210853e-07
sVinteresting
p1113
F3.829819919858814e-05
sVamazing
p1114
F0.0002903385554265367
sVunprejudiced
p1115
F6.125043368189888e-08
sVbad-looking
p1116
F0.00012587040332630428
sVconsequential
p1117
F5.973056940167709e-07
sVcoordinated
p1118
F4.749510271170632e-13
sVextirpated
p1119
F1.3533519075094356e-18
sVmain
p1120
F4.1997956371808575e-05
sVhappened
p1121
F7.0976541592238975e-09
sVnouveau
p1122
F2.3190968120950394e-16
sVnon
p1123
F1.8024446771019081e-07
sVlonely
p1124
F2.4400785509320285e-05
sVdisparate
p1125
F8.370895702660449e-08
sVsmarter
p1126
F9.585208107954593e-05
sVexecutory
p1127
F0.00232231374230326
sVsooner
p1128
F2.762708397774746e-06
sVmoron
p1129
F4.4611325596516505e-07
sVqualified
p1130
F9.397066992493785e-08
sVwell-suited
p1131
F0.0
sVunimpressive
p1132
F3.4987342415992043e-06
sVwealthy
p1133
F2.0420837370051912e-07
sVthus
p1134
F1.25416383257235e-07
sVnow
p1135
F5.314526688724331e-07
sVprovision
p1136
F8.049599048835884e-09
sVordinary
p1137
F1.255794942857941e-06
sVmatched
p1138
F0.0
sVterm
p1139
F0.0
sVfirst-rate
p1140
F4.30219349730226e-05
sVbetter-quality
p1141
F1.4780232668943504e-15
sVrespectable
p1142
F3.2498034007051133e-06
sVscarcer
p1143
F2.8415222178018508e-06
sVtruthful
p1144
F7.173451027279582e-06
sVunexceptable
p1145
F1.4436277989889206e-06
sVrealistic
p1146
F2.562830390017545e-06
sVwealthier
p1147
F1.5669567004185715e-07
sVrock
p1148
F0.0
sVentirely
p1149
F2.723331708150188e-06
sVweighted
p1150
F0.0
sVunproductive
p1151
F4.035146044825651e-07
sVunachievable
p1152
F3.83964991654281e-06
sVchallenged
p1153
F0.0
sVkane
p1154
F2.3190968120950336e-05
sVabnormal
p1155
F3.3813946481851915e-06
sVyeah
p1156
F3.0934674479351886e-06
sVimpolite
p1157
F0.0005358532849466825
sVchallenges
p1158
F7.288353836160966e-05
sVyear
p1159
F0.0
sVa-okay
p1160
F6.836911610436356e-06
sVubiquitous
p1161
F2.0605100825721817e-06
sVgirl
p1162
F9.973233687954436e-08
sVworried
p1163
F0.000768224208047607
sVsmall-scale
p1164
F7.295713651009342e-06
sVgiddy
p1165
F3.356587099235705e-06
sVliving
p1166
F1.0974787802231352e-05
sVdrier
p1167
F7.295247776518091e-10
sVopened
p1168
F4.3316217881678054e-07
sV3rd
p1169
F4.906227854795257e-08
sVfurthermore
p1170
F9.01222338550954e-07
sVenvironmentally-friendly
p1171
F6.838509428848625e-06
sVlooking
p1172
F0.0
sVseriously
p1173
F0.00038834945160136624
sVnominal
p1174
F3.240782722470399e-06
sVimperative
p1175
F1.7624665607514122e-05
sVemerged
p1176
F0.0
sVviable
p1177
F9.276787162603414e-06
sVtangible
p1178
F5.050711246864155e-05
sVtechnology-neutral
p1179
F1.3694034765739962e-11
sVadvantaged
p1180
F0.0
sVdisrespect
p1181
F0.0
sVcomplicated
p1182
F0.004121060158258251
sVemblematic
p1183
F7.549143268538521e-09
sVwell-controlled
p1184
F2.4307779621341565e-08
sVracked
p1185
F3.6567124203987833e-07
sVominous
p1186
F0.00011994282491836267
sVmarine
p1187
F1.8024446771019081e-07
sVinevitable
p1188
F3.971770275966014e-06
sVrepayable
p1189
F6.392270206556021e-14
sVirresponsible
p1190
F5.637132336669264e-06
sVgood-iooking
p1191
F7.173999736282936e-06
sVwrong
p1192
F0.0008719940313545202
sVhonest
p1193
F2.6038226558087216e-05
sVbest-known
p1194
F3.809616181927776e-09
sVindustrialised
p1195
F0.0
sVundesirable
p1196
F2.504218793631625e-05
sVbothersome
p1197
F0.00025418237830989354
sVmisused
p1198
F9.200176385179078e-06
sVfrequent
p1199
F9.180434143505773e-07
sVfirst
p1200
F0.00010347623711295368
sVblind
p1201
F5.865736274896685e-06
sVconstantly
p1202
F1.5440239889279747e-07
sVstriking
p1203
F4.97397295883913e-05
sVincongruous
p1204
F3.816795635334129e-06
sVsymbolic
p1205
F1.1323714902807781e-08
sVyourself
p1206
F0.0
sVbetter-iooking
p1207
F1.0292580798110734e-05
sVtemporarily
p1208
F0.0
sVsimplified
p1209
F0.00019684706366178986
sVlong
p1210
F2.984413212422658e-06
sVdirectly
p1211
F4.410605075234484e-07
sVimpossible
p1212
F9.411270504021781e-05
sVunattainable
p1213
F4.533896635463744e-06
sVopen
p1214
F8.564924852070886e-06
sVcheesy
p1215
F2.4669957600775738e-05
sVgiven
p1216
F0.0
sVnecessarily
p1217
F6.259018786497872e-07
sVco-funding
p1218
F0.0
sVsilent
p1219
F9.277561233001527e-07
sVcategorical
p1220
F5.6524315378937416e-08
sVstructured
p1221
F5.529157667386612e-12
sVcallous
p1222
F0.0047535566946537424
sVcompulsory
p1223
F5.680121873301097e-07
sVpsychotic
p1224
F2.4745383689034003e-05
sVcost-effectively
p1225
F7.399759706711851e-05
sVcrystal-clear
p1226
F3.5491500919476475e-06
sVtragic
p1227
F0.00011767679347762325
sVterrifying
p1228
F0.0009555470309434429
sVcost-effective
p1229
F0.0008054776197161424
sVwhite
p1230
F2.8017695980871136e-09
sVspeaking
p1231
F0.0
sVokey-dokey
p1232
F3.295662532257615e-07
sVscience-based
p1233
F8.84964019332001e-07
sVinefficient
p1234
F2.0410378544594714e-05
sVmostly
p1235
F1.795118799847445e-05
sVthat
p1236
F5.391546158982167e-07
sVfreer
p1237
F2.3413172647006706e-07
sVcontinuous
p1238
F6.20462173860713e-06
sVhuh
p1239
F4.053220689483324e-09
sVreleased
p1240
F3.0332333742614954e-08
sVridiculous
p1241
F0.00011256459410446201
sVlengthier
p1242
F5.294818753963538e-07
sVoccurring
p1243
F0.0
sVthan
p1244
F0.0
sVspecify
p1245
F4.607122335623012e-06
sV10
p1246
F1.3515710713192178e-09
sVrugged
p1247
F0.022907405250856785
sVunfortunately
p1248
F6.125043368189888e-08
sVself-employed
p1249
F1.0511558356666892e-06
sVdepressed
p1250
F5.396973322926112e-05
sVscrumptious
p1251
F5.075185697422127e-06
sVgotta
p1252
F3.6766590020196954e-08
sVprotected
p1253
F4.749510271170632e-13
sVall-inclusive
p1254
F9.856233660393216e-07
sVaesthetic
p1255
F1.1323714902807781e-08
sVindividualized
p1256
F0.0
sVgigantic
p1257
F5.62969703991249e-05
sVmeticulous
p1258
F1.8007072515902543e-05
sVproactive
p1259
F2.3968982889512975e-05
sVquestionable
p1260
F0.00042883262168429544
sVtroublesome
p1261
F0.0009335115022525865
sVcontentious
p1262
F2.546599011051355e-05
sVarmored
p1263
F0.0
sVnicer
p1264
F8.801359463566465e-05
sVsal
p1265
F2.3190968120950336e-05
sVpro
p1266
F1.841880403281751e-09
sVpremier
p1267
F4.906227854795257e-08
sVturned
p1268
F1.6155336428833113e-08
sVsad
p1269
F0.0001868468288361151
sVprestigious
p1270
F1.1323714902807781e-08
sVsay
p1271
F2.5690491032994535e-08
sVduty-bound
p1272
F0.0
sVinsatiable
p1273
F5.85216257971255e-08
sVoccupied
p1274
F6.41129665765705e-09
sVany
p1275
F0.0
sVdeserted
p1276
F1.1323714902807781e-08
sVsquat
p1277
F8.721073708860261e-07
sVabysmal
p1278
F1.6625123245639152e-05
sVcheerful
p1279
F1.279215264845146e-07
sVefficient
p1280
F0.00015575146686029335
sVshocked
p1281
F6.138951331786154e-05
sVterrific
p1282
F0.001560776196910605
sVendangered
p1283
F3.017691461236319e-05
sVfiine
p1284
F3.900421013903847e-06
sVpotential
p1285
F1.1573012461107025e-06
sVobjective
p1286
F1.3091369383026713e-10
sVresponsibility
p1287
F5.0148164749515904e-11
sVpersonalized
p1288
F0.0
sVblunt
p1289
F4.746367794664942e-05
sVswitching
p1290
F0.0
sVflattered
p1291
F2.3190968120950336e-05
sVbegin
p1292
F0.0
sVcommonplace
p1293
F9.871603205564895e-06
sVprick
p1294
F2.2305662798258253e-07
sVnormal
p1295
F2.4787089195650594e-06
sVclearer
p1296
F0.00011751055816044736
sVpaid
p1297
F2.5334842826976015e-08
sVn'tunderstand
p1298
F2.0421176268637027e-06
sVimportantly
p1299
F0.0
sVpurty
p1300
F2.2138815473583666e-05
sVamerica
p1301
F4.749510271170632e-13
sVcreditable
p1302
F0.0
sVconspicuous
p1303
F1.6376503405917294e-05
sVforever
p1304
F2.3190968120950336e-05
sVviewable
p1305
F1.0512085312738785e-06
sVespecially
p1306
F2.2163715816577956e-05
sVsurprising
p1307
F7.238788470572759e-05
sVconsidered
p1308
F0.0
sVaverage
p1309
F0.0
sVlater
p1310
F7.814945637121109e-06
sVsteady
p1311
F3.677576444691931e-05
sVhungry
p1312
F1.0077049032721589e-06
sVawareness-raising
p1313
F1.3294159359774234e-08
sVsubsequent
p1314
F2.8544785915063224e-13
sVjittery
p1315
F0.00018476328743169507
sVprofessional
p1316
F2.66480362673289e-09
sVsenior
p1317
F2.5376681164290135e-06
sVgender-neutral
p1318
F1.3694034765739962e-11
sVtypically
p1319
F1.4370100927431049e-07
sVprecise
p1320
F0.00019556228374387533
sVmonstrous
p1321
F1.1463601462028825e-05
sVshot
p1322
F3.6567124203987833e-07
sVmuchfor
p1323
F0.0
sVcheap
p1324
F0.00036565376695622516
sVcontemporary
p1325
F2.031381890389228e-12
sVright-handed
p1326
F0.0
sVbright
p1327
F5.067004862201653e-05
sVheart-warming
p1328
F1.4108863039232613e-06
sVinconsistent
p1329
F7.2059176235171e-06
sVsouthwestern
p1330
F1.2213260367672027e-09
sVscarce
p1331
F6.140180744465749e-05
sVaggressive
p1332
F2.002624315793669e-05
sVmultifaceted
p1333
F6.623675730796572e-07
sVslow
p1334
F7.86108180964513e-06
sVpunchy
p1335
F2.2305662798258253e-07
sVenough
p1336
F2.3264921506669748e-05
sVself-supporting
p1337
F8.533700380793865e-07
sVonly
p1338
F3.941656728950316e-06
sVgoing
p1339
F2.3285648201371056e-07
sVblack
p1340
F1.125319009486864e-05
sVequipped
p1341
F2.7645788336933057e-11
sVuppermost
p1342
F1.8495352260940796e-05
sVdemand-driven
p1343
F1.938686868465629e-09
sVdispute
p1344
F0.0
sVgroovy
p1345
F4.10586082175563e-06
sVdissimilar
p1346
F1.2763960492910339e-06
sVget
p1347
F0.0
sVroutine
p1348
F4.894616213081685e-07
sVfreezing
p1349
F0.00021744948781480644
sVtruly
p1350
F8.556570025438273e-07
sVsimplistic
p1351
F0.0005312604874572863
sVunimportant
p1352
F8.940495780439991e-06
sVinfallible
p1353
F9.731976372721236e-07
sVetcetera
p1354
F0.0
sVlighter
p1355
F0.00015079602135063835
sVhumbled
p1356
F1.0149467326966803e-06
sVthought-out
p1357
F0.0
sVunethical
p1358
F3.521137952241505e-05
sVclearest
p1359
F4.034323757864488e-05
sVsecondary
p1360
F4.74107914587769e-05
sVprime
p1361
F5.164635505838139e-07
sVdisabled
p1362
F3.273762058933762e-08
sVundemanding
p1363
F9.69374473091803e-07
sViovely
p1364
F1.2245811252974622e-05
sVseldom
p1365
F3.614473026274054e-06
sVtopnotch
p1366
F0.0
sVail
p1367
F0.0
sVnaked
p1368
F2.3190968120950336e-05
sVstupid
p1369
F7.750840815644674e-05
sVliable
p1370
F3.623507225143532e-07
sVunappy
p1371
F6.669577843364138e-06
sVworrying
p1372
F8.542050636154146e-05
sVstaff
p1373
F7.785787201798684e-07
sVunquestionable
p1374
F1.365321459828728e-07
sVdeclared
p1375
F0.0
sVphysically
p1376
F2.2259199541587008e-05
sVviolated
p1377
F3.695058167235876e-16
sVpitch-black
p1378
F1.125319009486864e-05
sVuneconomical
p1379
F5.8364047669919496e-06
sVblurred
p1380
F3.7771469071651375e-05
sVrelative
p1381
F4.263933729473232e-06
sVelected
p1382
F4.919266413501121e-08
sVactively
p1383
F2.3298983349434207e-06
sVasleep
p1384
F1.1866719713157835e-07
sVculpable
p1385
F1.2419479600242684e-08
sVunaltered
p1386
F2.372042611963158e-07
sVaroused
p1387
F7.388041028319119e-06
sVunderpaid
p1388
F1.4704542062442904e-08
sVencouraged
p1389
F8.267953813041207e-09
sVharmonised
p1390
F2.3190968120950336e-05
sVgratifying
p1391
F3.5466835290065477e-06
sVsatisfying
p1392
F2.3924974009190852e-06
sVvoluntary
p1393
F3.099639450214029e-09
sVsteadfast
p1394
F0.002480350537673069
sVlimber
p1395
F1.5461227001644338e-07
sVunabated
p1396
F4.772162747688183e-06
sValarming
p1397
F0.00048096811740753597
sVfascinated
p1398
F0.0
sVdefinite
p1399
F0.00020573640686871888
sVteeny
p1400
F1.4376409217328215e-06
sVnorth-west
p1401
F0.0
sVoutside
p1402
F9.726997035357434e-21
sVlaborious
p1403
F0.0008040139164929044
sVbetween
p1404
F0.0
sVsimplifying
p1405
F2.6875035397158965e-06
sVjustified
p1406
F1.982831267579314e-06
sVaffordable
p1407
F0.0001643422018400281
sVoverly-high
p1408
F3.89496670981944e-07
sVlast-minute
p1409
F4.098670171127417e-09
sVuseful
p1410
F1.4502324229619264e-05
sVfearless
p1411
F4.312297999256465e-06
sVself-serving
p1412
F1.508011250780895e-06
sVgood-looking
p1413
F3.443903789430279e-05
sVs-sorry
p1414
F4.0960901568171334e-06
sVfree-standing
p1415
F8.043772842134299e-07
sVall-embracing
p1416
F2.0602924954749375e-07
sVwell-protected
p1417
F4.749510271170632e-13
sVcome
p1418
F0.0
sVgrieved
p1419
F2.5110159357275815e-06
sVconcentrated
p1420
F1.26636969693693e-07
sVdiscernible
p1421
F3.452168453350183e-06
sVuntapped
p1422
F0.0
sVtalented
p1423
F2.8497061627023787e-12
sVmany
p1424
F4.0568704456321715e-06
sVquiet
p1425
F1.523849369174793e-05
sVuneconomic
p1426
F4.868407463255602e-06
sVunforeseen
p1427
F4.5453039103699056e-06
sVsketchy
p1428
F0.00014256179570037422
sVtraded
p1429
F0.0
sVstupide
p1430
F1.5613963958780775e-06
sVnearby
p1431
F0.0
sVyearly
p1432
F1.6618629849467635e-09
sVmadness
p1433
F1.4340560378999368e-06
sVafterwards
p1434
F7.569612020794855e-06
sVterse
p1435
F3.3568440824085488e-06
sVeffective
p1436
F5.490119502602311e-05
sVinexplicable
p1437
F1.3373080825917957e-14
sV15-year-old
p1438
F1.6618629849467635e-09
sVmaintained
p1439
F5.1336734564283774e-08
sVstrengthening
p1440
F0.00015183893950148104
sVadditionally
p1441
F1.8024446771019081e-07
sVliberal
p1442
F0.0
sVbizarre
p1443
F0.00019071645630389827
sVactually
p1444
F2.2881821498507475e-06
sVlaudable
p1445
F4.613691127976024e-06
sVbutthead
p1446
F4.4611325596516505e-07
sVsensible
p1447
F8.850390999384809e-05
sVunusual
p1448
F9.466339483564863e-05
sVcapable
p1449
F1.0047093869835468e-06
sVwest
p1450
F0.0
sVinclusive
p1451
F8.83577137256997e-07
sVinformed
p1452
F1.5791234741658535e-08
sValmighty
p1453
F3.6399245749457954e-06
sVdependable
p1454
F4.679781744859176e-07
sVeco-friendly
p1455
F4.708003116883858e-06
sVpeaceful
p1456
F1.4181464912237057e-05
sVcompensatory
p1457
F6.138411903507398e-09
sVbrisk
p1458
F6.656673666487057e-08
sVbullshit
p1459
F1.8998822390046277e-05
sVmarty
p1460
F0.0
sVeducated
p1461
F6.392270206556012e-14
sVfucked-up
p1462
F9.726022412626234e-06
sVformed
p1463
F0.0
sVreaching
p1464
F0.0
sVth-that
p1465
F1.736963756313828e-20
sVdramatic
p1466
F0.00013981715097972192
sVsuspected
p1467
F0.0001383657989104958
sVextant
p1468
F1.2279843485497451e-07
sVsticky
p1469
F0.0
sVirrelevant
p1470
F8.614015361199552e-06
sVformer
p1471
F0.0
sVcountless
p1472
F1.1863491359609149e-07
sVcase
p1473
F0.0
sVspecialised
p1474
F1.572648966004832e-08
sVmyself
p1475
F3.138769919659476e-07
sVdeveloping
p1476
F2.1108163912426114e-15
sVthese
p1477
F4.5645531993254653e-08
sVwealthiest
p1478
F2.2781052269028458e-08
sVsingle
p1479
F4.019220312439918e-05
sVpremature
p1480
F4.36966359603537e-06
sVfiercer
p1481
F1.2050890212466827e-06
sVhandicapped
p1482
F1.1271811038242433e-08
sVdorky
p1483
F1.6370911509240954e-05
sVmightier
p1484
F9.629200818781423e-06
sVslippery
p1485
F0.0002462113885482234
sVpromising
p1486
F8.862994000117706e-08
sVcancelled
p1487
F3.8434826879081144e-07
sViil
p1488
F2.0760422321930214e-06
sVimplacable
p1489
F1.1890616301095674e-06
sVunsatisfactory
p1490
F0.00012574583824908752
sVeventually
p1491
F4.828681499931682e-08
sVsincere
p1492
F2.2749624347441252e-05
sVfuzzy
p1493
F3.341237623900209e-05
sVengaged
p1494
F1.0920377070167552e-07
sVdubious
p1495
F2.8627467139766792e-05
sVsleeping
p1496
F0.0
sVmiddle
p1497
F6.425857165647963e-07
sVone-sidedly
p1498
F2.6706106248633593e-07
sVsudden
p1499
F2.7451823331157104e-06
sVironic
p1500
F0.0001548927194187124
sVgrievous
p1501
F8.661151869579846e-05
sVobnoxious
p1502
F0.00018457463452297497
sVfastest
p1503
F9.705561955867488e-06
sVkosher
p1504
F1.7596361776045792e-06
sVdifferent
p1505
F3.5320188274631517e-06
sVingrained
p1506
F0.0
sVharsh
p1507
F0.016345029632463506
sVdoctor
p1508
F0.0
sVsmoother
p1509
F9.988889744531121e-05
sVgranted
p1510
F5.286530888708787e-19
sVscientifically
p1511
F8.84964019332001e-07
sVimmense
p1512
F0.00018887910115640113
sVsame
p1513
F2.5740791559721168e-06
sVwreckable
p1514
F6.17011977248285e-07
sVconstructed
p1515
F0.0
sVinoffensive
p1516
F2.248023330252565e-05
sVmoronic
p1517
F3.276452246423126e-06
sVnoble
p1518
F3.1939345143638457e-07
sVeven-handed
p1519
F4.4252582478187695e-05
sVclosest
p1520
F1.6322198651914238e-05
sVrefusal
p1521
F3.644176918080483e-05
sVyo
p1522
F4.700267154876216e-06
sVdisadvantaged
p1523
F4.64656611235023e-05
sVbulletproof
p1524
F0.0
sVrunning
p1525
F4.749510271170632e-13
sVdelicate
p1526
F0.00027446661270079446
sVunqualified
p1527
F7.719119694123341e-09
sVchanging
p1528
F2.915310333186183e-08
sVcheery
p1529
F4.9380741653108914e-08
sVdiscernable
p1530
F4.403654135190774e-07
sVdisputable
p1531
F0.0
sVpurer
p1532
F5.964098202349091e-08
sVthreaded
p1533
F0.0
sVrebatable
p1534
F6.392270206556021e-14
sVoversensitive
p1535
F9.955721430563903e-07
sVno
p1536
F2.1015459927848845e-06
sVcustomized
p1537
F0.0
sVsubstantive
p1538
F2.2466360548571477e-06
sVfrozen
p1539
F0.0001959156970157072
sVsevere
p1540
F0.002973531165472207
sVimmeasurable
p1541
F8.99981147101466e-06
sVluminous
p1542
F3.130093925920602e-06
sVgrumpy
p1543
F0.0
sVunconvincing
p1544
F2.9365278800031464e-06
sVuncomplicated
p1545
F0.00016259787572400723
sVamazed
p1546
F2.9846010146551227e-06
sVcharged
p1547
F0.0
sVdesolate
p1548
F3.138769919659476e-07
sVmanifold
p1549
F1.5918175025348334e-07
sVpre-published
p1550
F3.9067723444912576e-08
sVbeing
p1551
F4.081267142570417e-08
sVknowledgeable
p1552
F7.120566277063849e-07
sVinter-linked
p1553
F2.1165623337989272e-06
sVvaluable
p1554
F1.7204145168885918e-05
sVunofficial
p1555
F1.1323714902807781e-08
sVviolent
p1556
F0.0023621497911051202
sVunclear
p1557
F0.0006518187929268297
sVnon-binding
p1558
F6.138411903507398e-09
sVflaccid
p1559
F7.533429268899948e-07
sVimpractical
p1560
F0.006887725017741099
sVinaudible
p1561
F0.0
sVperilous
p1562
F0.0001232717944955743
sVblow
p1563
F0.0
sVbi-directional
p1564
F0.0
sVclueless
p1565
F2.0421176268637027e-06
sVwidest
p1566
F9.290860311297072e-05
sVvice-chair
p1567
F9.859951944585179e-09
sVforward-looking
p1568
F2.6182738766053426e-10
sVlifelong
p1569
F2.7097811053649785e-09
sVsenseless
p1570
F2.760416790711683e-05
sVimprovement
p1571
F2.929534347835179e-07
sVcomplements
p1572
F3.063154623601517e-06
sVextensive
p1573
F6.453400757724329e-05
sVheavier
p1574
F0.000586315867161261
sVjoyful
p1575
F0.0
sVdisproportionate
p1576
F4.588892277608972e-05
sVscheduled
p1577
F0.0
sVaround
p1578
F1.4333777515406255e-06
sVspectacular
p1579
F8.844321367232944e-05
sVoutermost
p1580
F7.660092753627247e-07
sVover-ambitious
p1581
F3.942285138230809e-06
sVgonna
p1582
F1.4089008081960654e-06
sVdark
p1583
F0.0002115710954567374
sVawol
p1584
F1.3533519075094356e-18
sVtraffic
p1585
F0.0
sVdarn
p1586
F0.0
sVaccepted
p1587
F8.534275842635775e-09
sVdisappointed
p1588
F3.9514783361883744e-05
sVvague
p1589
F0.00017469901548427706
sVsensational
p1590
F8.806650243435411e-05
sVacute
p1591
F0.00017087619222909658
sVacquainted
p1592
F0.0
sVstranger
p1593
F0.0001507125342575691
sVaction-oriented
p1594
F3.272000209276224e-07
sVnosy
p1595
F6.195236679101652e-06
sVcollective
p1596
F1.6972156239471647e-07
sVindisputable
p1597
F8.986274054398894e-07
sVtardy
p1598
F2.732446780751611e-09
sVwrongful
p1599
F1.3091369383026713e-10
sVaudience
p1600
F3.838193279145084e-08
sVwell-prepared
p1601
F4.137067941987966e-06
sVeither
p1602
F3.237238562041226e-06
sVresolved
p1603
F1.1323714902807781e-08
sVserved
p1604
F0.0
sVdirtier
p1605
F0.0
sVpassionate
p1606
F9.32934139621441e-06
sVwell-received
p1607
F2.4373363767551203e-06
sVtwelve
p1608
F1.6618629849467635e-09
sVsatisfactory
p1609
F2.337833403013893e-05
sVexposed
p1610
F1.1323714902807781e-08
sVpushy
p1611
F4.784973268098101e-07
sVoverworked
p1612
F1.7800079569736752e-07
sVsupplementary
p1613
F4.060517546745614e-06
sVcalculated
p1614
F0.0
sVdemeaning
p1615
F1.2450690940473822e-05
sV-me
p1616
F2.4339557743116046e-20
sVintact
p1617
F1.2715975880424842e-06
sVextinct
p1618
F1.3533519075094356e-18
sVbooming
p1619
F2.0018682247656423e-08
sVprovided
p1620
F1.1507251954858e-07
sVperverse
p1621
F3.5591539825224515e-06
sVthanan
p1622
F0.0
sVunlocked
p1623
F4.028298450741656e-07
sVriveting
p1624
F9.566301369058789e-06
sVdrenched
p1625
F1.706037976730047e-07
sVdefenceless
p1626
F8.220903352183464e-07
sVslick
p1627
F1.7240283922790885e-05
sVlegal
p1628
F1.7104901270530398e-06
sVconservative
p1629
F7.852484338480006e-06
sVnutty
p1630
F1.4270988845599363e-05
sVtailor-made
p1631
F4.846600928649934e-08
sVcritical
p1632
F0.00023633630963351945
sVmoot
p1633
F2.502893069737499e-05
sVclear-cut
p1634
F7.868383392403857e-06
sVrefundable
p1635
F6.392270206556021e-14
sVdeceptive
p1636
F5.099776012956321e-06
sVmoderate
p1637
F6.4400844628553975e-06
sVwell-planned
p1638
F5.093437446126576e-09
sVbiased
p1639
F2.6706106248633593e-07
sVfelt
p1640
F0.0
sVhiv-infected
p1641
F5.6524315378937416e-08
sVintimate
p1642
F2.3190968120950336e-05
sVmanufactured
p1643
F0.0
sVequivalent
p1644
F4.7027485534243115e-07
sVnotable
p1645
F2.837054903727741e-05
sVmiscellaneous
p1646
F1.8024446771019081e-07
sVnotably
p1647
F2.730642919657456e-07
sVuneasy
p1648
F0.0054922815820078
sVdespicable
p1649
F2.2673266264593434e-05
sVterrified
p1650
F0.00021540484113443344
sVexciting
p1651
F0.00010513535738225977
sVfinicky
p1652
F0.0024312674394183485
sVrepeating
p1653
F5.529157667386612e-12
sVon
p1654
F0.0
sVsubdued
p1655
F7.524656883333864e-08
sVok
p1656
F3.328512837630403e-05
sVrobust
p1657
F0.002826571844325684
sVof
p1658
F0.0
sVfavorite
p1659
F1.7889902337268785e-06
sVreinforcing
p1660
F4.786047958637539e-05
sVslender
p1661
F2.6944892482062497e-06
sVpractical
p1662
F7.042273914296089e-05
sVaddition
p1663
F6.477080741240046e-06
sVpracticable
p1664
F1.5672574710037418e-05
sVdeterminable
p1665
F1.6219701144807339e-06
sVunderway
p1666
F5.5209129640661985e-08
sVmixed
p1667
F0.00028182595341972574
sVmean
p1668
F0.0
sVprovisional
p1669
F8.11956379199144e-06
sVreferenced
p1670
F0.0
sVmeagre
p1671
F4.9189873285623787e-05
sVlong-lived
p1672
F3.9959865029916926e-07
sVflawed
p1673
F8.253078780941693e-06
sVskilled
p1674
F1.5491123339242793e-07
sVblessed
p1675
F8.464497740220978e-07
sVrising
p1676
F0.0
sVlively
p1677
F6.76379482137506e-05
sVheated
p1678
F0.0003577699956769752
sVelementary
p1679
F5.391180914666962e-06
sVuptown
p1680
F0.0
sVlastly
p1681
F1.0195289660601514e-06
sVtechnically
p1682
F3.510518684477139e-07
sVher
p1683
F0.0
sVever-increasing
p1684
F4.188377461210267e-05
sVthere
p1685
F6.12300218133689e-08
sVhey
p1686
F2.5690491032994535e-08
sVstark
p1687
F0.0011529364721235365
sVstart
p1688
F0.0
sVcompliant
p1689
F1.0757916723590829e-06
sVmissy
p1690
F9.973233687954436e-08
sVlow
p1691
F0.0001340197261311342
sVsealed
p1692
F4.749510271170632e-13
sVresolute
p1693
F0.0024939507090148585
sVdeposited
p1694
F7.904858546759873e-09
sVdecisive
p1695
F9.371386124858724e-06
sVhysterical
p1696
F4.853034289536146e-05
sVallergic
p1697
F2.3190968120950336e-05
sVcomplete
p1698
F1.7834439835443585e-05
sVvested
p1699
F5.286530888708787e-19
sVunsettled
p1700
F8.102256620090686e-06
sVdelayed
p1701
F5.464893561503222e-09
sVsophisticated
p1702
F0.0006172824834220923
sVchange
p1703
F0.0
sVended
p1704
F7.686965141247327e-07
sVtwo-thirds
p1705
F2.3432922749814684e-05
sVantiquated
p1706
F4.474589144589215e-13
sVattainable
p1707
F2.876428515034307e-05
sVwith
p1708
F1.1323714902807781e-08
sVbelated
p1709
F4.098670171127417e-09
sVlonger
p1710
F9.290812802696197e-06
sVabused
p1711
F0.0
sVarranged
p1712
F0.0
sVromantic
p1713
F3.092129082793379e-05
sVembedded
p1714
F2.7931672286277588e-08
sVreceptive
p1715
F2.520632323451719e-07
sVreasoned
p1716
F3.628489619811119e-07
sVbrain-dead
p1717
F2.8536918556072533e-05
sVdirty
p1718
F0.0013558459672879171
sViegitimate
p1719
F0.0
sVabove-board
p1720
F5.090844682131749e-07
sVpolitically
p1721
F2.740929953221607e-07
sVpowerless
p1722
F2.351398799542505e-05
sVdarker
p1723
F0.00019136888014634353
sVdetailed
p1724
F3.617093096175655e-05
sVgone
p1725
F5.406402161727788e-06
sVrequired
p1726
F1.6541394778948094e-07
sVflexibly
p1727
F3.0922454003288676e-07
sVjohnny
p1728
F2.3190968120950336e-05
sVgratuitous
p1729
F3.0332333742614954e-08
sVexhausted
p1730
F7.279161530570196e-07
sVcertain
p1731
F2.653609708462288e-06
sVdeep
p1732
F5.6465648005653066e-05
sVgeneral
p1733
F4.541068614225122e-06
sVas
p1734
F5.302463091985046e-07
sVtasty
p1735
F1.1955854192620321e-05
sVtogether
p1736
F2.514683290084668e-05
sVcorresponding
p1737
F9.657362999863364e-08
sVtedious
p1738
F0.000109417782116059
sVagain
p1739
F3.822559403956346e-06
sVonerous
p1740
F0.002554106351939214
sVideally
p1741
F0.0
sVidiot
p1742
F8.82429148951674e-06
sVadministered
p1743
F0.0
sVluckier
p1744
F1.3409751714475e-06
sVvocational
p1745
F2.2533420150073205e-09
sVgraduate
p1746
F3.196135103278006e-14
sVshort-sighted
p1747
F6.244034220772406e-07
sVtight
p1748
F0.00028302891458055815
sVvalid
p1749
F3.0880218883676497e-06
sVthought-provoking
p1750
F6.385064584636948e-07
sVyou
p1751
F0.0
sVincomprehensible
p1752
F2.0059621238876934e-14
sVwell-paid
p1753
F1.4704542062442904e-08
sVdisgraceful
p1754
F0.00020455613494426602
sVpoor
p1755
F0.0002669603867251142
sVrequested
p1756
F1.1376442688798988e-08
sVbriefly
p1757
F5.219492840835687e-07
sVdead-on
p1758
F3.086933530150266e-06
sVineligible
p1759
F6.023606445754151e-07
sVopen-ended
p1760
F8.027497624352295e-07
sVobsessed
p1761
F1.1323714902807781e-08
sVseparate
p1762
F1.777701081189977e-06
sVstocky
p1763
F1.7281793034117023e-06
sVimportant
p1764
F4.247995093051679e-05
sVsuited
p1765
F0.0
sVfresh
p1766
F4.343684992251726e-06
sVincluded
p1767
F3.970985344012364e-07
sVequitable
p1768
F1.8617025181090956e-06
sVprudent
p1769
F4.233762157261545e-05
sVconclusive
p1770
F7.02117045977521e-05
sVtricky
p1771
F0.017974911063492298
sVbooked
p1772
F0.0
sVclinically
p1773
F1.4745550566905818e-08
sVomnibus
p1774
F1.1829381901631418e-07
sVimprecise
p1775
F1.9133189879767388e-05
sVfoutu
p1776
F1.4142866183848207e-07
sVunscathed
p1777
F8.84964019332001e-07
sVsaved
p1778
F3.295662532257615e-07
sVexhausting
p1779
F0.0
sVgross
p1780
F0.00023662025022265176
sVfraudulent
p1781
F0.0001319733209883348
sVpretentious
p1782
F0.0
sVrecognising
p1783
F3.617246971368525e-07
sValright
p1784
F7.05411951219717e-05
sVoral
p1785
F2.8859861461966045e-05
sVoriginal
p1786
F3.833075715825619e-08
sVall
p1787
F3.3502525419078336e-07
sVhateful
p1788
F2.2213348416759852e-07
sVbreadth
p1789
F4.963387826714092e-07
sVcrucial
p1790
F2.6371536438379403e-05
sVinvariable
p1791
F1.2735493048920462e-07
sVanti-constitutional
p1792
F1.5360535414613155e-06
sVsplitting
p1793
F1.736963756313828e-20
sVfounded
p1794
F8.128292849460535e-17
sVthoughtful
p1795
F2.0468447351643577e-05
sVsystemic
p1796
F0.0
sVcooperative
p1797
F4.920034949784266e-07
sVmessy
p1798
F0.007214849856611085
sVcustomary
p1799
F6.736477447177296e-07
sVdebatable
p1800
F2.28925755519197e-05
sVfaster
p1801
F1.375928167190473e-05
sVreligious
p1802
F2.3190968120950336e-05
sVgo
p1803
F6.392270206556012e-14
sVarming
p1804
F1.3091369383026713e-10
sVdreadful
p1805
F0.0012579617847785281
sVattentive
p1806
F1.3680550758257066e-06
sVeverywhere
p1807
F3.8434825706236635e-07
sVstartled
p1808
F4.476901521982684e-06
sVfacultative
p1809
F1.5498197251070145e-09
sVinexhaustible
p1810
F5.85216257971255e-08
sVextraneous
p1811
F3.1914932660323988e-06
sVto
p1812
F0.0
sVdeep-rooted
p1813
F0.0
sVmulti-faceted
p1814
F5.294818753963538e-07
sVhideous
p1815
F0.0003362515085512834
sVimmutable
p1816
F2.860735569817966e-07
sVsound
p1817
F7.400751354331947e-05
sVcomercial
p1818
F3.0332333742614954e-08
sVworse
p1819
F0.0052829962810975115
sVequivocal
p1820
F3.099483217200944e-05
sVfar
p1821
F3.1566179133188855e-05
sVfat
p1822
F2.790553274385044e-06
sVcandid
p1823
F2.2950648833361404e-06
sVworst
p1824
F0.003272061935849543
sVfall
p1825
F0.0
sVawful
p1826
F0.006603113635826026
sVefficacy
p1827
F3.3982846693763565e-06
sVmanageable
p1828
F6.162374660579773e-06
sVtiresome
p1829
F3.652613488139607e-08
sVgeneralised
p1830
F2.4933404829582016e-07
sValien
p1831
F1.4448104450043739e-06
sVsentimental
p1832
F0.0
sVproscribed
p1833
F1.1323714902807781e-08
sVmarvellous
p1834
F0.00020588366944918263
sVageing
p1835
F0.0
sVprolonged
p1836
F3.355164776446963e-08
sVbone-dry
p1837
F7.295247776518091e-10
sVlarge
p1838
F0.00017605096254675036
sVsane
p1839
F5.9363604323921153e-05
sVunproblematic
p1840
F2.1948202583791675e-05
sVsalute
p1841
F2.5690491032994535e-08
sVsmall
p1842
F2.3731483241248836e-05
sVeconomically
p1843
F9.055383141056432e-08
sVquicker
p1844
F1.896803692789426e-05
sVten
p1845
F1.6618629849467635e-09
sVcolossal
p1846
F1.3216099987520346e-05
sVcorrigendum
p1847
F3.061439416737912e-07
sVhereto
p1848
F3.1486310090891044e-08
sVbuilt-in
p1849
F8.379501685883276e-08
sVpreposterous
p1850
F3.0578309955597854e-05
sVself-contained
p1851
F8.533700380793865e-07
sV19
p1852
F1.6618629849467635e-09
sVzero
p1853
F1.2610134721654086e-05
sVenhancement
p1854
F7.796833867348568e-05
sVfurther
p1855
F6.330049219768679e-05
sVfunctioning
p1856
F9.046471727673429e-11
sVdestitute
p1857
F4.454006370625267e-06
sVcasual
p1858
F0.0
sVreturned
p1859
F3.909481695096573e-15
sVimported
p1860
F0.0
sVillogical
p1861
F1.1698557377102622e-06
sVadvantageous
p1862
F4.3794905328440905e-06
sVshort-lived
p1863
F4.751324888391404e-05
sVpoisonous
p1864
F9.79473693304536e-07
sVbrief
p1865
F1.6951372740727536e-05
sVrun
p1866
F0.0
sVsuccinct
p1867
F4.709395534534695e-06
sVjudicious
p1868
F2.4018558501221036e-05
sVongoing
p1869
F1.5208375781682425e-07
sVpublic
p1870
F1.3360844537808552e-06
sVhandy
p1871
F2.4782335071145744e-05
sVrevealing
p1872
F0.0
sVoutgoing
p1873
F4.906227854795257e-08
sVfull
p1874
F1.5759242778052283e-05
sVchristian
p1875
F2.3190968120950336e-05
sVsentient
p1876
F2.212507960850596e-06
sVunprofessional
p1877
F2.0573080586278476e-10
sVloose
p1878
F0.0005747319042599488
sVfavourable
p1879
F1.4477244219214756e-06
sVinconsiderable
p1880
F7.86226528992579e-06
sVselective
p1881
F2.3190968120950336e-05
sVstrong
p1882
F0.003148408961548554
sVthready
p1883
F1.0659667697434513e-05
sVfatter
p1884
F3.5791393721018645e-06
sVidentifiable
p1885
F1.5171187904129886e-13
sVexceptionally
p1886
F1.4404642857949956e-05
sVcreepy
p1887
F0.002688146448820224
sVwell-structured
p1888
F3.06154999989126e-07
sVprior
p1889
F1.634559549098914e-08
sVhealthier
p1890
F9.398871453128553e-05
sVpublished
p1891
F3.9067723444912576e-08
sVheartbroken
p1892
F2.5129732793642155e-05
sVnarrow
p1893
F9.038090820927783e-06
sVweirder
p1894
F0.000161902494130025
sVelongated
p1895
F5.120489745742797e-07
sVsuddenly
p1896
F7.960535623956652e-07
sVmarginal
p1897
F1.8607858827546965e-05
sVcosmetic
p1898
F1.1323714902807781e-08
sVtrained
p1899
F3.2049847622710938e-09
sVuntraceable
p1900
F1.1323714902807781e-08
sVarmed
p1901
F1.3091369383026713e-10
sVnon-specific
p1902
F9.635852153766669e-08
sVhurtin
p1903
F2.6646997087174265e-05
sVconventional
p1904
F8.966798391294058e-06
sVproceed
p1905
F0.0
sVdistinct
p1906
F7.851580514255423e-06
sVall-round
p1907
F4.349286109365743e-07
sVtwo
p1908
F0.0
sValmost
p1909
F8.14324214732987e-06
sVnothingg
p1910
F8.977978619190207e-07
sVfreest
p1911
F1.91989191020566e-08
sVhlv-positive
p1912
F5.6524315378937416e-08
sVgorgeous
p1913
F0.00016027475743482714
sVmysterious
p1914
F2.922153173107755e-05
sVtacky
p1915
F3.1001562791041485e-06
sVunthinkable
p1916
F8.786853181087543e-06
sVminor
p1917
F5.441248452441687e-05
sVmore
p1918
F7.947166227426375e-05
sVflat
p1919
F4.863362316043372e-06
sVunderprivileged
p1920
F7.835072309706734e-06
sVstaggering
p1921
F0.0001250718535847722
sVregrettable
p1922
F9.53773761514339e-05
sVspoilt
p1923
F5.586635898960669e-07
sVone-sided
p1924
F1.36583891981066e-06
sVinstrumental
p1925
F1.4919602456519209e-05
sVcommenced
p1926
F1.654015545233389e-07
sVgrisly
p1927
F0.0
sVbasically
p1928
F8.84964019332001e-07
sVbroke
p1929
F4.812810677263295e-07
sVparticular
p1930
F3.754260162592755e-05
sVknown
p1931
F2.1224664849517769e-07
sVhurry
p1932
F5.785504544493073e-07
sVnineteen
p1933
F1.6618629849467635e-09
sVglad
p1934
F5.011640269071779e-06
sVpleasing
p1935
F0.0
sVhour
p1936
F0.0
sVcanceled
p1937
F3.8434825706236635e-07
sVshielded
p1938
F0.0
sVlong-winded
p1939
F0.0
sVdebated
p1940
F0.0
sVineffectual
p1941
F9.466593332543484e-07
sVspecialized
p1942
F8.197471371783994e-09
sVself-conscious
p1943
F0.0012573377502947047
sVhistory
p1944
F5.3810354415002843e-08
sVbeautiful
p1945
F0.00018865892097107427
sVstubborn
p1946
F0.0011573046075507413
sVembarrassing
p1947
F0.0005117532808757635
sVwell-coordinated
p1948
F4.749510271170632e-13
sVlife-threatening
p1949
F0.0001461239647910492
sVstated
p1950
F0.0
sVmeaner
p1951
F1.9271346022126392e-06
sVprescriptive
p1952
F2.3190968120950336e-05
sVsicker
p1953
F1.0380211160965107e-06
sVunbiased
p1954
F1.7776473314916639e-10
sVminimum
p1955
F4.697997488860073e-06
sVsharp
p1956
F0.00019100042056838584
sVmainstream
p1957
F1.435827600316187e-07
sV!
p1958
F0.0
sVhuge
p1959
F0.00015286217988790172
sVgoal
p1960
F2.6182738766053426e-10
sVawkward
p1961
F0.007767653108693185
sVlousy
p1962
F0.0002899645100873268
sVneedy
p1963
F0.00010476819944911527
sVimminent
p1964
F3.36915802629171e-06
sVpressing
p1965
F4.8540885599647506e-06
sVdismissed
p1966
F3.909481695096573e-15
sVunlucky
p1967
F6.881242201045189e-06
sVglowing
p1968
F3.4851993494390927e-06
sVsacred
p1969
F2.2427896541192147e-05
sVheadstrong
p1970
F0.00037093406673878313
sVhopeless
p1971
F0.0011804685231241751
sVacknowledging
p1972
F3.7501885649662676e-07
sVokay
p1973
F3.6899746862857516e-05
sVintended
p1974
F3.0316267143431915e-06
sVrude
p1975
F0.01204906888281052
sVpetite
p1976
F9.973233687954436e-08
sVhinky
p1977
F7.170280189499684e-07
sVbeastly
p1978
F1.1463601462028825e-05
sVdeath-proof
p1979
F3.080910632497544e-08
sVunsound
p1980
F2.3777539572306163e-05
sVfast-growing
p1981
F1.2397375867369635e-05
sVcoming
p1982
F1.8083858363071536e-07
sVinconceivable
p1983
F8.783325245893061e-06
sVauthentic
p1984
F3.63936257761095e-06
sVundisputable
p1985
F8.743486338220705e-06
sVbleak
p1986
F0.00040124348423058756
sVa
p1987
F0.0
sVsnotty
p1988
F0.0
sVshort
p1989
F2.7260912134579154e-05
sVpreferential
p1990
F2.3190968120950336e-05
sVcrowded
p1991
F3.1198323730828383e-06
sVquoted
p1992
F0.0
sVgroundless
p1993
F2.3504392215722354e-06
sVgeneric
p1994
F1.1829381901631418e-07
sVuntenable
p1995
F7.988117817686695e-06
sVnegligible
p1996
F1.3596959433568964e-05
sVskilful
p1997
F0.0
sVfundamental
p1998
F1.2273637352833992e-05
sVpitch-dark
p1999
F2.250638018973728e-05
sVimpermissible
p2000
F3.607379982380525e-06
sVgeographic
p2001
F1.865231303997343e-07
sVcrafty
p2002
F7.650961266996891e-05
sVdepraved
p2003
F3.3250246467821414e-05
sVdeveloped
p2004
F7.387857369349139e-15
sVheartfelt
p2005
F0.0
sVco-chairperson
p2006
F0.0
sVsoon
p2007
F6.008100992074024e-07
sVcarmela
p2008
F0.0
sVinstalled
p2009
F2.3190968120950336e-05
sVwide-ranging
p2010
F3.412142537574872e-05
sVheld
p2011
F0.0
sVunsolved
p2012
F3.868217270281875e-06
sVnaughty
p2013
F0.00019552217055732808
sVthrough
p2014
F3.8434825706236635e-07
sVsupra
p2015
F1.9908075010128506e-19
sVcommitted
p2016
F1.1109441466371856e-08
sVstone-cold
p2017
F4.685147023325038e-06
sVforgiving
p2018
F1.8837985959255581e-06
sVunhealthy
p2019
F9.348932266659223e-06
sVbummed
p2020
F7.28520703433395e-06
sVrapidly
p2021
F4.6533230253777697e-07
sVprat
p2022
F2.2305662798258253e-07
sVmistreated
p2023
F3.3971144708423344e-08
sVbeautifui
p2024
F1.323488434931832e-05
sVcoarser
p2025
F1.8995906849174246e-06
sVfruitful
p2026
F2.5031897080781913e-06
sVlate
p2027
F7.268580770324288e-08
sVharmless
p2028
F0.00012660987975642019
sVdisclosed
p2029
F3.0332333742614954e-08
sVattended
p2030
F0.0
sVnifty
p2031
F4.937390667664232e-06
sVself-aware
p2032
F1.3294159359774234e-08
sVbereft
p2033
F0.00010476819944911527
sVfiner
p2034
F1.5424469546266431e-06
sVfocussed
p2035
F1.605933678645564e-08
sVhurting
p2036
F4.633884578281133e-05
sVgood
p2037
F3.936724896123869e-05
sVmotivated
p2038
F2.1618867948206747e-06
sVdisrespectful
p2039
F0.0005358532849466825
sVlargest
p2040
F0.0003435900525036
sVanticipated
p2041
F5.093437446126576e-09
sVshitless
p2042
F0.0
sVpermissible
p2043
F1.027175635891921e-06
sVnon-compliant
p2044
F2.1453727036308545e-06
sVbigger
p2045
F0.0002441595828210473
sVlovable
p2046
F1.3903049901353917e-05
sVshifty
p2047
F1.0462063808783955e-06
sVsubtler
p2048
F1.9891008695353814e-05
sVfully
p2049
F3.2626754097776806e-06
sVnauseous
p2050
F1.0380211160965107e-06
sVutilized
p2051
F4.677018390946387e-08
sVreaily
p2052
F0.0023588437849257687
sVgoofy
p2053
F1.5202355123699987e-05
sVstopped
p2054
F0.0
sVaggrieved
p2055
F3.695058167235876e-16
sVinherent
p2056
F1.9333592173763648e-07
sVshocking
p2057
F0.0004871886836457823
sVintolerable
p2058
F5.196729539419134e-06
sVexquisite
p2059
F0.00013476144445320068
sVforthright
p2060
F2.741927573137728e-06
sVheavy
p2061
F0.0003164490395919652
sVmisguided
p2062
F9.200176385179078e-06
sVeveryone
p2063
F0.0
sVdelicious
p2064
F5.0468282201023073e-05
sVneedless
p2065
F1.3012253580859332e-06
sVundetectable
p2066
F1.1323714902807781e-08
sVcolder
p2067
F0.0003543981101629177
sVhard
p2068
F0.02315579967819486
sVpositioned
p2069
F0.0
sVwacky
p2070
F1.6072248500339885e-05
sVmodernized
p2071
F2.031381890389228e-12
sVexorbitant
p2072
F0.0003276800917209221
sVirreconcilable
p2073
F2.0685173591242634e-08
sVpro-poor
p2074
F3.4987342415992043e-06
sVwacko
p2075
F7.768952394305646e-06
sVorganised
p2076
F0.0
sVreally
p2077
F0.002387886503622642
sVanxious
p2078
F0.0005958019454527011
sVfoolproof
p2079
F9.731976372721236e-07
sVpresumptuous
p2080
F2.3190968120950336e-05
sVunnatural
p2081
F3.0667254617263593e-06
sVchildish
p2082
F1.9185466006252558e-05
sVsurrounded
p2083
F2.785262718061536e-05
sVjolly
p2084
F1.2236679233702002e-06
sVparticipants
p2085
F7.820575598169949e-09
sVdarling
p2086
F1.0159826726322194e-05
sVinduced
p2087
F0.0
sVissue
p2088
F5.236547755201493e-10
sVhard-pressed
p2089
F2.9573376387821388e-06
sVuh-huh
p2090
F2.5690491032994535e-08
sVmission-critical
p2091
F0.0
sVpathetic
p2092
F0.00012422689160665503
sVfound
p2093
F0.0
sVparched
p2094
F2.014124306104071e-06
sVmotherfucker
p2095
F7.993563930323551e-07
sVlike
p2096
F3.6195207996129987e-07
sVpleasant
p2097
F0.00010779088954391942
sVextraordinary
p2098
F0.0002142921064700119
sVreason
p2099
F8.41941040022032e-07
sVbrightest
p2100
F3.130093925920602e-06
sVdire
p2101
F0.005431563359647208
sVvigorous
p2102
F0.00036808483186540877
sVecologically
p2103
F4.708003116883858e-06
sVlaughable
p2104
F2.3216856567584734e-05
sVearliest
p2105
F1.1761632220570024e-05
sVunresolved
p2106
F4.0336479490248706e-06
sVunbecoming
p2107
F0.0
sV-sorry
p2108
F2.824892927693529e-06
sVannulled
p2109
F1.1728445085289767e-14
sVbroad-based
p2110
F3.0390620910036482e-06
sVterrible
p2111
F0.002658378312587681
sVamerican
p2112
F4.749510271170632e-13
sVjurisdictional
p2113
F4.629318474688977e-09
sVexpedient
p2114
F5.441932532221881e-05
sVmerry
p2115
F1.773022681376235e-07
sVindebted
p2116
F0.0
sVmajor
p2117
F0.00010910657020118963
sVengagement
p2118
F1.6512186746438266e-09
sVrooted
p2119
F0.0
sVupper
p2120
F2.1527409519049987e-05
sVradical
p2121
F1.2917961381909011e-06
sVbelligerent
p2122
F0.0
sVfancy
p2123
F0.00025426804264338555
sViucky
p2124
F1.3764696841280962e-06
sVwell-known
p2125
F2.6165459397592706e-07
sVfierce
p2126
F0.00030773793487322336
sVenlarged
p2127
F1.896036084733999e-05
sVunexpected
p2128
F4.220704564532073e-05
sVdone
p2129
F7.789251975429491e-07
sVblank
p2130
F9.840713346069687e-09
sVnorth-east
p2131
F3.927857506445423e-11
sVsingle-ranked
p2132
F2.9930937460179813e-05
sVobligatory
p2133
F1.2750157447125905e-07
sV"
p2134
F0.0
sVfuller
p2135
F1.2720426696128795e-05
sVbloodied
p2136
F3.8434825706236635e-07
sVinexcusable
p2137
F1.7191549887335104e-05
sVtwenty
p2138
F1.6618629849467635e-09
sVfinanced
p2139
F0.0
sVtougher
p2140
F0.01429704961013776
sVmoderately
p2141
F9.455893773578314e-07
sVcomfy
p2142
F1.0315371108140813e-05
sVleast
p2143
F4.371684361703629e-05
sVelegante
p2144
F2.3190968120950394e-16
sVexcitable
p2145
F4.3788846736782094e-06
sVobtainable
p2146
F3.1312078893034283e-06
sVomnipresent
p2147
F5.875513176341928e-07
sVendearing
p2148
F0.0
sVwonderfui
p2149
F2.943545229091382e-05
sVmama
p2150
F3.792664734487739e-06
sVnigeria
p2151
F6.925529538412739e-10
sVenchanting
p2152
F5.044169174668306e-06
sVmerciless
p2153
F4.749510271170632e-13
sVtoo
p2154
F0.0
sVtreasured
p2155
F6.972031307646627e-10
sVrelieved
p2156
F4.749510271170632e-13
sVantsy
p2157
F6.050428650924374e-05
sVimmediate
p2158
F2.569962080020265e-07
sVinconsequential
p2159
F2.5690491032994535e-08
sVoff-putting
p2160
F4.5442070631779325e-05
sVsizable
p2161
F1.1557665856486759e-06
sVpart
p2162
F0.0
sVnon-competitive
p2163
F1.3299930843511367e-07
sVfavorable
p2164
F8.884929833520924e-07
sVgruesome
p2165
F0.0004124205518294741
sVscaleable
p2166
F1.309136938302673e-10
sVrampant
p2167
F4.4473785194295496e-06
sVrespendable
p2168
F1.2295942282008674e-06
sVkind
p2169
F6.409066530212279e-06
sVstate-owned
p2170
F3.068397856804895e-05
sVdouble
p2171
F7.512957636840525e-07
sVlargely
p2172
F1.5834221530415963e-06
sVoutrageous
p2173
F0.00045785673947771374
sVdetermined
p2174
F1.6219701144807339e-06
sVcontrary
p2175
F1.6168302236054811e-06
sVuncanny
p2176
F2.390757220744945e-05
sVinsulted
p2177
F1.702224481187555e-09
sVstale
p2178
F2.656454785865992e-07
sVtreated
p2179
F0.0
sVrisky
p2180
F4.499424580333735e-05
sVferociously
p2181
F0.0
sVcleaner
p2182
F3.156670399380248e-05
sVmotivation
p2183
F3.628489619811119e-07
sVvacant
p2184
F7.49439876340883e-09
sVbad
p2185
F0.006171020223010728
sVsubstantiated
p2186
F8.234023467234711e-17
sVoutstanding
p2187
F0.00021674574591386785
sVurgently
p2188
F7.248990378873056e-07
sVsuspicious
p2189
F0.0005183113421204398
sVwell-developed
p2190
F2.111345044331482e-15
sVaffirmative
p2191
F4.085535366512965e-07
sVcattled
p2192
F4.445966381411003e-08
sVwell-written
p2193
F3.093051099612575e-08
sVsubstantial
p2194
F7.254041317426235e-05
sValike
p2195
F1.2427448357531011e-06
sVcognizant
p2196
F2.2329476387663667e-07
sVimperfect
p2197
F1.6585249760706373e-06
sVcumbersome
p2198
F0.010691933420638774
sVnull
p2199
F1.1323714902807781e-08
sVvulnerable
p2200
F2.786398747659476e-05
sVbriiliant
p2201
F3.701424951298204e-05
sVsell
p2202
F0.0
sVbuilt
p2203
F0.0
sVdestabilizing
p2204
F7.583821345788654e-05
sVempowered
p2205
F1.1323714902807781e-08
sVaccountable
p2206
F6.017779769941908e-10
sVheterosexual
p2207
F2.0574356440219887e-06
sVlit
p2208
F0.0
sVmoist
p2209
F2.7388069531479924e-11
sVrecognizing
p2210
F5.106389658401884e-07
sVinternal
p2211
F1.2009927767336721e-11
sVbarmy
p2212
F6.3634008787555e-06
sVgeneralized
p2213
F7.277334900097853e-07
sVfrail
p2214
F5.15536282019916e-06
sVaggravating
p2215
F1.6556403535096369e-06
sVorderable
p2216
F1.2132933497045982e-07
sVon-going
p2217
F1.841151768165928e-08
sVinsufferable
p2218
F5.339137666864981e-06
sVextensible
p2219
F6.545684691513366e-11
sVmarginalized
p2220
F2.2641900647948176e-08
sVcontestable
p2221
F0.0
sVnon-compensatory
p2222
F6.138411903507398e-09
sVmedium-sized
p2223
F0.0
sVunused
p2224
F0.0
sVmost
p2225
F7.392811461638667e-05
sVsponsored
p2226
F0.0
sVunder-funded
p2227
F1.3002358339903122e-05
sVenduring
p2228
F1.3253184217965116e-07
sVnothing
p2229
F2.8297189087055858e-05
sVdefensible
p2230
F2.887678000944145e-07
sVfaint
p2231
F4.186051164004235e-06
sVextremely
p2232
F1.7029009470338307e-05
sVapproved
p2233
F9.196527327904969e-08
sVfunnier
p2234
F2.3190968120950336e-05
sVself-governed
p2235
F8.533700380793865e-07
sVunequal
p2236
F0.0
sVapposite
p2237
F8.197952214294751e-08
sVsturdy
p2238
F4.212128884515459e-05
sVmobile
p2239
F2.3190968120950336e-05
sVclear
p2240
F0.0001417226487185691
sVbecoming
p2241
F0.0
sVunreasonable
p2242
F5.525980058802929e-05
sValtered
p2243
F4.63819362419007e-16
sVtraditional
p2244
F4.781711481486419e-06
sVclean
p2245
F1.6588337013580496e-05
sVusual
p2246
F2.446173529819887e-06
sVparticularly
p2247
F1.5197117016681045e-05
sVblended
p2248
F9.955721430563903e-07
sVscattered
p2249
F1.1323714902807781e-08
sVfixated
p2250
F1.6219701144807339e-06
sVwell-placed
p2251
F0.0
sVinflexible
p2252
F0.00014399020523055538
sVco-operative
p2253
F2.6717481536910364e-05
sVstoned
p2254
F1.6150448903777506e-06
sVcarefully
p2255
F6.39674389722234e-07
sVexcessive
p2256
F0.00030400966738685167
sVdegraded
p2257
F2.3190968120950336e-05
sVfine
p2258
F0.00011454009422583278
sVfind
p2259
F0.0
sVdistressing
p2260
F0.000684350730119433
sVgiant
p2261
F8.764854188531798e-07
sVtime-sensitive
p2262
F2.8818089207268494e-06
sVnorthern
p2263
F5.6326196975115366e-09
sVparanoid
p2264
F2.4019855534673442e-11
sVconvinced
p2265
F6.222139930334007e-07
sVhope
p2266
F1.2034249800202927e-07
sVgrotesque
p2267
F5.479431558016417e-05
sVunhappy
p2268
F3.2893021301428996e-05
sVidiots
p2269
F1.6423608411150998e-06
sVpretty
p2270
F0.00014447923079654898
sVinadvisable
p2271
F1.5941954643628516e-10
sVhip
p2272
F2.0719182822292034e-06
sVintractable
p2273
F0.0
sVlegible
p2274
F7.522876503214156e-07
sVdominant
p2275
F1.9609878603969505e-06
sVall-powerful
p2276
F3.89496670981944e-07
sVhiv
p2277
F5.6524315378937416e-08
sVdependent
p2278
F1.2940230237267259e-17
sVluke
p2279
F0.0
sVsunny
p2280
F1.1554181850349964e-05
sVcheaper
p2281
F0.0008750208000487429
sVfamous
p2282
F9.458644614794779e-08
sVout-dated
p2283
F4.474589144589215e-13
sVlongest
p2284
F8.164935499803956e-07
sVshared
p2285
F9.436822649094314e-08
sVselfevident
p2286
F9.979290526472868e-06
sVinterminable
p2287
F0.0
sVfrightening
p2288
F0.004136185995711632
sVhim
p2289
F0.0
sVlegibly
p2290
F1.5444588841648983e-07
sVadulthood
p2291
F0.0
sVprogressive
p2292
F1.3091369383026713e-10
sVco-operate
p2293
F4.920034949784266e-07
sVwell-off
p2294
F3.802908853991131e-06
sVnegligeable
p2295
F1.0044690689607095e-06
sVunderlying
p2296
F3.407737217295614e-06
sVcommon
p2297
F4.580430535425222e-06
sVnewest
p2298
F1.1350415504363244e-05
sVsustainable
p2299
F2.310316660963093e-06
sVunfettered
p2300
F2.219406317362461e-07
sVcourteous
p2301
F7.390116334471752e-16
sVrelentless
p2302
F9.392257878975637e-05
sVinsane
p2303
F0.0001893514169394899
sVhousebroken
p2304
F6.022761738274299e-07
sVset
p2305
F2.91242196571513e-11
sVtaken
p2306
F0.0
sVcynical
p2307
F4.749510271170632e-13
sVunpublished
p2308
F3.0332333742614954e-08
sVpotent
p2309
F5.072351345661512e-05
sVplausible
p2310
F3.821281797708154e-06
sVoverburdened
p2311
F2.3190968120950336e-05
sVindividual
p2312
F1.977857975873026e-07
sVdumb
p2313
F6.759818012322035e-05
sVgravest
p2314
F0.0005038855378852322
sVsafeguarded
p2315
F4.749510271170632e-13
sVclose
p2316
F1.6920921574107422e-05
sVforthcoming
p2317
F2.5524213480722297e-06
sVyouth
p2318
F7.139247574979289e-12
sVbuilshit
p2319
F1.8997921795955585e-06
sVhorrid
p2320
F6.169618761984689e-05
sVmuted
p2321
F3.6179909270210853e-07
sVforlorn
p2322
F0.00010476819944911527
sVcurrently
p2323
F7.114500516831913e-08
sVmulti-threaded
p2324
F0.0
sVdegrading
p2325
F4.607810994707293e-05
sVinterrelated
p2326
F5.160270004425517e-06
sVvarious
p2327
F7.169304895388336e-07
sVprobably
p2328
F4.883036625576811e-07
sVburned
p2329
F0.0
sVnumerous
p2330
F3.3045343995757137e-06
sVberserk
p2331
F1.0340460562774188e-05
sVprepped
p2332
F0.0
sVknowing
p2333
F7.246311915388017e-09
sVmilder
p2334
F2.7310673673758143e-05
sVkorea
p2335
F1.1265239395023073e-08
sVrecently
p2336
F2.9936293406631204e-07
sVcomplementary
p2337
F5.524059036980506e-06
sVtargeted
p2338
F2.773002981926246e-06
sVmasterful
p2339
F3.5312543610860594e-05
sVsole
p2340
F3.605997076645564e-06
sVpoorer
p2341
F0.002060815417748052
sVuntouched
p2342
F1.4942930751416746e-07
sVcounter-productive
p2343
F1.2266901846905437e-05
sVsucceed
p2344
F1.744057541935586e-07
sVrarer
p2345
F8.374524124636453e-06
sVcompetent
p2346
F1.3614384879602167e-07
sVpissed
p2347
F1.3295012618443112e-05
sVbrillant
p2348
F6.260187851841204e-06
sVuseable
p2349
F7.247073368101101e-07
sVlast
p2350
F1.1704803385946834e-05
sVabhorrent
p2351
F3.904417777383439e-05
sVinfluential
p2352
F1.1323714902807781e-08
sVrestful
p2353
F1.1323714902807781e-08
sVminus
p2354
F1.5306177252438444e-05
sVsensitive
p2355
F0.00017037628761332164
sVretarded
p2356
F0.00014184736347059814
sVlong-term
p2357
F2.2347992210859237e-07
sVinteractive
p2358
F3.541451625843908e-05
sVwhole
p2359
F1.2204539997107425e-06
sVmind-boggling
p2360
F2.1186643393906974e-06
sVliked
p2361
F0.0
sVlarge-scale
p2362
F5.03687087652273e-05
sVsimple
p2363
F0.0007739977606815776
sVsweet
p2364
F0.0002451756877737207
sVnortheastern
p2365
F1.1820474617027485e-09
sVrad
p2366
F2.75141702767396e-05
sVwhatever
p2367
F4.5645531993254653e-08
sVleading
p2368
F6.157519180916445e-07
sVnewborn
p2369
F0.0
sVless-favoured
p2370
F0.0
sVsimply
p2371
F0.00012167157139627327
sVunsuccessful
p2372
F1.121065087447907e-06
sVoverambitious
p2373
F3.942285138230809e-06
sVsing
p2374
F2.3190968120950336e-05
sVmissingg
p2375
F1.3533519075094356e-18
sVexpensive
p2376
F0.0030095497253133357
sVstartling
p2377
F0.0001528013627615247
sVworthless
p2378
F5.8362016370343206e-05
sVdescribed
p2379
F0.0
sVinadmissible
p2380
F3.0342939043104647e-05
sVmonthly
p2381
F1.6618629849467635e-09
sVdamp
p2382
F2.7388069531479924e-11
sVunderage
p2383
F3.7647369094381457e-06
sVpolitical
p2384
F1.944790226313209e-06
sVdue
p2385
F7.410821972614162e-08
sVgoal-oriented
p2386
F2.0318721612828946e-07
sVreduction
p2387
F1.6084491421059847e-06
sVlucrative
p2388
F7.399759706711851e-05
sVsociable
p2389
F8.707435497146158e-13
sVcontained
p2390
F3.0332333742614954e-08
sVintrusive
p2391
F0.0
sVwidening
p2392
F0.0
sVempty
p2393
F2.5857057414199183e-08
sVvice-chairmen
p2394
F2.275373525673503e-09
sVfirm
p2395
F0.0025043176371957313
sVsweetheart
p2396
F4.1883318845701756e-08
sVheaviest
p2397
F3.4324307889319866e-05
sVgay
p2398
F3.3971144708423344e-08
sVschizo
p2399
F4.290838382391868e-06
sVexempt
p2400
F1.9204448259723987e-08
sVelse
p2401
F1.5958689693598323e-05
sVadaptable
p2402
F4.3989919757179077e-07
sVpricey
p2403
F6.409823689084376e-05
sVawake
p2404
F3.6022769325185875e-08
sVdisruptive
p2405
F2.3190968120950336e-05
sVsystematic
p2406
F0.0
sVself-sustained
p2407
F4.899275386595659e-08
sVpresented
p2408
F0.0
sVflashing
p2409
F8.322361075896626e-07
sVintriguing
p2410
F4.862960127146382e-05
sVhandling
p2411
F0.0
sVuncertain
p2412
F0.0002431043654046749
sVexponential
p2413
F1.3015030551858165e-08
sVsolid
p2414
F0.00018820980679357357
sVcircumneutral
p2415
F1.3694034765739962e-11
sVstraight
p2416
F2.3080808227099487e-05
sVexpanded
p2417
F9.36444036009567e-07
sVhealthy
p2418
F0.00013607705572835535
sVfun
p2419
F8.291916145152956e-05
sVsombre
p2420
F0.00016886249995660626
sVreal
p2421
F5.116809247843555e-05
sVunitary
p2422
F2.7931672286277588e-08
sVcostly
p2423
F0.0034226722641662126
sVimpracticable
p2424
F2.1513240882994143e-05
sVenriching
p2425
F7.808736404692923e-08
sVguilty
p2426
F3.003672741496904e-08
sVbinding
p2427
F9.093381634939883e-08
sVherein
p2428
F3.553953078057345e-08
sVco-ownership
p2429
F0.0
sVdisappointing
p2430
F0.00019959365318174326
sVfrantic
p2431
F0.00011493756740672261
sVready
p2432
F0.00012432777676218637
sVlacklustre
p2433
F9.552721290260628e-07
sVall-important
p2434
F6.461283987881269e-06
sVreai
p2435
F4.380647936212962e-06
sVunfit
p2436
F5.7936674010646385e-11
sVfunny
p2437
F0.00013716345620027375
sVlengthy
p2438
F5.027311126208799e-06
sVclerical
p2439
F1.6512186746438266e-09
sVtwofold
p2440
F3.89496670981944e-07
sVpresentable
p2441
F2.5690491032994535e-08
sVanymore
p2442
F9.262467161703626e-05
sVbonnie
p2443
F1.4045147546029708e-06
sVaccomplished
p2444
F8.292624875076146e-07
sVelevated
p2445
F3.5133246149690112e-06
sVshorter
p2446
F4.9981153491729656e-05
sVbenign
p2447
F4.3593143826781195e-05
sVwierd
p2448
F2.4023449029706162e-05
sVresults-oriented
p2449
F3.272000209276224e-07
sVreachable
p2450
F2.0042034502625106e-06
sVvirtually
p2451
F5.361748724157976e-06
sVwidely
p2452
F0.0
sVgrand
p2453
F2.8196710753572383e-05
sVlenient
p2454
F0.000127088678524898
sVstrangers
p2455
F1.4448104450043739e-06
sVprerequisite
p2456
F2.134096247692366e-06
sVhigher
p2457
F0.00028759432994225484
sVpray
p2458
F1.4401416020503484e-07
sVused
p2459
F1.933635912556741e-06
sVtemporary
p2460
F3.4326722776051756e-07
sVsomewhere
p2461
F0.0
sVcomprehensive
p2462
F4.9573856882612074e-05
sVpainless
p2463
F0.0002143746305189466
sVoverweight
p2464
F1.0746455592808721e-06
sVyesterday
p2465
F9.938603047465409e-07
sValert
p2466
F1.4549958342166028e-06
sVhigh-tech
p2467
F7.719119694123341e-09
sVmoving
p2468
F0.0
sVappreciable
p2469
F1.326440334724548e-05
sVpeachy
p2470
F0.0
sVwholesome
p2471
F7.098521665423156e-08
sVprodigious
p2472
F7.595514914624935e-06
sVtimid
p2473
F0.003191760043390125
sVinfamous
p2474
F2.276286016931676e-08
sVrecent
p2475
F5.556478187214555e-07
sVgrown-up
p2476
F3.2351718771599244e-06
sVlower
p2477
F0.0002475628299215721
sVpicky
p2478
F0.004084891876996671
sVolder
p2479
F0.00013828668384833568
sVtry
p2480
F0.0
sVenergy-efficient
p2481
F2.226470930242285e-06
sVpersuasive
p2482
F2.027769861795625e-05
sVspent
p2483
F0.0
sVconcrete
p2484
F3.357501814914119e-05
sVinter-related
p2485
F2.87395568289832e-06
sVinspirational
p2486
F6.385064584636948e-07
sVthoroughly
p2487
F1.0796192419299943e-06
sVju
p2488
F2.5690491032994535e-08
sVweakest
p2489
F4.961125089275894e-06
sVwell-timed
p2490
F8.543276304932163e-08
sVsoaked
p2491
F3.4122128938077514e-07
sVmigratory
p2492
F2.3190968120950336e-05
sVprompt
p2493
F6.758327223232259e-07
sVludicrous
p2494
F2.9141905767085634e-05
sVnamed
p2495
F0.0
sVcompetitive
p2496
F1.7008706694849282e-06
sVhigh-availability
p2497
F3.0332333742614954e-08
sVdistracting
p2498
F0.00025418237830989354
sVinactive
p2499
F8.187734900276852e-08
sVcomprehensively
p2500
F4.349286109365743e-07
sVirritable
p2501
F4.3788846736782094e-06
sVvigilant
p2502
F2.0766622234188347e-06
sVspatially
p2503
F0.0
sValternative
p2504
F1.65205876494805e-06
sVpredominantly
p2505
F4.906227854795257e-08
sVprofitable
p2506
F4.326561123235339e-05
sVsuperficial
p2507
F3.124198631849359e-06
sVioyal
p2508
F3.629095540278226e-07
sVobservant
p2509
F2.3190968120950336e-05
sVinformal
p2510
F1.1323714902807781e-08
sValternate
p2511
F9.411154127975398e-08
sVguaranteed
p2512
F2.952822158156909e-07
sVrecommended
p2513
F4.782586393088554e-10
sVco-ordinated
p2514
F9.499020542341263e-13
sVeager
p2515
F6.391066048857458e-07
sVbrand-new
p2516
F1.477314748279049e-05
sVdeliberately
p2517
F1.316794094242263e-06
sVtabled
p2518
F7.904858546759873e-09
sVcomprehensible
p2519
F5.215526154241114e-07
sVimpoverished
p2520
F4.3743559140543535e-05
sVexcited
p2521
F0.00016878124392119965
sVsurprised
p2522
F4.128559009669095e-05
sVuseless
p2523
F5.9515428869008796e-05
sVamended
p2524
F2.319096812095035e-16
sVlacking
p2525
F1.2547835251177264e-05
sVbig
p2526
F9.191475627639215e-05
sVdiscriminatory
p2527
F9.726997035357453e-10
sVunlimited
p2528
F7.042997380839256e-07
sVself-sufficiency
p2529
F8.043772842134299e-07
sVshitty
p2530
F0.0070594217873037055
sVculturally
p2531
F1.1275679150823115e-06
sVwiser
p2532
F3.896762213859017e-05
sVnessessary
p2533
F3.406423202516129e-07
sVentrenched
p2534
F0.0
sVawaken
p2535
F1.5152406643607757e-08
sVformal
p2536
F6.749968888105365e-07
sVpertinent
p2537
F8.092482328557728e-07
sVsincerely
p2538
F2.1572631456043843e-07
sVfollows
p2539
F0.0
sVincidental
p2540
F1.7379511990705546e-05
sVmulticultural
p2541
F8.370895702660449e-08
sVunrealistic
p2542
F0.00013002800659641942
sVmanifest
p2543
F1.3451196632561396e-05
sVunstable
p2544
F3.159791090458512e-05
sVwrecked
p2545
F2.2472490106797268e-07
sVpopular
p2546
F5.294379690381424e-06
sVstylish
p2547
F2.3190968120950394e-16
sVunendurable
p2548
F5.585995133324942e-08
sVfoolish
p2549
F0.0001660945190321191
sVessential
p2550
F2.2478698691088805e-05
sVperpetual
p2551
F2.7097811053649785e-09
sVoften
p2552
F2.500173063597431e-07
sVagreement
p2553
F1.2440061109013957e-06
sVunremarkable
p2554
F1.7457649949658937e-08
sVfucking
p2555
F5.2509334210262e-08
sVobliged
p2556
F0.0
sVfake
p2557
F0.00012182067393721719
sVmagnificent
p2558
F0.00023166713923853364
sVgrass-roots
p2559
F0.0
sVunderdeveloped
p2560
F8.443265564970446e-15
sVunderstood
p2561
F3.7025598007157473e-06
sVstrongest
p2562
F0.0006469836809495956
sVeconomic
p2563
F8.423093224396777e-05
sVmighty
p2564
F3.3785127388622934e-05
sVaccelerating
p2565
F9.746195342775676e-08
sVmideast
p2566
F3.927857506445423e-11
sVgreener
p2567
F1.3633112275660582e-05
sVtrendy
p2568
F7.41667698717689e-07
sVcurious
p2569
F0.00017375996069071443
sVpale
p2570
F2.3190968120950336e-05
sVourselves
p2571
F0.0
sVindigent
p2572
F4.758327847165564e-06
sVmomentary
p2573
F1.7307171900754615e-08
sVpronounced
p2574
F0.0
sVdull
p2575
F0.000109417782116059
sVproficient
p2576
F3.2347847212457584e-06
sVunspoiled
p2577
F1.7624462363280799e-06
sVper
p2578
F3.8434825706236635e-07
sVgermane
p2579
F6.723397157604169e-08
sVbogus
p2580
F3.337802484236588e-05
sVfbl
p2581
F2.3190968120950336e-05
sVstraightforward
p2582
F0.0010623470467073896
sVminimal
p2583
F4.5160737964522486e-05
sVjumpy
p2584
F0.00023737905899008386
sVeverybody
p2585
F0.0
sVvarying
p2586
F0.0
sVcostlier
p2587
F6.340393298327777e-05
sVpatient
p2588
F1.1323714902807781e-08
sVprocessing
p2589
F0.0
sVperpendicular
p2590
F2.3190968120950336e-05
sVpatentable
p2591
F4.281670249309445e-07
sVchickenshit
p2592
F1.8997921795955585e-06
sVrestrictive
p2593
F0.00014917237535565868
sVweil
p2594
F1.4499337720803237e-06
sVweii
p2595
F9.962741992014723e-07
sVremediated
p2596
F0.0
sVintense
p2597
F0.0004925424436849087
sVhandled
p2598
F0.0
sVdormant
p2599
F1.531061233789795e-08
sVill-defined
p2600
F6.517333103096777e-23
sVcautious
p2601
F8.078473753595418e-06
sVsharper
p2602
F1.0942103346626802e-05
sVdeserved
p2603
F1.3091369383026713e-10
sVstate-of-the-art
p2604
F8.206872698074743e-05
sVexaggerated
p2605
F1.5487540898079706e-05
sVdisoriented
p2606
F1.06171434190284e-05
sVin-depth
p2607
F3.845753147091032e-05
sVreduced
p2608
F8.0403207496347e-07
sVfrightful
p2609
F0.00029173432218117614
sVself-executing
p2610
F9.419665570558273e-08
sVcomplimentary
p2611
F4.7669555063224015e-05
sVshiny
p2612
F3.6184262447274434e-05
sVyouthful
p2613
F7.139247574979289e-12
sVenlightening
p2614
F1.2691534157181151e-05
sVcredible
p2615
F2.73879473923199e-06
sVshipshape
p2616
F1.6585249750152292e-06
sVwell-organised
p2617
F0.0
sVabusive
p2618
F0.0024059844160268374
sVintegral
p2619
F1.1689009177507873e-06
sVnonsense
p2620
F2.4130190466182856e-05
sVawaited
p2621
F4.343605304232478e-09
sVappropriate
p2622
F1.1750959813768225e-05
sVprimarily
p2623
F4.906227854795257e-08
sVconscientious
p2624
F1.3294159359774234e-08
sVproportional
p2625
F1.9309914090423617e-06
sVdelusional
p2626
F5.621257276024753e-06
sVunnerving
p2627
F0.0001093812559811776
sVcalming
p2628
F3.3095909483715216e-06
sVimpressed
p2629
F1.8493191081912002e-05
sVsonny
p2630
F3.0865288395900835e-07
sVinfuriating
p2631
F0.0
sVeleven
p2632
F1.6618629849467635e-09
sVdismal
p2633
F0.00018038167694050215
sVhands-on
p2634
F2.349944086262453e-06
sVbusiness-friendly
p2635
F8.265529016112203e-06
sVquestion
p2636
F1.9908075010128506e-19
sVpractice-oriented
p2637
F3.272000209276224e-07
sVfast
p2638
F1.5507313697210487e-06
sVaccountability
p2639
F0.0
sVconsultation
p2640
F0.0
sVinfected
p2641
F4.89049334597962e-05
sVprettier
p2642
F2.2128741144557823e-05
sVconceivable
p2643
F1.115910403555854e-06
sVbored
p2644
F1.936363020104802e-07
sVnewsworthy
p2645
F7.197264864392988e-09
sVwell-organized
p2646
F5.407389322882398e-07
sVconsiderably
p2647
F2.21930087995606e-05
sVforeverything
p2648
F1.5040065005233886e-06
sVperplexing
p2649
F1.3373080825917957e-14
sVelsewhere
p2650
F4.768004655026379e-06
sVrelaxed
p2651
F2.618702387602793e-05
sVaudacious
p2652
F2.114613490605732e-06
sVapplicable
p2653
F2.650488113525576e-07
sVunheard-of
p2654
F2.0829083084722197e-06
sVarchaic
p2655
F4.474589144589215e-13
sVproperly
p2656
F2.677886579963044e-06
sVmajeure
p2657
F4.854629293909718e-05
sVnewer
p2658
F7.657962992482619e-06
sVfiled
p2659
F0.0
sVupright
p2660
F1.8148656378990205e-07
sVconsiderable
p2661
F0.00026988241830969313
sVinfo
p2662
F0.0
sVcharmed
p2663
F2.9110412946832297e-06
sVinhumane
p2664
F5.244128089823207e-06
sVup
p2665
F5.529157667386612e-12
sVus
p2666
F0.0
sVinternational
p2667
F1.532788693217429e-08
sVdickish
p2668
F2.5690491032994535e-08
sVaccustomed
p2669
F0.0
sVmature
p2670
F6.473817479569862e-06
sVsuitable
p2671
F6.035590458939062e-06
sVheterogeneous
p2672
F0.0
sVexport
p2673
F0.0
sVautonomous
p2674
F8.533700380793865e-07
sVloving
p2675
F0.0
sVsimilar
p2676
F7.1322060461490534e-06
sVcalled
p2677
F0.0
sVsunnier
p2678
F3.5510542351849034e-07
sVawestruck
p2679
F4.952165958073525e-06
sVdevastating
p2680
F0.00013787686970665852
sVassociated
p2681
F4.828682325479719e-08
sVworthwhile
p2682
F6.057097892545464e-05
sVmindful
p2683
F1.0097485128133774e-07
sVdefined
p2684
F1.3034666206193554e-22
sVspecified
p2685
F1.128316770866662e-05
sVunsafe
p2686
F3.5331236059793773e-05
sVinterwoven
p2687
F1.5115741342253768e-05
sVlye
p2688
F1.4837789158318098e-07
sVconsulted
p2689
F0.0
sVdiverse
p2690
F3.1638542610960784e-06
sVevening
p2691
F1.3662233903758056e-09
sVunwise
p2692
F3.997438164008437e-05
sVgraceful
p2693
F0.0
sVsteeper
p2694
F2.6452889024283485e-05
sVre-established
p2695
F6.125043368189888e-08
sVactionable
p2696
F3.117490760709371e-07
sVpredictability
p2697
F2.0769455678228224e-06
sVdivine
p2698
F1.0653162705554712e-06
sVpuzzling
p2699
F2.5843286049943613e-05
sVtentative
p2700
F1.7643180139789428e-05
sVmalicious
p2701
F1.9691848695637068e-05
sVcohesive
p2702
F2.3171934745329636e-06
sVinvalid
p2703
F2.289299052135887e-05
sVdemocratically
p2704
F5.236547753210685e-10
sVunjustifiable
p2705
F4.985646285375354e-06
sVrealisable
p2706
F1.0938605319121479e-06
sVnice
p2707
F0.00022580038726826735
sVenergetic
p2708
F1.4404642857949956e-05
sVsmitten
p2709
F5.6463728598055315e-06
sVlucid
p2710
F3.0869175710459036e-06
sVlong-lasting
p2711
F1.8825305051486824e-07
sVprepared
p2712
F7.252501670079492e-05
sVtreatable
p2713
F9.973629231311565e-07
sVgenerated
p2714
F0.0
sVbad-ass
p2715
F1.0359591411146018e-05
sVago
p2716
F0.0
sVfurthest
p2717
F3.237238562041226e-06
sVtailored
p2718
F0.0
sVhappier
p2719
F1.2176100837502512e-05
sVpractically
p2720
F7.349304509478099e-06
sVnon-discriminatory
p2721
F4.863498517678727e-10
sVsounder
p2722
F8.84964019332001e-07
sVappalling
p2723
F0.0003871128355380486
sVimpatient
p2724
F3.176503313634494e-06
sVlogical
p2725
F9.450724917569169e-06
sValigned
p2726
F1.322106813831035e-07
sVenrolled
p2727
F0.0
sVignorant
p2728
F7.386632790916842e-06
sVnice-looking
p2729
F0.0
sVintentional
p2730
F4.322730317552459e-06
sVmodernizing
p2731
F1.015690945194614e-12
sVpartial
p2732
F3.87755993685918e-06
sVashamed
p2733
F4.239327403277987e-05
sVissued
p2734
F3.9067723444912576e-08
sVexisting
p2735
F1.4854935379610567e-07
sVenjoyable
p2736
F1.980076606339741e-05
sVsofter
p2737
F7.138229708614542e-07
sVbroader
p2738
F4.7497750959657695e-05
sVdainty
p2739
F4.538931546400801e-06
sVintricate
p2740
F0.00020571169016589443
sVhumid
p2741
F2.7388069531479924e-11
sVpsycho
p2742
F2.5015068328686025e-05
sVwell-targeted
p2743
F4.063744322565789e-07
sVworrisome
p2744
F5.333356694187645e-05
sVcompact
p2745
F0.0
sVgraver
p2746
F6.958107176029093e-05
sVlongstanding
p2747
F5.370548377638066e-09
sVdisposal
p2748
F0.0
sVconcerned
p2749
F0.00016600610381337173
sVfried
p2750
F4.445966381411003e-08
sVyoung
p2751
F1.2493683256213755e-11
sVgovernment-owned
p2752
F9.26270902503163e-07
sVintensive
p2753
F0.00020427482394002954
sVmulti-layered
p2754
F0.0
sVobstinate
p2755
F0.000879104057496654
sVexcluded
p2756
F5.529157667386612e-12
sVstable
p2757
F4.9511922616686386e-05
sVexpeditious
p2758
F8.741583550491449e-07
sVfatal
p2759
F0.00013702978828880803
sVfriendly
p2760
F3.598538670137896e-05
sVscarlett
p2761
F0.0
sVinter-dependent
p2762
F2.8739359600800634e-06
sVvirtuous
p2763
F1.1323714902807781e-08
sVwished
p2764
F0.0
sVpresently
p2765
F4.081267142570417e-08
sVsusceptible
p2766
F1.9308907646874793e-05
sVunhurt
p2767
F8.84964019332001e-07
sVcelebrities
p2768
F4.792619934739049e-08
sVdisquieting
p2769
F5.063891342547635e-05
sVwell-done
p2770
F4.409886649660027e-05
sVpopulous
p2771
F0.0
sVimplausible
p2772
F5.733258179469004e-06
sVcontinued
p2773
F4.6885323885179736e-07
sVedible
p2774
F7.510741731565124e-08
sVtimely
p2775
F1.662097276204763e-06
sVseverely
p2776
F4.2778153087970024e-05
sVmagic
p2777
F6.307887030143309e-06
sVrespectful
p2778
F1.6854925997870358e-06
sVstiff
p2779
F0.00954390443895332
sVcompassionate
p2780
F0.0
sVfewer
p2781
F6.0640898173468247e-05
sV'sgoing
p2782
F4.403654135190774e-07
sVgullible
p2783
F1.63508207335064e-08
sVbrutal
p2784
F0.010670210240052996
sVrace
p2785
F0.0
sVbusier
p2786
F2.4353042772162233e-08
sVreyes-torrena
p2787
F5.833415799827036e-06
sVco-financing
p2788
F0.0
sVtrite
p2789
F3.910010348185444e-15
sVmanifestly
p2790
F3.1741481485125434e-06
sVsedentary
p2791
F7.655306168948975e-09
sVnoted
p2792
F8.128292849460535e-17
sVconcluded
p2793
F0.0
sVsomeday
p2794
F0.0
sVsmaller
p2795
F0.00015225001055812738
sVmalignant
p2796
F5.692501815669503e-06
sVunprofitable
p2797
F2.8681224097727088e-06
sVjump
p2798
F0.0
sVegocentric
p2799
F4.749510271170632e-13
sVuncomfortable
p2800
F0.0026072895785710917
sVunattractive
p2801
F0.0002503615653954313
sVodd
p2802
F0.00032905622452783127
sV-just
p2803
F2.585471785608676e-07
sVscientific
p2804
F8.84964019332001e-07
sVhourly
p2805
F0.0
sVunavailable
p2806
F3.939112283277368e-06
sVjunior
p2807
F0.0
sVmarketed
p2808
F3.0332333742614954e-08
sVexpressed
p2809
F0.0
sVoverwhelmed
p2810
F4.232985495653894e-05
sVunhelpful
p2811
F4.0320520477737935e-06
sVrotten
p2812
F0.0008004089110376848
sVindian
p2813
F2.3190968120950336e-05
sVvolatile
p2814
F5.868207617169276e-05
sVpolluting
p2815
F0.0
sVindustrialized
p2816
F0.0
sVpristine
p2817
F1.6585249750152292e-06
sVimplementable
p2818
F7.76983158159935e-09
sVjustification
p2819
F2.026365754662046e-08
sVcozy
p2820
F9.143069391657324e-06
sVstrained
p2821
F4.902301350851811e-05
sVsobering
p2822
F4.825279089666638e-05
sVcommercial
p2823
F3.0332333742614954e-08
sVconsideration
p2824
F0.0
sVnonexistent
p2825
F2.312161116636302e-06
sVyoungest
p2826
F6.252433636252651e-05
sVdesired
p2827
F0.0
sVfocused
p2828
F6.907426005057322e-07
sVothers
p2829
F6.000930380754538e-07
sVsexy
p2830
F2.1399287837451346e-05
sVsafer
p2831
F2.3701449179364848e-05
sVfifteen
p2832
F1.6618629849467635e-09
sVirritating
p2833
F0.0
sVextreme
p2834
F2.7093903904637347e-05
sVgreat
p2835
F0.0006789838891594848
sVlosin
p2836
F5.586635898960669e-07
sVbroken
p2837
F0.0
sVtechnical
p2838
F1.2267357811375098e-08
sVinvolved
p2839
F1.64402204610841e-07
sVlarger
p2840
F0.000427429239785882
sVunconditional
p2841
F2.422453752803316e-05
sVnervous
p2842
F0.0032498575526723377
sVprincipally
p2843
F4.906227854795257e-08
sVdisconcerting
p2844
F4.964007785736749e-05
sVcommendable
p2845
F2.6526576775192816e-05
sVup-to-date
p2846
F1.5878856549219908e-08
sVpanicked
p2847
F0.0010222024905808206
sVasinine
p2848
F6.527512589221313e-06
sVdanger
p2849
F1.6738885820692137e-06
sVclare
p2850
F6.517333103096777e-23
sVwin
p2851
F0.0
sVlimp
p2852
F0.0
sVworthy
p2853
F1.1753136244255833e-05
sVclara
p2854
F5.202143702368866e-07
sVcrazy
p2855
F0.0002646410490445781
sVprivate
p2856
F7.986561075113995e-12
sVsacrilegious
p2857
F1.7065488647429784e-05
sVimprobable
p2858
F5.4157150190132205e-06
sVstupider
p2859
F5.346016828838799e-06
sVstanding
p2860
F3.0332333742614954e-08
sVuse
p2861
F0.0
sVsadder
p2862
F0.0
sVe.g.
p2863
F6.139307034670725e-08
sVillegal
p2864
F3.363616275261575e-05
sVreadable
p2865
F1.5444588841648983e-07
sVseamless
p2866
F2.03308419202734e-06
sVnext
p2867
F1.4792477808436148e-07
sVfew
p2868
F6.332524839431158e-05
sVdoubt
p2869
F0.0
sVsubsidized
p2870
F2.3190968120950336e-05
sVagreeable
p2871
F7.739036394397946e-06
sVexhaustive
p2872
F1.5818748124414598e-05
sVnoisy
p2873
F2.4043384386620315e-06
sVwell-reputed
p2874
F6.793611089538517e-09
sVindefensible
p2875
F7.667107064864417e-06
sVclever
p2876
F0.0011777054893572934
sVbabe
p2877
F0.0
sVdysfunctional
p2878
F6.9211357886963664e-06
sVsorr
p2879
F4.0960901568171334e-06
sVcost-efficient
p2880
F7.367125124291259e-05
sVstarted
p2881
F0.0
sVrarest
p2882
F8.156109194604682e-07
sVvisibility
p2883
F2.9892088095246287e-07
sVcharming
p2884
F3.649391052306503e-05
sVsore
p2885
F0.0008162826641944155
sVtransient
p2886
F3.605743996612722e-07
sVfaultless
p2887
F4.822245490085592e-06
sVcentral
p2888
F1.995226605001186e-06
sVunforgiving
p2889
F4.749510271170632e-13
sVappointed
p2890
F2.3190968120950394e-16
sVgrim
p2891
F0.002847142097226903
sVuncontroversial
p2892
F8.488663370171183e-06
sVdisingenuous
p2893
F1.426556656527003e-05
sVintegrating
p2894
F2.7931672286277588e-08
sVthis
p2895
F5.391546158982167e-07
sValia
p2896
F4.5645531993254653e-08
sVanywhere
p2897
F3.8434825706236635e-07
sVobvious
p2898
F8.392430429629933e-05
sVthin
p2899
F1.6886323524335608e-05
sVindustrial
p2900
F1.0554081956213057e-15
sV-lnteresting
p2901
F2.0094831225800375e-06
sVperformed
p2902
F6.392270206556021e-14
sVoverall
p2903
F7.574095401690781e-07
sVindisposed
p2904
F1.0380211160965107e-06
sVweaker
p2905
F0.00010358502438608162
sVproprietary
p2906
F9.955721430563903e-07
sVthirsty
p2907
F5.458999319520413e-07
sVslim
p2908
F8.32119664566096e-06
sVloco
p2909
F9.92003645115555e-06
sVhigh
p2910
F0.00014146944383492766
sVeffectively
p2911
F1.1132354651211424e-06
sVapplication
p2912
F1.938686868465629e-09
sVsomething
p2913
F0.0
sVwonderful
p2914
F0.00042876851634488563
sVexpandable
p2915
F6.545684691513366e-11
sVcowardly
p2916
F2.3190968120950336e-05
sVtan
p2917
F4.3831054551169325e-06
sVupstanding
p2918
F0.0
sVpsyched
p2919
F8.810366261338236e-06
sVeducational
p2920
F4.3492726709805027e-05
sVwell-founded
p2921
F5.08215648359289e-07
sVvaried
p2922
F2.16287972956031e-07
sVfriendlier
p2923
F7.566544532929562e-05
sVlame
p2924
F5.47038674446115e-05
sVbuoyant
p2925
F6.172444015736705e-05
sVjustifiable
p2926
F1.642549388452873e-06
sVneurotic
p2927
F3.246734576138826e-05
sVdelay
p2928
F2.732446780751611e-09
sVwell-respected
p2929
F3.1578543145097775e-07
sVinstead
p2930
F4.828681499931682e-08
sVthin-skinned
p2931
F9.955721430563903e-07
sVcounterfeit
p2932
F3.531820050561474e-05
sVimmoral
p2933
F0.00022552978210653833
sVabrasive
p2934
F5.529157667386612e-12
sVoverridden
p2935
F1.1728445085289767e-14
sVsir
p2936
F9.12725631508904e-22
sV-surprised
p2937
F5.969202029310245e-06
sVfactored
p2938
F2.7931672286277588e-08
sVfluid
p2939
F8.216123954769076e-06
sVpermanent
p2940
F3.0332333742614954e-08
sVseropositive
p2941
F1.1304863075787483e-07
sVlegality
p2942
F1.7551231529822758e-08
sVinsufficient
p2943
F9.714442873707998e-05
sVcabbage
p2944
F8.721073708860261e-07
sViate
p2945
F8.197340342254834e-09
sVsolidarity
p2946
F2.4003446558290504e-06
sVunforeseeable
p2947
F4.5453039103699056e-06
sVnon-transparent
p2948
F1.2485307233737024e-07
sVdefective
p2949
F5.635905519121217e-09
sVlight
p2950
F4.905962777037427e-05
sVcounter
p2951
F1.2989256192375398e-06
sVarduous
p2952
F0.02698913624786879
sVredundant
p2953
F7.5644292850199444e-06
sVclaire
p2954
F7.803215553553298e-07
sVcrazed
p2955
F1.374188628186519e-05
sVsix-year
p2956
F1.6618629849467635e-09
sVclassy
p2957
F7.41667698717689e-07
sVwell-managed
p2958
F4.749510271170632e-13
sVdiscussion
p2959
F0.0
sVmieux
p2960
F2.0733746501113396e-05
sVgloomy
p2961
F0.0006038973098507121
sVrusted
p2962
F2.6182738766053426e-10
sVcreation
p2963
F0.0
sVnon-exclusive
p2964
F2.6702612898290487e-08
sVever-changing
p2965
F5.6372916002037304e-08
sVin-house
p2966
F1.2009927767336721e-11
sVmove
p2967
F0.0
sVfacilitated
p2968
F2.1886952150109777e-05
sVmeager
p2969
F2.0692395278603748e-05
sVstatutory
p2970
F2.862582537854749e-06
sVdocile
p2971
F2.3190968120950336e-05
sVstimulating
p2972
F7.661184401160515e-07
sVflattering
p2973
F4.453767026766282e-05
sVfertile
p2974
F7.808736404692923e-08
sVinteroperable
p2975
F8.922466821667506e-07
sVhappiest
p2976
F8.139951839928416e-07
sVoperative
p2977
F3.4778037083470995e-11
sVcontaminated
p2978
F1.1323714902807781e-08
sVperfect
p2979
F0.00014450851837093215
sVsuperior
p2980
F7.653992532467992e-06
sVmulti-dimensional
p2981
F0.0
sVcontemplated
p2982
F5.093437446126576e-09
sVgoodto
p2983
F0.0
sVchosen
p2984
F6.392270206556021e-14
sVchoosy
p2985
F0.003576900242978403
sVunreal
p2986
F0.0003085737990029951
sVwinning
p2987
F0.0
sVmental
p2988
F1.760309314689024e-06
sVwilling
p2989
F6.758743142600548e-05
sVpilot-tested
p2990
F4.629318474688977e-09
sVcriminal
p2991
F2.9485817479279047e-07
sVpending
p2992
F3.882613443048973e-06
sVpure
p2993
F2.0907028953765837e-07
sVbolder
p2994
F2.382146083229339e-06
sVmaterial
p2995
F1.7575026424918606e-05
sVcommended
p2996
F0.0
sVcommitment
p2997
F1.6512186746438266e-09
sVheavy-handed
p2998
F0.0011164947029427316
sVstout
p2999
F1.7281793034117023e-06
sVapolitical
p3000
F1.3694034765739962e-11
sVimpaired
p3001
F0.0
sVdocumented
p3002
F1.1728445085289718e-14
sVday
p3003
F0.0
sVfragmented
p3004
F2.3190968120950336e-05
sVcrass
p3005
F0.0005358532849466825
sVancient
p3006
F1.1728445085289742e-14
sVtransitional
p3007
F1.7307171900754615e-08
sVprofound
p3008
F6.382995463584749e-05
sVestablishment
p3009
F0.0
sVradiant
p3010
F3.5510542351849034e-07
sVwell-tolerated
p3011
F0.0
sVunpredictable
p3012
F2.2918878130507382e-05
sVdelightful
p3013
F8.035436609654312e-05
sVtruth
p3014
F2.5690491032994535e-08
sVshaking
p3015
F1.7556042510190588e-05
sVexpressly
p3016
F2.6010718511844323e-07
sVexperienced
p3017
F1.6977756643501296e-08
sVprevailing
p3018
F3.326072312879565e-07
sVdoing
p3019
F0.0
sVtepid
p3020
F2.1542797299392836e-06
sVmet
p3021
F2.9738689588543092e-06
sVsecretive
p3022
F4.6387806165007635e-07
sVrelated
p3023
F1.7833545135952324e-14
sVaggravated
p3024
F3.8712636756995626e-05
sVstatic
p3025
F3.2749940127213657e-06
sVthirteen
p3026
F1.6618629849467635e-09
sVspecial
p3027
F3.5203743655185034e-05
sVout
p3028
F9.726997035357434e-21
sVmid-
p3029
F6.425857165647963e-07
sVlukewarm
p3030
F1.2294335448589822e-06
sVtwice
p3031
F0.0
sVundemocratic
p3032
F5.236547753210685e-10
sVpointless
p3033
F8.348803050349382e-06
sVshallow
p3034
F7.705187339424052e-06
sVsingular
p3035
F2.9916973639291748e-06
sVunlawful
p3036
F2.7553799653873268e-05
sVenforceable
p3037
F1.56580602684714e-06
sVwholly
p3038
F1.618021975187199e-06
sVoriental
p3039
F1.0473542197958788e-10
sVwondrous
p3040
F2.9509517707346378e-05
sVhilarious
p3041
F0.0001448603171776836
sVunprepared
p3042
F1.1497475466999287e-05
sVhonorable
p3043
F1.5846802553740706e-06
sVadaptive
p3044
F6.5337328769452e-08
sVintegrated
p3045
F8.977193380852592e-07
sVannounced
p3046
F3.800711613372317e-08
sVtrashy
p3047
F3.1001562791041485e-06
sVfrank
p3048
F4.5746172911725605e-06
sVstepped-up
p3049
F5.336988075265012e-05
sVhumiliating
p3050
F3.0473115212767604e-05
sVincalculable
p3051
F3.495872599042715e-07
sVgreedy
p3052
F2.8988710032450164e-05
sVpromptly
p3053
F7.426546423375704e-08
sVfourteen
p3054
F1.6618629849467635e-09
sVclarify
p3055
F4.607122335623012e-06
sVcompletely
p3056
F3.1976758298366794e-06
sVsurely
p3057
F2.500173063597431e-07
sVtied
p3058
F1.5751166322275606e-05
sVearly
p3059
F1.3091369383026713e-10
sVapt
p3060
F5.962687496675735e-07
sVmoody
p3061
F1.3104020224402497e-06
sVimpulsive
p3062
F2.776986875683737e-06
sVprincess
p3063
F0.0
sVshortest
p3064
F3.0865288395900835e-07
sVtwo-pronged
p3065
F3.89496670981944e-07
sVorganic
p3066
F1.5275998840615469e-06
sVhostile
p3067
F5.529157667386612e-12
sVdetermining
p3068
F3.4581806171431455e-07
sVbetter-educated
p3069
F1.2784540413112024e-13
sVdiminished
p3070
F3.2240130415010864e-08
sVfeasible
p3071
F1.345151562670155e-05
sVchilly
p3072
F0.00028217102264478167
sVmortal
p3073
F5.500158928662816e-06
sVhence
p3074
F1.25416383257235e-07
sVretail
p3075
F9.973629231311565e-07
sVcomprende
p3076
F1.1592312315711725e-07
sVsouth
p3077
F5.6326196975115366e-09
sVmad
p3078
F0.00018643708639576995
sVfledged
p3079
F0.0
sVdistracted
p3080
F3.574773322936709e-05
sVswifter
p3081
F1.1106634158311423e-05
sVpowerful
p3082
F0.0003447283361267711
sVowned
p3083
F0.0
sVsoothing
p3084
F2.3190968120950336e-05
sVembarrassed
p3085
F0.00044918816736953457
sVsuch
p3086
F5.000346127194862e-07
sVstarker
p3087
F0.0
sVprecisely
p3088
F2.5762152016644505e-07
sVquality
p3089
F7.390116334471752e-16
sVendemic
p3090
F3.1410683395637373e-07
sVopportune
p3091
F1.0106344780707137e-06
sVfella
p3092
F0.0
sVtwo-
p3093
F0.0
sVsadly
p3094
F6.125043368189888e-08
sVfair
p3095
F1.5065112302592607e-05
sVstrict
p3096
F0.0022321393067170838
sVnon-partisan
p3097
F8.888236657458319e-11
sVunknown
p3098
F2.347397231340938e-05
sVdurable
p3099
F1.3253184217965116e-07
sVvulgar
p3100
F3.1001562791041485e-06
sVopening-up
p3101
F2.374282905508267e-07
sVadopted
p3102
F2.184693390809371e-08
sVlamentable
p3103
F7.773715649067786e-05
sVimmovable
p3104
F0.0
sVintermediate
p3105
F1.2723495730256054e-05
sVinalienable
p3106
F5.027577529130302e-07
sVprouder
p3107
F2.4215897021017356e-07
sVperfectly
p3108
F8.63416429546351e-07
sVfairest
p3109
F8.598241628085228e-06
sVpainful
p3110
F0.005801278282735002
sVfutile
p3111
F4.026623053402704e-06
sVpervasive
p3112
F2.1430680974353797e-06
sVunder-inclusive
p3113
F2.767458364632048e-06
sVco-dependent
p3114
F3.3475774124828856e-06
sVchallenging
p3115
F0.01590551582756464
sVambiguous
p3116
F0.00024244347320855156
sVin-progress
p3117
F1.4396172767098667e-08
sVreversed
p3118
F3.8434825706236635e-07
sVunoccupied
p3119
F1.7524226786940858e-07
sVapologise
p3120
F1.2555079678637903e-06
sVself-sustaining
p3121
F4.209347286861993e-06
sVdepressing
p3122
F5.399577215767279e-05
sVenvironmental
p3123
F3.712430973827468e-06
sVabsent-minded
p3124
F5.377840417047916e-07
sVtroubling
p3125
F0.000870892806866206
sVinterestedin
p3126
F3.06611189880467e-07
sVinestimable
p3127
F3.986495384522241e-07
sVoverwhelming
p3128
F0.000148600443964402
sVastounded
p3129
F1.4923005073275613e-06
sVdiscretionary
p3130
F9.812344972374066e-08
sVupdating
p3131
F1.5877840858274713e-08
sVglamorous
p3132
F1.1323714902807781e-08
sVdandy
p3133
F0.0
sVegregious
p3134
F1.1463601462028825e-05
sVobjectionable
p3135
F2.563592433224577e-06
sVboring
p3136
F8.685353662366618e-07
sVcoast
p3137
F0.0
sVwell-established
p3138
F6.525729043613425e-08
sVsubmitted
p3139
F0.0
sVappealing
p3140
F1.0181087122882073e-06
sVexclusive
p3141
F2.854408160812191e-08
sVcircumspect
p3142
F4.994079022103147e-10
sVidentical
p3143
F4.223871887792631e-06
sVbare
p3144
F2.6760158388185205e-07
sVstricter
p3145
F0.004336458186939097
sVundamaged
p3146
F1.4942930751416746e-07
sVsteep
p3147
F2.3190968120950336e-05
sVdistinguished
p3148
F6.392270206556021e-14
sVbeter
p3149
F4.828681499931682e-08
sVfalse
p3150
F3.648255623407765e-05
sVpoverty-stricken
p3151
F3.043214765402975e-07
sVunchanged
p3152
F1.9384322782501135e-06
sVreassuring
p3153
F2.6649751277348493e-06
sVtransitory
p3154
F5.192151570226384e-08
sVgentle
p3155
F2.240317424285206e-05
sVthereto
p3156
F4.828681499931682e-08
sVpitiable
p3157
F4.108107957200095e-06
sVunlikely
p3158
F5.2789627682309136e-05
sVmiserable
p3159
F0.0031127122414398006
sVneed
p3160
F7.073932471396719e-08
sVrepresentativeness
p3161
F7.549143268538521e-09
sVconstrained
p3162
F2.1128992142517768e-06
sVstillborn
p3163
F2.014124306104071e-06
sVclearly
p3164
F3.0674462631401656e-06
sVvis-
p3165
F0.0
sVunbearable
p3166
F5.638027593558079e-07
sVbastard
p3167
F7.993563930323551e-07
sVafraid
p3168
F0.0011846643244972776
sVlightweight
p3169
F2.457030713962774e-05
sVable
p3170
F3.5685980160770407e-08
sVaccelerated
p3171
F1.234920145314731e-07
sVcross-border
p3172
F2.3190968120950336e-05
sVpivotal
p3173
F1.6997138324045625e-05
sVasshole
p3174
F7.993563930323551e-07
sVseductive
p3175
F8.966788620991937e-07
sVcompetence
p3176
F4.629318474688977e-09
sVdeader
p3177
F2.014124306104071e-06
sVaccuracy
p3178
F4.4409971211313294e-06
sVpatchy
p3179
F0.0
sVtonight
p3180
F0.0
sVaxiomatic
p3181
F9.356425943037365e-06
sVdo-able
p3182
F6.17011977248285e-07
sVharmful
p3183
F6.341683647872426e-05
sVfurious
p3184
F0.0002946919623082454
sVconnected
p3185
F8.255480371509702e-15
sVpreliminary
p3186
F1.7307171900754615e-08
sValarmed
p3187
F0.0001349526900537198
sVwhy
p3188
F7.707147309898362e-08
sVprobable
p3189
F1.2798441996855291e-06
sVso-called
p3190
F0.0
sVrefreshing
p3191
F7.367648665824825e-06
sVundeniable
p3192
F1.3128867236302878e-06
sVenthusiastic
p3193
F3.661947378764896e-05
sVupset
p3194
F0.0005598360275414222
sVrepeated
p3195
F5.529157667386612e-12
sVreconcilable
p3196
F5.1334308809228934e-08
sVastonishing
p3197
F0.0001154083117601213
sVabsurd
p3198
F3.1261927881465616e-05
sVmechanical
p3199
F2.3190968120950336e-05
sVwounded
p3200
F7.313424840797567e-07
sVskinny
p3201
F3.146382126075537e-05
sVtypical
p3202
F4.988822699906373e-06
sVnormally
p3203
F6.477278566055358e-08
sVemerging
p3204
F1.6405965666941014e-08
sVioaded
p3205
F4.2218585423115155e-10
sVreprehensible
p3206
F8.104240696538403e-06
sVannually
p3207
F0.0
sVagreed
p3208
F8.772191019398399e-08
sVsupported
p3209
F4.491805797782244e-05
sVwoolly
p3210
F7.346096379318029e-06
sVanyway
p3211
F1.8024446771019081e-07
sVunfathomable
p3212
F1.3373080825917957e-14
sVsouth-east
p3213
F3.927857506445423e-11
sVplanning
p3214
F5.093437446126576e-09
sVunreliable
p3215
F9.792217633449018e-05
sVtelling
p3216
F0.0
sVcareful
p3217
F1.8926561765550552e-05
sVdarkest
p3218
F1.125319009486864e-05
sVtrivial
p3219
F1.4332220304103525e-05
sVpleased
p3220
F1.8464113499804212e-05
sVprincipal
p3221
F3.991525687954321e-05
sVloveable
p3222
F1.303094253046789e-05
sVinspiring
p3223
F1.2852808707404307e-06
sVholistic
p3224
F4.882990586960718e-07
sVbased
p3225
F0.0
sVnaturalistic
p3226
F4.623691351579495e-06
sVhopeful
p3227
F9.644418045158049e-09
sVrash
p3228
F2.2224411802356403e-06
sVoperational
p3229
F1.5971546114651114e-10
sVbrighter
p3230
F6.549032995249035e-05
sVsmallest
p3231
F0.00019865248760481138
sVhouse-trained
p3232
F3.3663069524083073e-07
sVgirlie
p3233
F1.9946467375908872e-07
sVhandsome
p3234
F0.00011331935207984373
sVvice-chairman
p3235
F7.584578418911676e-09
sVinferior
p3236
F3.264116251423566e-05
sVdemonstrated
p3237
F2.6010718511844323e-07
sVregularly
p3238
F1.805922978280023e-07
sVrighteousness
p3239
F2.5690491032994535e-08
sVexceptional
p3240
F4.4387933162155106e-05
sVfamiliar
p3241
F2.1922558926661264e-07
sVdope
p3242
F0.0
sVcranky
p3243
F1.1323714902807781e-08
sVlucky
p3244
F7.466638429684221e-06
sVmum
p3245
F3.0667254617263593e-06
sVlegitimate
p3246
F2.1486395435847416e-06
sVaforementioned
p3247
F1.4375891368297983e-11
sVdistraught
p3248
F3.908145484574378e-05
sVself-evident
p3249
F5.3417704894719716e-05
sVunjustified
p3250
F5.34099083601665e-06
sVdodgy
p3251
F9.955721430563903e-07
sVnearly
p3252
F4.06432662549062e-06
sVfollowing
p3253
F0.0
sVcontemptible
p3254
F1.0593567984151702e-06
sVwhilst
p3255
F6.139307034670725e-08
sVshy
p3256
F0.004565890083466321
sVmarried
p3257
F1.9306354682805036e-07
sVself-financing
p3258
F2.1945876212195764e-06
sVaffluent
p3259
F1.2724172369027655e-07
sVhollow
p3260
F3.074219860489768e-06
sVyellow
p3261
F2.171086852224218e-05
sVstreamlined
p3262
F3.03347879973596e-05
sVwish
p3263
F0.0
sVunfeasible
p3264
F4.533896635463744e-06
sVuniformed
p3265
F8.409123733575217e-07
sVtruer
p3266
F5.439400535047237e-06
sVstrengthened
p3267
F0.00024305229584186536
sVuntrue
p3268
F7.126826242124322e-05
sVdeterminative
p3269
F2.5197658774969925e-06
sVacquired
p3270
F5.286530888708787e-19
sVcatastrophic
p3271
F1.1728445085289767e-14
sVhither
p3272
F4.577712863690087e-09
sVheeded
p3273
F5.798184933514189e-08
sVturbulent
p3274
F8.216123954769076e-06
sVreiterate
p3275
F5.529157667386612e-12
sVmentioned
p3276
F1.9908075010128506e-19
sVidentified
p3277
F4.171742301293164e-21
sVaccused
p3278
F1.2194014974142407e-08
sVenhanced
p3279
F7.734449480272257e-05
sVoperated
p3280
F4.749510271170632e-13
sVhumane
p3281
F3.5068362772897613e-06
sVcloser
p3282
F5.1325001174645587e-05
sVdisjunct
p3283
F1.2009927767336695e-11
sVbrittle
p3284
F4.200090691173098e-06
sVinsulting
p3285
F0.0005358566893956449
sVflicka
p3286
F2.3190968120950336e-05
sVsee-through
p3287
F1.2485307233737024e-07
sVillusory
p3288
F1.1756794433657189e-06
sVbelow
p3289
F2.2263921690330605e-05
sVincreased
p3290
F5.1262006968706406e-05
sVsuperb
p3291
F0.0002141314376495632
sVgenius
p3292
F5.6006397027748947e-05
sVwritten
p3293
F5.6621002029120287e-08
sVquickest
p3294
F2.724757166080328e-05
sVarguable
p3295
F2.315775296601708e-05
sVcorrectly
p3296
F2.5690491032994535e-08
sVhorrible
p3297
F0.0025181312994148066
sVcrude
p3298
F0.0010748067261724691
sVprogress
p3299
F4.906227854795257e-08
sVsold
p3300
F0.0
sVpetrified
p3301
F0.00027622603537426766
sVcomparable
p3302
F9.125931882807094e-06
sVattention
p3303
F7.366753333740106e-07
sVexplosive
p3304
F8.482669655598993e-06
sVopening
p3305
F7.202673602748783e-08
sVmissing
p3306
F1.6664943641382997e-06
sVregretful
p3307
F6.04991966415109e-06
sVindiscriminate
p3308
F3.502120428853417e-06
sVpre-established
p3309
F5.286530888708787e-19
sVkey
p3310
F1.319626077411492e-05
sVfanta
p3311
F2.47014372651761e-05
sVprecious
p3312
F2.0732136295700773e-05
sVweary
p3313
F1.9391376596491698e-07
sVoptional
p3314
F7.749098625535072e-10
sVproblem
p3315
F3.0667254617263593e-06
sVlegit
p3316
F1.2422345096919913e-05
sVundetermined
p3317
F1.4448104450043739e-06
sVdiligent
p3318
F1.9271346022126392e-06
sVretrievable
p3319
F6.58882916583868e-06
sVfreely
p3320
F3.484229125348859e-07
sVold-timer
p3321
F3.323725969893527e-09
sVequal
p3322
F4.3509821895946815e-06
sVfulfilled
p3323
F5.529157667386612e-12
sVetc
p3324
F0.0
sVbusted
p3325
F2.821819534645066e-07
sVilliquid
p3326
F0.0
sVhigh-ranking
p3327
F0.0
sVlofty
p3328
F9.474199247145273e-08
sVglorious
p3329
F0.0001145413992230694
sVotherwise
p3330
F3.404132331595713e-06
sVstrongly
p3331
F1.4404642857949956e-05
sVadjusted
p3332
F2.91242196571513e-11
sVrelevant
p3333
F1.1528541860509404e-06
sVperiodic
p3334
F0.0
sVauthorised
p3335
F3.422404756667037e-07
sVco-financed
p3336
F0.0
sVupfront
p3337
F1.030210043197865e-06
sVnarrower
p3338
F5.503996278782567e-05
sVsupreme
p3339
F1.9274345602904685e-05
sVgrowin
p3340
F3.0865288395900835e-07
sVinvisible
p3341
F6.499686996065982e-07
sVcrafted
p3342
F0.0
sVdisturbing
p3343
F0.000450596936198448
sVrespect
p3344
F1.5789271572548888e-07
sVwithdrawn
p3345
F1.1728445085289767e-14
sVflourishing
p3346
F1.9442443644121503e-07
sVrusty
p3347
F1.3091369383026713e-10
sVtremendous
p3348
F0.0004406559289937306
sVdecent
p3349
F1.089973833949267e-05
sVintimidating
p3350
F7.350366663579713e-05
sVdefenseless
p3351
F8.220903352183464e-07
sVdazzling
p3352
F2.0698663819201647e-06
sVrestless
p3353
F0.00028681737189939217
sVsocio-economically
p3354
F0.0
sVblatant
p3355
F5.0931685772206695e-06
sVpreoccupied
p3356
F1.5697484975619867e-05
sViike
p3357
F4.052731509324092e-08
sVah
p3358
F4.577712863690087e-09
sVupbeat
p3359
F6.203475651757486e-08
sVfreak
p3360
F4.445966381411003e-08
sVmagical
p3361
F1.6842135203336726e-06
sVrecurring
p3362
F0.0
sVkilled
p3363
F1.0878907418089079e-05
sVclosed
p3364
F4.749510271170632e-13
sVshaun
p3365
F0.0
sVfilthy
p3366
F0.0003813377632181366
sVdeterminant
p3367
F2.66695271314085e-06
sVhomosexual
p3368
F0.0
sVcontrolled
p3369
F2.433166201792961e-08
sVwanna
p3370
F3.294829096232743e-08
sVsufficient
p3371
F1.9056244805893732e-05
sVmeritorious
p3372
F1.402516806478389e-06
sVdefunct
p3373
F0.0
sVpolicy
p3374
F7.909706321660485e-07
sVfinished
p3375
F1.4360767486054646e-07
sVensuring
p3376
F5.462785964762796e-07
sVtense
p3377
F0.0003265230662736295
sVpro-active
p3378
F1.945050345274272e-06
sVbull
p3379
F1.8997921795955585e-06
sVimproved
p3380
F2.0240571612492053e-06
sVbygones
p3381
F6.114205419681993e-07
sVintelligible
p3382
F4.990947782081177e-06
sVpresent
p3383
F1.8411413915728815e-07
sVinconspicuous
p3384
F5.531316449888872e-08
sVtroubled
p3385
F0.00015390199127606597
sVwelcoming
p3386
F0.0
sVde-insured
p3387
F1.1728445085289767e-14
sVfearful
p3388
F0.0004487887985028139
sVplain
p3389
F0.0001877164139733577
sVharder
p3390
F0.029232482594118835
sVvalue
p3391
F1.7479362995213576e-07
sVspecifically
p3392
F7.402414165106156e-06
sVimrtant
p3393
F3.4343594983566797e-07
sVstunning
p3394
F0.00010325876405313415
sVwild
p3395
F1.712718517596442e-05
sVadvisable
p3396
F2.1941490629814363e-05
sVdeductible
p3397
F1.91989191020566e-08
sVfrustrating
p3398
F0.0003553760512979779
sVat
p3399
F0.0
sVlikable
p3400
F8.707435497146158e-13
sVconcerted
p3401
F1.7733224239542348e-07
sVripe
p3402
F1.637875514474991e-05
sVresident
p3403
F9.634722478586083e-07
sVunworkable
p3404
F4.610255158555861e-06
sVrespected
p3405
F1.7599890551118607e-06
sVoptimistic
p3406
F1.9355857665715052e-08
sVraison
p3407
F0.0
sVuncompetitive
p3408
F1.3299930843511367e-07
sVwell-behaved
p3409
F1.400869142494901e-05
sVscanty
p3410
F1.8051863362043739e-06
sVco-chair
p3411
F0.0
sVlunatic
p3412
F1.0489172012581768e-06
sVvice-president
p3413
F2.275373525673503e-09
sVwatchful
p3414
F5.436990505301323e-07
sVadded
p3415
F0.0
sVjusticiable
p3416
F8.479540444589143e-08
sVmimi
p3417
F1.5664112784520164e-06
sVcross
p3418
F1.5208773325113179e-06
sVundisturbed
p3419
F1.4942930751416746e-07
sVfoxy
p3420
F2.998105017653954e-06
sVadverse
p3421
F1.474211088159729e-05
sVstrange
p3422
F0.00030950809873322424
sVswift
p3423
F6.414922037802565e-07
sVmerciful
p3424
F2.7118763597867266e-05
sVgeographical
p3425
F1.865231303997343e-07
sVspeedier
p3426
F1.9161243911812594e-06
sVconfrontational
p3427
F2.679323895546775e-06
sVfinite
p3428
F3.531727373837844e-06
sVprivileged
p3429
F5.581598601645084e-07
sVdifficult
p3430
F0.026953469744684534
sVinjured
p3431
F3.6886801228618954e-06
sVconflicting
p3432
F2.5995371693047232e-08
sVunimaginable
p3433
F2.480186228568321e-06
sVunconventional
p3434
F2.699784017278619e-15
sVselfish
p3435
F4.749510271170632e-13
sVeccentric
p3436
F1.1323714902807781e-08
sVre-routed
p3437
F1.2009927767336721e-11
sVprimary
p3438
F4.340097477270376e-05
sVfucked
p3439
F2.6442445232129863e-06
sVimpeccable
p3440
F1.2299329053030265e-05
sVtighter
p3441
F0.0002797935158083178
sVdoubtful
p3442
F7.673387159647956e-05
sVretard
p3443
F4.4611325596516505e-07
sVoff
p3444
F3.0667254734548044e-06
sVwarranted
p3445
F1.178373842210974e-07
sVphat
p3446
F2.948403701082383e-06
sVwell
p3447
F4.5980325231994477e-05
sVsoutheastern
p3448
F1.1820474617027485e-09
sVrife
p3449
F6.43322440578141e-07
sVinsurmountable
p3450
F5.891335197003652e-06
sVtouching
p3451
F1.7442147417720523e-06
sVjuicy
p3452
F1.9155193753910842e-06
sVredeemable
p3453
F6.392270206556021e-14
sVdressed
p3454
F3.092129082793379e-05
sVfirstly
p3455
F0.0
sVsalient
p3456
F3.979837273200726e-07
sVuser-friendly
p3457
F0.00028368549373626194
sVlatest
p3458
F7.693250086996717e-05
sVridonc
p3459
F1.9338787704071807e-06
sVtaller
p3460
F7.558332999987012e-05
sVinoperable
p3461
F2.1213973406957445e-11
sVwell-treated
p3462
F0.0
sVenormously
p3463
F2.8719414243388618e-06
sVless
p3464
F0.000294497305237685
sVincreasingly
p3465
F3.347365128403738e-06
sVaccurate
p3466
F0.00021048287502259223
sVdomestic
p3467
F5.633094648538653e-09
sVmistaken
p3468
F0.0003032218609096902
sVinterim
p3469
F8.11956379199144e-06
sVdistant
p3470
F1.4189744530759172e-05
sVping-pong
p3471
F0.0
sVadvertised
p3472
F3.800711613372317e-08
sVminiscule
p3473
F4.217620575804462e-06
sVexemplary
p3474
F5.989135670233652e-05
sVkeen
p3475
F2.4141822917130047e-05
sVafflicted
p3476
F1.9796520919943542e-06
sVgenerous
p3477
F2.435730079229763e-06
sVrapid
p3478
F6.414922037802565e-07
sVsublime
p3479
F2.9991950409626523e-06
sVcinematography
p3480
F6.125043368189888e-08
sVfar-reaching
p3481
F4.478888819428034e-05
sVterrorized
p3482
F2.171086852224218e-05
sVdrunk
p3483
F5.3383551376889865e-06
sVtransparent
p3484
F2.7790139841455917e-06
sVflame-retardant
p3485
F0.0
sVattractive
p3486
F4.1540527752326e-05
sVwet
p3487
F4.108210429721988e-11
sVladdie
p3488
F0.0
sVunprecedented
p3489
F2.8198108965154052e-05
sVsmart
p3490
F0.00012642045673997204
sVdivided
p3491
F2.889636105812516e-07
sVinnocents
p3492
F1.448745460658168e-09
sVdefinitive
p3493
F2.359728011318965e-05
sVample
p3494
F1.6915682692322412e-05
sVtesty
p3495
F0.0
sVthicker
p3496
F9.89298588117491e-06
sVlivid
p3497
F5.830486199816928e-05
sVacceding
p3498
F0.0
sVhistoric
p3499
F4.6129023346917596e-07
sVfive
p3500
F2.3190968120950336e-05
sVknow
p3501
F2.054047127516225e-08
sVunseen
p3502
F2.9573465415524664e-07
sVdenser
p3503
F0.0
sVimmediately
p3504
F3.541856854594745e-06
sVcondescending
p3505
F0.0
sVfools
p3506
F4.4611325596516505e-07
sVprominent
p3507
F1.0139233635395597e-05
sVimproper
p3508
F0.00010050911311718358
sVdisplaced
p3509
F2.4019855534673442e-11
sVnecessary
p3510
F2.320889850298946e-06
sVhelpful
p3511
F1.896683766848326e-05
sVlost
p3512
F7.069364727550218e-06
sVinquisitive
p3513
F1.6565627502493765e-05
sVsafest
p3514
F4.300390376829154e-06
sVvibrant
p3515
F1.0947112955541487e-06
sVrealist
p3516
F1.0631832612011176e-06
sVuser-defined
p3517
F6.517333103096777e-23
sVadmitted
p3518
F0.0
sVsized
p3519
F0.0
sVwarned
p3520
F4.994079022103147e-10
sVregulated
p3521
F3.3752131622339624e-11
sVsoft
p3522
F1.3095702303577407e-05
sVregardless
p3523
F0.0
sVitalian
p3524
F0.0
sVaccessible
p3525
F9.372789997152336e-05
sVfruitless
p3526
F3.1914932660323988e-06
sVclassical
p3527
F4.781711481486419e-06
sVstumpy
p3528
F0.0
sVforeseeable
p3529
F1.4128314763681619e-05
sVscared
p3530
F0.0013557298594957558
sVflagrant
p3531
F1.175422818535669e-05
sVholier
p3532
F1.7965966409446844e-05
sValive
p3533
F1.611058897313543e-05
sVfree-of-charge
p3534
F4.9531252844671555e-08
sVwarmer
p3535
F0.00011830011313411125
sVabolitionist
p3536
F2.3190968120950336e-05
sVflush
p3537
F6.851179826709446e-06
sVproper
p3538
F5.109576834013131e-06
sVhome
p3539
F4.577712863690087e-09
sVfranco
p3540
F3.245410870570438e-07
sVsupportive
p3541
F2.737554546673661e-06
sVwetter
p3542
F4.564678255246654e-11
sVlead
p3543
F4.183891416526583e-07
sVsufficiently
p3544
F3.2106739845179065e-06
sVbroad
p3545
F3.3855005529579426e-05
sVleveraged
p3546
F0.0
sVtraumatic
p3547
F0.002585926366016203
sVsnappy
p3548
F2.733101545957121e-07
sVrewarding
p3549
F3.118803040208453e-07
sVeconomical
p3550
F0.0002368242405290602
sVscrewed
p3551
F1.4142866183848207e-07
sVkiddo
p3552
F3.0865288395900835e-07
sVblurry
p3553
F3.371817517710246e-06
sVperplexed
p3554
F1.1323714902807781e-08
sVacross-the-board
p3555
F4.349286109365743e-07
sVinaccurate
p3556
F0.0001735131700000004
sVdesperate
p3557
F0.0015061026795225863
sVslight
p3558
F7.527454418851102e-05
sVastounding
p3559
F9.126806644289769e-05
sVself-sustainable
p3560
F8.533700380793865e-07
sVcombative
p3561
F5.529157667386612e-12
sVdistributed
p3562
F0.0
sVstellar
p3563
F8.745736616055713e-05
sVuptight
p3564
F7.393853237954383e-05
sVdistinctive
p3565
F0.00010602113189295944
sVprohibited
p3566
F1.1323714902807781e-08
sValthough
p3567
F3.6048893542038163e-07
sVhospitable
p3568
F0.0
sVgandalf
p3569
F0.0
sVwell-informed
p3570
F1.6290638734387154e-08
sVunchangeable
p3571
F2.860735569817966e-07
sVsimpler
p3572
F0.0007434567453577938
sVabout
p3573
F0.0
sVrare
p3574
F5.98850882104679e-05
sVunwelcome
p3575
F4.800472006834495e-08
sVfreedom
p3576
F1.91989191020566e-08
sVinterlinked
p3577
F0.0
sVsinister
p3578
F0.00011994282491836267
sVrecognized
p3579
F3.02423930422812e-07
sVcompatible
p3580
F1.015600473376451e-06
sVwell-served
p3581
F0.0
sVrecognizes
p3582
F1.3587222179077035e-08
sVmulti-disciplinary
p3583
F0.0
sVpersuaded
p3584
F5.057439636304967e-07
sVdistressed
p3585
F3.536949194712589e-05
sVbaseless
p3586
F2.3504392215722354e-06
sVequally
p3587
F2.1724171810319756e-06
sVown
p3588
F7.052263848300309e-07
sVpolished
p3589
F7.390116334471752e-16
sVunsustainable
p3590
F4.888029383006073e-06
sVunfavourable
p3591
F5.342131015910574e-05
sVpreviously
p3592
F1.9908075010128506e-19
sVemotive
p3593
F1.1280811367556263e-05
sVfunctional
p3594
F9.046471727673429e-11
sVsmarty
p3595
F0.0
sVlife-long
p3596
F2.7097811053649785e-09
sVscandalous
p3597
F0.00012276978054117721
sVungrounded
p3598
F0.0
sVfemale
p3599
F2.3190968120950336e-05
sVlawful
p3600
F1.1667624484005546e-06
sVscreened
p3601
F2.3882396588045783e-11
sVinitially
p3602
F2.618273876605343e-11
sVmere
p3603
F9.288935237838931e-05
sVsignificantly
p3604
F3.6335496303806133e-06
sVlasting
p3605
F1.4982379676074166e-07
sVterminated
p3606
F7.789251975429491e-07
sVwack
p3607
F2.151084056849905e-06
sVadditional
p3608
F3.418406476083726e-05
sVself-explanatory
p3609
F4.0493137000350524e-05
sVpopulated
p3610
F2.681112449643871e-07
sVsecret
p3611
F4.9973854642186414e-08
sVkidding
p3612
F0.0
sVinternationaux
p3613
F1.4403816139218402e-08
sVkorean
p3614
F2.2574991619570007e-08
sVmuch
p3615
F3.3218896992179894e-05
sVutopian
p3616
F2.3190968120950336e-05
sVrecommendable
p3617
F1.5941954643628516e-10
sVbiggest
p3618
F0.00012246298132404638
sVtimed
p3619
F0.0
sVunequivocal
p3620
F3.0257318547053605e-05
sVnaturally
p3621
F8.216854886068867e-08
sVrevised
p3622
F4.988714251543431e-11
sVnorth
p3623
F1.6876915075143336e-08
sVforthwith
p3624
F6.064201298164901e-06
sVtreacherous
p3625
F2.3071157506237443e-05
sVhazardous
p3626
F0.00013036456814254836
sVbut
p3627
F5.407334031305724e-07
sVdesignated
p3628
F2.3190968120950394e-16
sVinsured
p3629
F6.551383306889029e-07
sVneutral
p3630
F4.108210429721988e-11
sVcontradictory
p3631
F2.5995371693047232e-08
sVnut
p3632
F4.195142030863746e-06
sVautomated
p3633
F2.3190968120950336e-05
sVremote
p3634
F4.187692138106957e-06
sVhighest
p3635
F0.00048193485404620376
sVillustrative
p3636
F5.480408516127374e-07
sVpartially
p3637
F1.1323714902807781e-08
sVstraightaway
p3638
F4.320127217432546e-07
sValso
p3639
F1.5444213222613806e-06
sVwise
p3640
F0.00010095677220446
sVevident
p3641
F5.362242985074823e-05
sVinstructive
p3642
F4.586488686664885e-05
sVdangerous
p3643
F0.0003190485922367625
sVheavyset
p3644
F1.4404642857949956e-05
sVofficial
p3645
F9.811408304843278e-07
sVsmooth
p3646
F0.0003762212525994516
sVall-encompassing
p3647
F1.3190263758386821e-06
sVplaced
p3648
F0.0
sVcruel
p3649
F8.085711324371183e-05
sVdistribution
p3650
F0.0
sVbroader-based
p3651
F2.1663339906106604e-05
sVcordial
p3652
F1.969663959083347e-05
sVnon-existent
p3653
F2.16843311018129e-05
sVsuccessfully
p3654
F1.1289336812977384e-07
sVhorrific
p3655
F0.0005390463128350323
sVunaffordable
p3656
F6.340393298327777e-05
sVinadequate
p3657
F0.00028847594103606944
sVuniversal
p3658
F3.4936329998740845e-06
sVmeaningless
p3659
F9.112394146757164e-06
sVscary
p3660
F0.0047719630170269135
sVinter-connected
p3661
F8.26842060174697e-15
sVwell-defined
p3662
F4.302088963355099e-21
sVunsavory
p3663
F3.3627419006599106e-05
sVeducation
p3664
F0.0
sVhappen
p3665
F0.0
sVdeeper
p3666
F0.0003584046665045821
sVrenowned
p3667
F1.4226383229160301e-08
sVcompared
p3668
F1.8024446771019081e-07
sVrelaxing
p3669
F1.1323714902807781e-08
sVagreed-upon
p3670
F7.610205049679884e-09
sVincredible
p3671
F0.00039272446553156724
sVfortunate
p3672
F4.575303067934502e-06
sVdeadly
p3673
F2.3161466476755915e-05
sVbaby-sitting
p3674
F2.3190968120950336e-05
sVoffensive
p3675
F3.40444896237511e-09
sVlately
p3676
F2.5995533806057434e-08
sVsurreal
p3677
F2.294497646053683e-05
sVother
p3678
F2.1065103509603373e-06
sVonboard
p3679
F0.0
sVcrummy
p3680
F1.7480426966077355e-06
sVsick
p3681
F0.00039603773189018004
sVnon-self-executing
p3682
F7.76983158159935e-09
sVpredominant
p3683
F8.864882176473506e-07
sVreckless
p3684
F0.000611416792715601
sVhorny
p3685
F1.2623818358213097e-06
sVecstatic
p3686
F8.863671712395687e-06
sVinsupportable
p3687
F2.0676248573485092e-07
sVinescapable
p3688
F9.341914805400124e-07
sVstay
p3689
F3.478638672457859e-05
sVecological
p3690
F7.0846996538631355e-06
sVaffixed
p3691
F0.0
sVkinda
p3692
F0.0
sVpriced
p3693
F0.0
sVfriends
p3694
F1.1323714902807781e-08
sVconstant
p3695
F4.99665105145489e-06
sVtwo-fold
p3696
F3.89496670981944e-07
sVprevalent
p3697
F2.3124406235542024e-06
sVpersistent
p3698
F0.0032937797060572835
sVintentionally
p3699
F1.316794094242263e-06
sVgrimmer
p3700
F0.00012159846527187231
sVnascent
p3701
F3.408198763912297e-09
sVunderstand
p3702
F2.6010718511844323e-07
sVunspeakable
p3703
F1.1463601462028825e-05
sVrepresentative
p3704
F1.1323714902807781e-08
s.