(dp0
S'precise'
p1
F0.15384615384615385
sS'run'
p2
F0.07692307692307693
sS'developed'
p3
F0.038461538461538464
sS'three'
p4
F0.5
sS'aware'
p5
F0.11538461538461539
sS'home'
p6
F0.038461538461538464
sS'null'
p7
F0.07692307692307693
s.