(dp0
S'accessible'
p1
F0.20833333333333334
sS'generic'
p2
F0.020833333333333332
sS'of'
p3
F0.041666666666666664
sS'in'
p4
F0.59375
sS'guaranteed'
p5
F0.07291666666666667
sS'operational'
p6
F0.020833333333333332
sS'specified'
p7
F0.041666666666666664
s.