(dp0
S'perfect'
p1
F0.01639344262295082
sS'good'
p2
F0.13114754098360656
sS'cheapest'
p3
F0.01639344262295082
sS'this'
p4
F0.04918032786885246
sS'better'
p5
F0.5901639344262295
sS'as'
p6
F0.13114754098360656
sS'functioning'
p7
F0.04918032786885246
sS'open'
p8
F0.01639344262295082
s.