(dp0
S'looking'
p1
F0.014084507042253521
sS'satisfying'
p2
F0.014084507042253521
sS'strictest'
p3
F0.014084507042253521
sS'third'
p4
F0.323943661971831
sS'no'
p5
F0.1267605633802817
sS'recognising'
p6
F0.028169014084507043
sS'completed'
p7
F0.014084507042253521
sS'youngest'
p8
F0.04225352112676056
sS'five'
p9
F0.36619718309859156
sS'forgotten'
p10
F0.028169014084507043
sS'encouraged'
p11
F0.028169014084507043
s.