(dp0
S'responsible'
p1
F0.0625
sS'human'
p2
F0.09375
sS'selected'
p3
F0.4375
sS'but'
p4
F0.03125
sS'appointed'
p5
F0.0625
sS'protected'
p6
F0.03125
sS'mature'
p7
F0.03125
sS'found'
p8
F0.0625
sS'by'
p9
F0.1875
s.