(dp0
S'all'
p1
F0.17647058823529413
sS'good'
p2
F0.3235294117647059
sS'useful'
p3
F0.058823529411764705
sS'greater'
p4
F0.14705882352941177
sS'insurmountable'
p5
F0.11764705882352941
sS'greatest'
p6
F0.058823529411764705
sS'excellent'
p7
F0.058823529411764705
sS'today'
p8
F0.058823529411764705
s.