(dp0
S'available'
p1
F0.048
sS'detailed'
p2
F0.04
sS'perpetual'
p3
F0.016
sS'integrated'
p4
F0.2
sS'worse'
p5
F0.392
sS'certified'
p6
F0.008
sS'poorest'
p7
F0.056
sS'clearer'
p8
F0.008
sS'least'
p9
F0.024
sS'hurt'
p10
F0.008
sS'large'
p11
F0.016
sS'deepest'
p12
F0.008
sS'induced'
p13
F0.008
sS'bigger'
p14
F0.136
sS'worrying'
p15
F0.008
sS'shortest'
p16
F0.016
sS'darker'
p17
F0.008
s.