(dp0
S'come'
p1
F0.01834862385321101
sS'prescribed'
p2
F0.027522935779816515
sS'executed'
p3
F0.009174311926605505
sS'last'
p4
F0.027522935779816515
sS'significantly'
p5
F0.01834862385321101
sS'most'
p6
F0.03669724770642202
sS'aroused'
p7
F0.009174311926605505
sS'understood'
p8
F0.3119266055045872
sS'much'
p9
F0.09174311926605505
sS'connected'
p10
F0.03669724770642202
sS'set'
p11
F0.24770642201834864
sS'now'
p12
F0.14678899082568808
sS'automatic'
p13
F0.009174311926605505
sS'bigger'
p14
F0.009174311926605505
s.