(dp0
S'given'
p1
F0.05263157894736842
sS'many'
p2
F0.21052631578947367
sS'automated'
p3
F0.05263157894736842
sS'manifest'
p4
F0.05263157894736842
sS'aware'
p5
F0.10526315789473684
sS'qualified'
p6
F0.05263157894736842
sS'specified'
p7
F0.05263157894736842
sS'implemented'
p8
F0.05263157894736842
sS'any'
p9
F0.2631578947368421
sS'more'
p10
F0.10526315789473684
s.