(dp0
S'enjoyable'
p1
F0.006329113924050633
sS'though'
p2
F0.2848101265822785
sS'this'
p3
F0.006329113924050633
sS'supported'
p4
F0.02531645569620253
sS'it'
p5
F0.06962025316455696
sS'feasible'
p6
F0.10126582278481013
sS'practical'
p7
F0.13924050632911392
sS'realistic'
p8
F0.02531645569620253
sS'likely'
p9
F0.3037974683544304
sS'really'
p10
F0.02531645569620253
sS'relatively'
p11
F0.012658227848101266
s.