(dp0
S'though'
p1
F0.1951219512195122
sS'solemn'
p2
F0.24390243902439024
sS'catastrophic'
p3
F0.14634146341463414
sS'tragic'
p4
F0.07317073170731707
sS'hopeless'
p5
F0.14634146341463414
sS'leading'
p6
F0.04878048780487805
sS'yet'
p7
F0.04878048780487805
sS'grave'
p8
F0.04878048780487805
sS'left'
p9
F0.04878048780487805
s.