(dp0
S'identical'
p1
F0.1111111111111111
sS'several'
p2
F0.2222222222222222
sS'hour'
p3
F0.1111111111111111
sS'exposed'
p4
F0.1111111111111111
sS'involved'
p5
F0.3333333333333333
sS'supportive'
p6
F0.1111111111111111
s.