(dp0
S'use'
p1
F0.3634816435691709
sS'most'
p2
F0.2287867736445417
sS'conscious'
p3
F0.014101628981278872
sS'paid'
p4
F0.18307804522246535
sS'to'
p5
F0.19717967420374422
sS'as'
p6
F0.01337223437879893
s.