(dp0
S'traffic'
p1
F0.09803921568627451
sS'another'
p2
F0.10224089635854341
sS'new'
p3
F0.5588235294117647
sS'public'
p4
F0.1092436974789916
sS'south'
p5
F0.06302521008403361
sS'extreme'
p6
F0.06862745098039216
s.