(dp0
S'slow'
p1
F0.0029797377830750892
sS'satisfactory'
p2
F0.027678453185008608
sS'articulated'
p3
F0.005893259170970732
sS'polished'
p4
F0.005760826380611839
sS'built'
p5
F0.0060919083565090714
sS'certain'
p6
F0.040723083035359556
sS'binding'
p7
F0.010660839623890875
sS'new'
p8
F0.04456363395576745
sS'really'
p9
F0.01205138392265925
sS'enough'
p10
F0.03886902397033506
sS'valued'
p11
F0.007217587074559661
sS'done'
p12
F0.042709574890742945
sS'cooperative'
p13
F0.005760826380611839
sS'informed'
p14
F0.41179976162097737
sS'such'
p15
F0.0039067673155873395
sS'safer'
p16
F0.009800026486558071
sS'interoperable'
p17
F0.009137862534763607
sS'irrelevant'
p18
F0.0026486558071778573
sS'any'
p19
F0.18765726393855117
sS'best'
p20
F0.10429082240762813
sS'democratic'
p21
F0.019798702158654483
s.