(dp0
S'accessible'
p1
F0.1577605866833609
sS'generic'
p2
F0.010910879577874167
sS'of'
p3
F0.013862183070249966
sS'in'
p4
F0.7341591020882708
sS'guaranteed'
p5
F0.04798104011089747
sS'operational'
p6
F0.008675043598801592
sS'specified'
p7
F0.026651164870545096
s.