(dp0
S'good'
p1
F0.7463326411681961
sS'worse'
p2
F0.16859803067854512
sS'evil'
p3
F0.022908433250720076
sS'worst'
p4
F0.0073682095250854045
sS'memorable'
p5
F0.00576060017415768
sS'mediocre'
p6
F0.0490320852032956
s.