(dp0
S'set'
p1
F0.0031810294968189707
sS'like'
p2
F0.014541849128315293
sS'conscious'
p3
F0.1077418821779724
sS'certain'
p4
F0.006775179707510535
sS'completed'
p5
F0.02433281004709576
sS'constantly'
p6
F0.003718086424853342
sS'informed'
p7
F0.6295546558704453
sS'cross'
p8
F0.001859043212426671
sS'alert'
p9
F0.007642733206642981
sS'better'
p10
F0.06618193836238949
sS'valued'
p11
F0.004131207138725936
sS'representative'
p12
F0.026770222258944064
sS'consolidated'
p13
F0.004089895067338676
sS'equipped'
p14
F0.07605552342394448
sS'you'
p15
F0.007684045278030241
sS'forthcoming'
p16
F0.0029331570684954142
sS'nude'
p17
F0.0016937949268776337
sS'populated'
p18
F0.011112947203172767
s.