(dp0
S'perfect'
p1
F0.5233887733887734
sS'good'
p2
F0.233497920997921
sS'faster'
p3
F0.0036382536382536385
sS'being'
p4
F0.008575883575883576
sS'over'
p5
F0.009225571725571726
sS'enough'
p6
F0.10602910602910603
sS'essential'
p7
F0.007406444906444907
sS'best'
p8
F0.10823804573804574
s.