(dp0
S'a'
p1
F0.09048257372654156
sS'good'
p2
F0.06568364611260054
sS'cheaper'
p3
F0.4644772117962466
sS'bad'
p4
F0.11126005361930295
sS'stupid'
p5
F0.17962466487935658
sS'easy'
p6
F0.08847184986595175
s.