(dp0
S'received'
p1
F0.039589442815249266
sS'about'
p2
F0.013929618768328446
sS'executed'
p3
F0.010080645161290322
sS'associated'
p4
F0.027675953079178885
sS'significantly'
p5
F0.010997067448680353
sS'get'
p6
F0.009164222873900294
sS'considered'
p7
F0.06030058651026393
sS'formed'
p8
F0.09420821114369501
sS'well'
p9
F0.0625
sS'named'
p10
F0.052236070381231674
sS'naked'
p11
F0.08577712609970674
sS'articulated'
p12
F0.007881231671554252
sS'new'
p13
F0.012096774193548387
sS'part'
p14
F0.2221407624633431
sS'implemented'
p15
F0.04857038123167155
sS'normally'
p16
F0.011363636363636364
sS'really'
p17
F0.2314882697947214
s.