(dp0
S'intriguing'
p1
F0.014390442573988596
sS'fascinating'
p2
F0.21477056747216944
sS'of'
p3
F0.0586478414336139
sS'specifically'
p4
F0.027151778441487917
sS'completely'
p5
F0.06557154493619333
sS'moving'
p6
F0.01982079826228618
sS'amusing'
p7
F0.10181916915557969
sS'entertaining'
p8
F0.15204995927233234
sS'exciting'
p9
F0.3388541949497692
sS'bizarre'
p10
F0.006923703502579419
s.