(dp0
S'equally'
p1
F0.0002822466836014677
sS'conscious'
p2
F0.0008326277166243297
sS'work'
p3
F0.01004798193621225
sS'some'
p4
F0.004741744284504657
sS'disappeared'
p5
F0.0006068303697431555
sS'most'
p6
F0.9815834038950042
sS'too'
p7
F0.0015946937623482925
sS'loaded'
p8
F0.00031047135196161446
s.