(dp0
S'enjoyable'
p1
F0.0011914964777691842
sS'though'
p2
F0.2673550868538222
sS'this'
p3
F0.0011078826898555571
sS'supported'
p4
F0.006647296139133343
sS'it'
p5
F0.06672380275507431
sS'feasible'
p6
F0.018478647128911556
sS'practical'
p7
F0.08231777420096574
sS'realistic'
p8
F0.004765985911076737
sS'likely'
p9
F0.5357344426095864
sS'really'
p10
F0.012751102656828111
sS'relatively'
p11
F0.0029264825769769434
s.