(dp0
S'a'
p1
F0.19695930498399633
sS'smaller'
p2
F0.23502514860539553
sS'tiny'
p3
F0.3276177411979881
sS'micro'
p4
F0.02194787379972565
sS'individual'
p5
F0.04172382258802012
sS'every'
p6
F0.006401463191586648
sS'microscopic'
p7
F0.040237768632830365
sS'minuscule'
p8
F0.0283493369913123
sS'minute'
p9
F0.09670781893004116
sS'before'
p10
F0.005029721079103796
s.