(dp0
S'identical'
p1
F0.06754772393538913
sS'several'
p2
F0.14831130690161526
sS'hour'
p3
F0.1130690161527166
sS'exposed'
p4
F0.12922173274596183
sS'involved'
p5
F0.4787077826725404
sS'supportive'
p6
F0.0631424375917768
s.