(dp0
S'everybody'
p1
F0.009950248756218905
sS'independent'
p2
F0.0037483813807673958
sS'booked'
p3
F0.0035439242145437195
sS'managed'
p4
F0.02358072650446398
sS'like'
p5
F0.1329653104341307
sS'anymore'
p6
F0.04102773802221768
sS'worthless'
p7
F0.003066857493355142
sS'pleasant'
p8
F0.002726095549649015
sS'start'
p9
F0.010359163088666258
sS'understand'
p10
F0.09813943978736454
sS'too'
p11
F0.13875826347713488
sS'satisfactory'
p12
F0.002998705104613917
sS'coming'
p13
F0.01151775369726709
sS'further'
p14
F0.5076671437333878
sS'truthful'
p15
F0.009950248756218905
s.