(dp0
S'available'
p1
F0.254962505513895
sS'used'
p2
F0.035288928098809
sS'no'
p3
F0.11777679752977503
sS'many'
p4
F0.08028231142479048
sS'going'
p5
F0.1274812527569475
sS'something'
p6
F0.05778561976179974
sS'nearly'
p7
F0.32642258491398324
s.