(dp0
S'knowing'
p1
F0.31164901664145234
sS'sinful'
p2
F0.2178517397881997
sS'disgusting'
p3
F0.09984871406959153
sS'evil'
p4
F0.25718608169440244
sS'most'
p5
F0.04387291981845688
sS'immoral'
p6
F0.06959152798789713
s.