(dp0
S'accessible'
p1
F0.11175183933187513
sS'applied'
p2
F0.02664545635315172
sS'dedicated'
p3
F0.037383177570093455
sS'acquainted'
p4
F0.030025850069596342
sS'gone'
p5
F0.01908928216345198
sS'far'
p6
F0.05885862000397694
sS'no'
p7
F0.3523563332670511
sS'up'
p8
F0.1807516404851859
sS'identified'
p9
F0.11016106581825412
sS'certified'
p10
F0.016901968582223106
sS'coordinated'
p11
F0.00874925432491549
sS'manifest'
p12
F0.010737721216941738
sS'present'
p13
F0.03658779081328296
s.