(dp0
S'forever'
p1
F0.006060606060606061
sS'being'
p2
F0.21106719367588933
sS'familiar'
p3
F0.029776021080368906
sS'hard'
p4
F0.013438735177865613
sS'it'
p5
F0.06403162055335969
sS'qualified'
p6
F0.036231884057971016
sS'surely'
p7
F0.03399209486166008
sS'human'
p8
F0.025296442687747035
sS'included'
p9
F0.024901185770750987
sS'find'
p10
F0.5552042160737813
s.