(dp0
Vlimited
p1
F7.584338638637438e-08
sVsuicidal
p2
F1.0236047863173047e-08
sVsearchable
p3
F4.84675632825011e-10
sVsecondly
p4
F6.574316394969181e-06
sVconsolidated
p5
F1.450689570638574e-13
sVdesirable
p6
F5.607346794073988e-07
sVfoul
p7
F0.0
sVasian
p8
F1.0849826458327784e-09
sVcontroversial
p9
F2.2412217656328114e-08
sVcaptain
p10
F0.0
sVself-reliant
p11
F1.4282119882994361e-09
sVundisputed
p12
F1.7069167380123748e-09
sVsomeplace
p13
F1.0889191374555349e-07
sVeligible
p14
F3.966325341867337e-09
sVpoorest
p15
F2.876382492274186e-05
sVboundless
p16
F2.369329436297813e-07
sVunanswered
p17
F2.0040256180155826e-09
sVneighbours
p18
F2.6365078293736503e-07
sVsorry
p19
F2.9470135958622132e-08
sVworth
p20
F1.548934739200333e-08
sVdivergent
p21
F3.2663404942636822e-09
sVupdated
p22
F8.737489329552823e-08
sVemerged
p23
F0.0
sVco-operation
p24
F4.588165365529226e-09
sVdynamic
p25
F3.906174534794667e-09
sVokey
p26
F1.345947958088338e-09
sVmla
p27
F3.7137653008347323e-13
sVevery
p28
F0.0
sVjack
p29
F0.0
sVthriving
p30
F1.3049052004990208e-09
sVstrictest
p31
F1.0595486202699386e-08
sVcourageous
p32
F1.29957443744238e-08
sVvast
p33
F6.8661258106928954e-06
sVbravest
p34
F2.2685842985207e-09
sVschool
p35
F0.0
sVreciprocal
p36
F2.6652602245778292e-08
sVcourrier
p37
F1.4812245158299692e-10
sVwell-maintained
p38
F7.064779811239689e-10
sVcorrect
p39
F9.001851704183599e-07
sVadmissible
p40
F6.021528521959441e-09
sVunrelated
p41
F1.280279522082679e-11
sVfast-switched
p42
F0.0
sVdeplorable
p43
F3.162466880983152e-08
sVreliable
p44
F2.0897262055692752e-07
sVfavoured
p45
F0.0
sVcher
p46
F6.880106935988625e-09
sVtenuous
p47
F4.1124071398238255e-08
sVnigh
p48
F0.0
sVconcise
p49
F3.929031604149571e-07
sVconsistent
p50
F1.2501421275976178e-07
sVdirect
p51
F2.8963322378275447e-08
sVelegant
p52
F2.6365078293736525e-12
sVlikely
p53
F3.674708909757224e-08
sVlouder
p54
F6.563446975372555e-07
sVrigorous
p55
F4.463682841901313e-07
sVsubordinate
p56
F0.0
sVestimated
p57
F2.6365078293736503e-07
sVeven
p58
F8.431302184741554e-07
sVestablished
p59
F5.802758282554296e-13
sVoldest
p60
F1.568696274988784e-11
sVincompatible
p61
F4.202366321211292e-09
sVruthless
p62
F5.121967508703608e-09
sVminuscule
p63
F1.2651391044536305e-07
sVexactly
p64
F3.4936205355744147e-07
sVselected
p65
F3.3905707682274324e-11
sVprofitability
p66
F1.21132734429794e-09
sVsupplied
p67
F0.0
sVliberated
p68
F1.0289851557929735e-08
sVabove
p69
F4.1276787348968245e-06
sVevey
p70
F0.0
sVresilient
p71
F5.450819971663516e-08
sVnew
p72
F1.4327979284752536e-06
sVnet
p73
F1.0684765852623023e-09
sVincreasing
p74
F4.542595994471891e-06
sVever
p75
F0.0
sVadmiral
p76
F0.0
sVevolving
p77
F2.061696689140665e-08
sVfeisty
p78
F2.2685842985207e-09
sVrichest
p79
F5.192002689442994e-07
sVunseemly
p80
F3.227305360165179e-08
sVremarried
p81
F8.155985665428199e-09
sVreported
p82
F0.0
sVsmokin
p83
F7.332494071396775e-08
sVactive
p84
F3.24534290609475e-08
sVdry
p85
F2.6997840172786185e-09
sVloverly
p86
F2.4932998983824396e-08
sVchaotic
p87
F2.063313831715005e-10
sVrubbish
p88
F7.05244733832021e-09
sVelaborate
p89
F4.4010672118799455e-09
sVchanged
p90
F9.804294498449793e-09
sVexpedited
p91
F1.586297983666141e-08
sVunfettered
p92
F5.553327793136766e-05
sVsuperstitious
p93
F2.6365078293736503e-07
sVlonesome
p94
F2.1030323668283324e-08
sVsymmetrical
p95
F5.490081742199733e-09
sVstipulated
p96
F1.3509526094377612e-07
sVsettled
p97
F1.283379472499343e-09
sVastute
p98
F7.192467427677813e-09
sVmutual
p99
F2.3774926004295005e-10
sVfantastic
p100
F1.5956099622242115e-06
sVsecure
p101
F6.35066101559082e-08
sVelaborated
p102
F1.205492604146442e-09
sVspooky
p103
F3.011811606690569e-08
sVexplained
p104
F0.0
sVinequitable
p105
F2.6655956268523642e-08
sVerected
p106
F0.0
sVbro
p107
F2.5747146771227053e-10
sVvisible
p108
F1.5019907961309894e-07
sVunitary
p109
F3.793451570328962e-10
sVachievable
p110
F5.845319630367969e-08
sVstern
p111
F1.0758241036392976e-08
sVoff-site
p112
F7.013663523503289e-08
sVtotal
p113
F7.270595916732227e-10
sVreceivable
p114
F7.2171579626817815e-09
sVnegative
p115
F4.6456845742478586e-08
sVwell-trained
p116
F9.489603202742893e-10
sVcalm
p117
F7.738505967744508e-08
sVright-
p118
F4.140893067697972e-09
sVtell
p119
F7.270595916732227e-10
sVravishing
p120
F6.666691197957774e-08
sVbreathe
p121
F8.239086966792657e-09
sVtolerated
p122
F0.0
sVgriet
p123
F4.955570868642681e-11
sVstandardized
p124
F2.4403233515789366e-08
sVholy
p125
F1.0673900647602438e-08
sVwary
p126
F1.0535323923423408e-08
sVsuccessful
p127
F1.8554633065599853e-07
sVnaive
p128
F9.969510314214442e-09
sVhereby
p129
F3.840421015413883e-10
sVacceded
p130
F0.0
sVphony
p131
F1.3548699703981935e-08
sVaware
p132
F9.789939711627176e-09
sVfinal
p133
F1.4411652746356497e-08
sVwarm
p134
F2.5355585529175068e-08
sVexcellent
p135
F6.3052747408259925e-06
sVcontinual
p136
F4.433791869372449e-10
sVadamant
p137
F8.596066161030732e-10
sVoutdated
p138
F2.373399537759203e-10
sVimmature
p139
F4.415703053052994e-07
sVsupplemental
p140
F6.821135466143056e-09
sVsegregated
p141
F2.7383868735270725e-09
sVme
p142
F4.096282359988671e-14
sVma
p143
F0.0
sVcheapest
p144
F2.9866406230727925e-08
sVwork
p145
F0.0
sVdaft
p146
F1.986206766737424e-08
sVsweeter
p147
F6.913273647442937e-08
sVhenry
p148
F0.0
sVaddictive
p149
F1.024835256364019e-08
sVindicated
p150
F0.0
sVjoyous
p151
F2.471726090037797e-08
sVunjust
p152
F2.5121782546277437e-08
sVcited
p153
F0.0
sVorganized
p154
F0.0
sVoverheard
p155
F1.3447600512008124e-10
sVneed-to-know
p156
F5.492796368885958e-10
sVpluralistic
p157
F1.447647628239765e-08
sVdavid
p158
F0.0
sVlooser
p159
F1.1410043197701646e-06
sVabsolute
p160
F0.00024264792896423528
sVwell-armed
p161
F1.0849826458327775e-09
sVaging
p162
F0.0
sVconfidential
p163
F4.498207646744969e-09
sVillicit
p164
F0.0
sVhon
p165
F2.3228572275199676e-09
sVverify
p166
F7.272369992083931e-10
sVnuts
p167
F1.3916749500716553e-08
sVfunky
p168
F3.944667045114912e-09
sVfairer
p169
F4.135119679494316e-07
sVvery
p170
F2.603797704981747e-06
sVhot
p171
F4.146720067790721e-08
sVmorbid
p172
F2.3626225159650657e-08
sVadjacent
p173
F0.0
sVtoxic
p174
F6.256556665408172e-08
sVwidespread
p175
F9.495990620109553e-07
sVfaulty
p176
F3.2148953507015376e-09
sVpreferable
p177
F4.170617867173594e-07
sVmassive
p178
F6.211677591342657e-06
sVbadly
p179
F2.2415113463896002e-08
sVdoable
p180
F1.8232062712217725e-08
sVnon-exhaustive
p181
F1.5442305076364363e-08
sVinsecure
p182
F1.6806899758261214e-07
sVearlier
p183
F2.3597987531932064e-06
sVvicious
p184
F1.458784499653594e-08
sVdemanding
p185
F0.00011799246095421954
sVtherefore
p186
F3.5037338532664605e-05
sVthankyou
p187
F9.333909748447232e-10
sVmodest
p188
F3.557855682673684e-07
sVmeaningful
p189
F1.1146236636203018e-05
sVparallel
p190
F5.490081742199733e-09
sVmoister
p191
F7.118571139308855e-10
sVcomplacent
p192
F9.341106236152484e-09
sVelusive
p193
F2.0864909972802621e-07
sVsplendid
p194
F2.586227491259506e-06
sVthird
p195
F1.1836092038165593e-05
sVhasty
p196
F4.0690511293360515e-07
sVacknowledged
p197
F1.1505616454200332e-09
sVstand-alone
p198
F1.4282119882994361e-09
sVcold-rolled
p199
F1.1265321123071646e-08
sVencompassing
p200
F0.0
sVrogue
p201
F7.603431955215546e-09
sVgreen
p202
F5.6557668926359326e-08
sVpuny
p203
F5.327880624538893e-11
sVuninsured
p204
F1.6797020563516355e-09
sVdemocratic
p205
F4.33993058333111e-09
sVnonsensical
p206
F7.754781741868983e-09
sVwing
p207
F0.0
sVunsteady
p208
F3.2758864204261306e-08
sVexecuted
p209
F3.3905707682274324e-11
sVwelcomed
p210
F3.3652183383832314e-09
sVover
p211
F5.358848878054212e-06
sVoff-the-record
p212
F5.492796368885958e-10
sVinconclusive
p213
F0.00033208946463854865
sVsatisfied
p214
F1.4451532446195663e-07
sVproportionate
p215
F3.946012241230126e-05
sVfrankenstein
p216
F2.6365078293736503e-07
sVfinest
p217
F2.910196644398203e-06
sVghastly
p218
F9.567321279643854e-08
sVinnovative
p219
F8.239086966792657e-09
sVresponsive
p220
F1.4468155845741413e-07
sVslimmer
p221
F1.5771385053952307e-09
sVtalkative
p222
F1.4658343529974218e-08
sVbefore
p223
F1.8566936128144366e-06
sVom-mazing
p224
F5.837468432326136e-08
sVindispensible
p225
F0.014873517017484
sVby-election
p226
F2.2981213726590286e-08
sVfit
p227
F7.797259073646478e-07
sVfun-loving
p228
F1.0752056951333436e-09
sVpersonal
p229
F1.3642141584150928e-07
sVcomprehend
p230
F2.361400725025371e-09
sVbetter
p231
F5.824245729542945e-06
sVbottled
p232
F2.6365078293736503e-07
sVcompelling
p233
F0.0006121616336234969
sVdifferently
p234
F4.918700113337108e-08
sVinsubstantial
p235
F2.201224535479492e-08
sVworkable
p236
F3.0944648265534394e-07
sVnobler
p237
F5.340715534091927e-09
sVadmirable
p238
F1.9646960813986734e-07
sVeasier
p239
F0.00014980191357052614
sVpleasurable
p240
F1.5932421417304607e-08
sVmaximal
p241
F1.0379033292849668e-10
sVthen
p242
F1.1745097119038113e-09
sVthem
p243
F0.0
sVaffected
p244
F4.464949159805664e-12
sVwoken
p245
F3.1256273538329094e-09
sVinterdisciplinary
p246
F0.0
sVunemployed
p247
F7.288747556016438e-10
sVsafe
p248
F1.34954092859855e-07
sVdiseased
p249
F2.4536223865602176e-08
sVrepulsive
p250
F4.5766820950531464e-08
sVshameful
p251
F8.230026792442565e-08
sVmultidimensional
p252
F3.810076948250248e-08
sVsixteen
p253
F3.147003926873962e-11
sVundeveloped
p254
F1.1292199362502997e-11
sVleaner
p255
F6.650108889334472e-08
sV-ready
p256
F5.690769753398106e-05
sVnotified
p257
F0.0
sVreasonably
p258
F8.285569436497123e-09
sVclassified
p259
F5.492796368885958e-10
sVwilling
p260
F5.690048496831944e-05
sVl
p261
F4.072919846667209e-09
sVdroll
p262
F2.630570288159274e-09
sVdeficient
p263
F1.6054497578316984e-07
sVspotless
p264
F3.205429755786907e-09
sVreasonable
p265
F1.9248385777079276e-07
sVend-to-end
p266
F6.02404298781309e-10
sVentitled
p267
F7.270595916732227e-10
sVlow-skilled
p268
F1.5350127510699584e-09
sVluck
p269
F3.270893229399557e-08
sVfairly
p270
F0.0
sVskint
p271
F1.8200063531199365e-09
sVdoomed
p272
F8.099771607959011e-10
sVdisplacement
p273
F2.5099140399820573e-10
sVworded
p274
F0.0
sVchubby
p275
F9.80656607118256e-10
sVdispleased
p276
F2.8369698619074433e-08
sVfirst-class
p277
F1.2765126528566654e-07
sVblinded
p278
F7.98595123936536e-09
sVcertifiable
p279
F1.2114550424486927e-08
sVice-cold
p280
F1.3233657958320452e-09
sVespeciaily
p281
F5.284229165392537e-08
sVrestricted
p282
F2.297753863921059e-08
sVwide-open
p283
F2.0040256180155826e-09
sVhooked
p284
F1.105832972443609e-08
sVcontent
p285
F4.834111681398913e-08
sVdrawn-out
p286
F0.0
sVsluggish
p287
F5.838596675403396e-08
sVassured
p288
F1.2904722323962428e-08
sVu.s.
p289
F8.436825053995683e-11
sVlittle
p290
F1.4233704951861148e-06
sVfree
p291
F5.785385319526659e-09
sVstandard
p292
F7.502369883786202e-09
sVaforesaid
p293
F2.129565764029346e-13
sVsalutary
p294
F4.753819828457143e-08
sVelle
p295
F0.0
sVchecked
p296
F3.3905707682274324e-11
sVwanted
p297
F2.6365078293736503e-07
sVcertified
p298
F9.337688666528229e-10
sVenormous
p299
F1.5740675218671267e-05
sVcreated
p300
F0.0
sVhorseshit
p301
F4.772044694768833e-09
sVinexpensive
p302
F1.3232697282586451e-08
sVlongterm
p303
F0.0
sVdispersal
p304
F8.239086966792657e-09
sVflawless
p305
F7.735105307448151e-08
sVdisturbed
p306
F3.5312014303981563e-09
sVspeedy
p307
F7.03791306635316e-07
sVmulti-ethnic
p308
F2.6365078293736503e-07
sVtempting
p309
F2.932284954358565e-07
sVrepealed
p310
F2.6365078293736503e-07
sVloud
p311
F4.6328657613266223e-07
sVfuckin
p312
F1.971800793142704e-10
sVenraged
p313
F1.7070479887745887e-08
sValready
p314
F1.408229955098218e-08
sVdaunting
p315
F2.721178454886392e-06
sVstate-run
p316
F1.7603044239306593e-10
sVunfilled
p317
F1.6056336957024699e-09
sVencouraging
p318
F1.0236390514446743e-08
sVrank
p319
F1.495009168583981e-09
sV-mentioned
p320
F0.0
sVunspecified
p321
F4.165207708220735e-09
sVanother
p322
F0.0
sVcomin
p323
F3.2352659556499824e-09
sVsober
p324
F2.6365078293736503e-07
sVthick
p325
F9.73668791212397e-10
sVwell-formed
p326
F1.9865863963581227e-08
sVpragmatic
p327
F8.330920919227804e-08
sVinteresting
p328
F2.490659095678272e-06
sVsimilarly
p329
F1.1819584735716637e-08
sVopportunity
p330
F0.0
sVtop
p331
F4.980905229005139e-06
sVtired
p332
F1.2627734661712134e-08
sVprotracted
p333
F3.219105376071701e-07
sVtwisted
p334
F3.2148953507015376e-09
sVheights
p335
F0.0
sVplentiful
p336
F4.9273947366444765e-08
sVneeded
p337
F0.7651775091991957
sVresponsable
p338
F1.4075648469197748e-09
sVmaster
p339
F1.5408364128515992e-10
sVlisted
p340
F6.693974218417162e-10
sVtom
p341
F3.2663404942636822e-09
sVinconvenient
p342
F7.25766269426146e-08
sVoveremotional
p343
F5.995976008732337e-09
sVbitter
p344
F9.051572032113976e-08
sVdamaging
p345
F3.4465450357724026e-08
sVilliterate
p346
F2.6365078293736503e-07
sVindiscreet
p347
F7.272369992083931e-10
sVenhancing
p348
F4.6568223557789345e-07
sVgrown-up
p349
F8.566087584948661e-08
sVdiversified
p350
F5.3870299691177957e-08
sVtrippy
p351
F7.594259601960147e-09
sVggood
p352
F8.574216132254734e-08
sVexhilarating
p353
F1.702256850329973e-08
sVpredictable
p354
F1.3855253956228676e-07
sVwestern
p355
F0.0
sVsomewhat
p356
F1.871774847680809e-08
sVlegally
p357
F8.49452519793775e-09
sVwasted
p358
F1.2273944160007321e-08
sVlonger-term
p359
F1.219389331314735e-08
sVunsanitary
p360
F0.0
sVreimbursable
p361
F3.3905707682274324e-11
sVpeculiar
p362
F2.3455702556881636e-07
sVpositively
p363
F2.578819848309219e-09
sVself-governing
p364
F1.4282119882994361e-09
sVpast
p365
F9.100656377817339e-07
sVsurer
p366
F2.984696423949648e-08
sVdisciplined
p367
F0.0
sVenabled
p368
F8.239086966792657e-09
sVsecond
p369
F1.532893396860604e-05
sVunmistakable
p370
F2.691227968684251e-08
sVscant
p371
F4.763784405210962e-08
sVwell-positioned
p372
F9.282399347474972e-08
sVidle
p373
F7.288747556016438e-10
sVfabulous
p374
F1.2208276262400935e-06
sVsilly
p375
F9.136515900434092e-08
sVhistorical
p376
F1.4258389979506191e-08
sVhigh-cost
p377
F4.5675491100020894e-09
sVforceful
p378
F1.45678954551548e-07
sVrecheck
p379
F2.6365078293736503e-07
sVhonourable
p380
F3.4532166451180485e-08
sVseminal
p381
F0.0003128204663279036
sVdonkey
p382
F4.45198619069231e-10
sVmax
p383
F1.0379033292849668e-10
sVmodern
p384
F2.599309430967171e-10
sVdeprived
p385
F3.8262846906776675e-09
sVantagonistic
p386
F2.3774926004295005e-10
sVscrewy
p387
F1.353580599866253e-08
sVcorny
p388
F0.0
sVseen
p389
F0.0
sVunaffected
p390
F1.0749172819481994e-08
sVrelatively
p391
F6.8619836948945174e-09
sVquieter
p392
F5.4515585040153855e-08
sVimplemented
p393
F8.239086966792657e-09
sVgenuine
p394
F2.169626663178018e-07
sVacademic
p395
F2.3017107955482332e-08
sVconvenient
p396
F1.922432999819244e-06
sVlatter
p397
F3.6119208118445296e-08
sVresponsible
p398
F5.244244193167765e-09
sV-
p399
F0.0
sVisolated
p400
F5.019828079964108e-10
sVthorough
p401
F3.5626452424587867e-07
sVstupid-looking
p402
F3.403987487521037e-09
sVfitting
p403
F7.087756092869456e-07
sVamusing
p404
F7.908909740356952e-09
sVeffectiveness
p405
F5.653783557022752e-09
sVreversed
p406
F2.375536823966172e-08
sVpropitious
p407
F2.7461034817489986e-10
sVconducive
p408
F3.970152284395326e-09
sVhurtful
p409
F2.4347580765955178e-08
sVstarved
p410
F4.757075075301388e-09
sVthough
p411
F1.2212353202430178e-08
sVthrilled
p412
F8.092193802907879e-08
sVdoin
p413
F8.309427792565815e-10
sVprohibitive
p414
F4.713374703797999e-08
sVshorty
p415
F2.029965191423594e-09
sVregular
p416
F1.5164436594814067e-08
sVplenty
p417
F4.62664957234286e-07
sVwhar
p418
F3.2663404942636822e-09
sVgrave
p419
F4.4960476484298574e-05
sVdummy
p420
F1.5289452502799528e-09
sVhardto
p421
F2.655460672161366e-07
sVmedical
p422
F0.0
sVdeliberate
p423
F2.332360473428602e-07
sVtreaty
p424
F0.0
sVorderly
p425
F1.0684765852623023e-09
sVentertaining
p426
F8.496288041306149e-09
sVoutnumbered
p427
F1.06169157023451e-08
sVannoyed
p428
F1.15678806898797e-08
sVincomplete
p429
F9.281857539819962e-08
sVfussy
p430
F2.828523703672381e-07
sVsaying
p431
F7.270595916732227e-10
sVoverpriced
p432
F1.7992736320891858e-09
sVhunger
p433
F2.854245045180833e-08
sVrandom
p434
F5.025178414718685e-09
sVprecarious
p435
F2.8696632638470595e-07
sVdopey
p436
F4.45198619069231e-10
sVqueer
p437
F2.8738151891332915e-09
sVlethal
p438
F3.514494727857895e-07
sVsubtle
p439
F3.233865168229386e-08
sVjam-packed
p440
F2.697867264447412e-09
sVthirds
p441
F0.0
sVabreast
p442
F4.458119008452598e-10
sVtoast
p443
F1.9082504179767544e-09
sVapace
p444
F3.341161143558972e-07
sVrock-hard
p445
F6.678070866520015e-08
sVbusy
p446
F1.900282362413295e-08
sVre-appointed
p447
F1.1407704351635544e-10
sVreasonnable
p448
F3.435912316919889e-08
sVundignified
p449
F9.620727736077444e-09
sVelite
p450
F9.337688666528229e-10
sVfair-minded
p451
F0.0
sVappreciated
p452
F2.2815408703271088e-10
sVgutsy
p453
F0.0
sVdeepest
p454
F3.241255853404836e-06
sVrich
p455
F1.9247593536090918e-08
sVfolks
p456
F0.0
sVadequate
p457
F3.967549340034954e-07
sVwell-represented
p458
F0.0
sVdo
p459
F0.0
sVundecided
p460
F0.0
sVwide
p461
F6.5088193641539345e-06
sVrigght
p462
F2.4371059949592655e-08
sVscalable
p463
F1.0849826458327784e-09
sVpreferred
p464
F0.0
sVforemost
p465
F5.0227593353731056e-05
sVgeek
p466
F8.099771607959011e-10
sVsmug
p467
F6.155117731710846e-09
sVnathan
p468
F7.270595916732227e-10
sVnasty
p469
F6.305577528527724e-07
sVconsiderate
p470
F0.0
sVinfrequent
p471
F5.667235292136095e-07
sVintroduced
p472
F0.0
sVidiotic
p473
F1.825460066136521e-08
sVrepugnant
p474
F1.795738708591728e-08
sVpro-choice
p475
F2.6365078293736503e-07
sVmonumental
p476
F8.624853904880015e-07
sVautomatic
p477
F2.6365078293736503e-07
sVrequire
p478
F0.0
sVfarther
p479
F2.422588101778186e-06
sVethical
p480
F8.239086966792657e-09
sVabove-mentioned
p481
F1.8500205060734417e-12
sVerroneous
p482
F2.7330838456364583e-08
sVmandatory
p483
F0.0005480637394936192
sVfascinating
p484
F6.551944152536932e-08
sVclarified
p485
F2.813375092400607e-08
sVperipheral
p486
F1.5458680517032725e-07
sVdisorientated
p487
F6.446357933959816e-09
sVblameless
p488
F1.9949047285190774e-10
sVobserved
p489
F8.660378346259276e-08
sVopposite
p490
F4.142983039986834e-08
sVdemented
p491
F1.6592374001199164e-08
sVdecided
p492
F0.0
sVwell-documented
p493
F6.037671721459869e-10
sVhorrendous
p494
F1.695780659295844e-06
sVcorrupt
p495
F2.7451092444329486e-07
sVsporadic
p496
F1.308964873336013e-09
sVwell-educated
p497
F3.39057076822743e-11
sVoptimum
p498
F9.491195104947544e-08
sVbest
p499
F5.581187059504918e-06
sVsubject
p500
F4.33993058333111e-09
sVcruellest
p501
F3.4171620690713763e-10
sVinappropriate
p502
F3.309343138649707e-07
sVaway
p503
F1.220191031953131e-07
sVdynamite
p504
F7.479320971518297e-07
sVcarsick
p505
F3.5525353933684086e-08
sVunable
p506
F1.3046224318600236e-09
sVin-flight
p507
F8.436825053995683e-11
sVsimplest
p508
F4.457538798414746e-06
sVwhassup
p509
F6.934060945339512e-08
sVoccupational
p510
F4.018127277496346e-10
sVunconscionable
p511
F8.91657508352437e-08
sVco-
p512
F3.6269857588963224e-10
sVlazy
p513
F2.6365078293736503e-07
sVirate
p514
F1.7842165057174186e-08
sVcleverer
p515
F1.2119702362344308e-09
sVdumber
p516
F4.477082886616532e-09
sVweak
p517
F1.585147102445875e-07
sVhowever
p518
F3.4397471469571145e-08
sVinterdependent
p519
F9.758535034614328e-09
sVsoutheast
p520
F3.388072389554111e-10
sVhere
p521
F1.4896725216213401e-08
sVaccessed
p522
F5.67905210642484e-09
sVintelligent
p523
F3.004882459946639e-08
sVabolished
p524
F0.0
sVreceived
p525
F7.006160673010211e-10
sVessentially
p526
F5.6166605648799304e-09
sV-good
p527
F1.2389595281727528e-08
sVirregular
p528
F8.045983366008454e-12
sVsmartest
p529
F1.0021191166019745e-08
sVresistant
p530
F1.290811513973162e-08
sVill
p531
F7.36423008271152e-08
sViilegal
p532
F1.9854501938741127e-07
sVblack-hearted
p533
F0.0
sVdisastrous
p534
F4.531440914122926e-07
sVexport-ready
p535
F0.0
sVplanned
p536
F9.523204473751537e-10
sVlookin
p537
F5.081304388082178e-10
sVagile
p538
F0.0
sVrequests
p539
F9.846582910106895e-05
sVadapted
p540
F3.777287661098276e-09
sVasked
p541
F4.8983720778420065e-06
sVtough
p542
F4.303861703121655e-05
sVvain
p543
F6.006567202558577e-08
sVhardworking
p544
F5.032287999365344e-07
sV2nd
p545
F1.4623247193432157e-05
sVrepresented
p546
F0.0
sVunprotected
p547
F8.436825053995683e-11
sVwider
p548
F5.81503580808216e-05
sVloaded
p549
F1.6792516376663618e-09
sVbureaucratic
p550
F2.6365078293736503e-07
sVmultifocal
p551
F1.6034347964317807e-10
sVpoppycock
p552
F5.810295617351709e-09
sVchloe
p553
F0.0
sVthree
p554
F0.0
sVtiny
p555
F2.422670211588707e-07
sVquickly
p556
F1.0415345461425521e-06
sVconfident
p557
F9.053508328814546e-08
sVrecognised
p558
F1.8382816726429667e-09
sVdetrimental
p559
F3.594490586755568e-08
sVsubstandard
p560
F3.374690905097086e-08
sVinterest
p561
F1.2373747573334332e-08
sVbasic
p562
F0.00048582356849804814
sVflexible
p563
F8.033758653720765e-08
sVlovely
p564
F1.8575978432041967e-06
sVincompetent
p565
F7.490302803876173e-10
sVwell-deserved
p566
F1.0849826458327775e-09
sVbeloved
p567
F2.6365078293736503e-07
sVprosperous
p568
F2.4939514521364496e-09
sVeastern
p569
F8.812985618718003e-10
sVjeopardized
p570
F2.232474579902832e-12
sVuncommon
p571
F2.1026655985458623e-07
sVcoherent
p572
F6.256682898026805e-08
sVpersonally
p573
F1.8055364968516845e-09
sVimmersive
p574
F0.0
sVcomfortable
p575
F1.560379544350653e-07
sVpatronizing
p576
F0.0
sVgracious
p577
F9.613428075493395e-10
sVapplied
p578
F4.0024725691375236e-07
sVunpopular
p579
F4.329587189964346e-08
sVrighteous
p580
F2.1503173850973926e-08
sVpublicly
p581
F6.45019112468189e-10
sVinviolable
p582
F8.309427792565815e-10
sVprofessionally
p583
F9.337688666528229e-10
sVremaining
p584
F7.191179728459666e-09
sVlesser
p585
F4.5014866883860946e-06
sVugly
p586
F3.1276203920821493e-07
sVnear
p587
F1.5762328400914304e-09
sVover-the-air
p588
F1.2538423655267661e-08
sVneat
p589
F2.812399175365621e-07
sVlaunched
p590
F2.1028205140924737e-10
sVdelineated
p591
F0.0
sVreadyto
p592
F8.085385964270688e-07
sVpreponderant
p593
F3.7133872256288733e-06
sVwell-balanced
p594
F1.7223984628104753e-07
sVderisory
p595
F4.0376738318503403e-10
sVit
p596
F0.0
sVill-equipped
p597
F1.2873573385613527e-09
sVil
p598
F1.3547093797520267e-09
sVworld-wide
p599
F3.5803771020188885e-09
sVin
p600
F0.0
sVhappening
p601
F1.0379033292849668e-10
sVtrusted
p602
F3.1987475164388113e-09
sVgrown
p603
F0.0
sVdamaged
p604
F0.0
sVpatent
p605
F8.047509879327077e-09
sVbelle
p606
F2.2503650646829645e-08
sVrealizing
p607
F7.87987874513572e-10
sVrecurrent
p608
F1.1024657076035522e-08
sVprincipale
p609
F9.056395844516772e-05
sVlinked
p610
F0.0
sVcompensable
p611
F6.301083685032369e-09
sVcomplex
p612
F2.2736179953135447e-07
sVunfortunate
p613
F1.0501214611492646e-07
sVseveral
p614
F2.7541367360186864e-08
sVinfeasible
p615
F7.631728173293997e-10
sVtoasted
p616
F6.155117731710846e-09
sVeuropean
p617
F0.0
sVunharmed
p618
F4.5021026370342855e-09
sVindependent
p619
F1.3639656825544798e-08
sVemphasise
p620
F1.1807003625126854e-09
sVsocial
p621
F5.171353394959596e-07
sVdiffering
p622
F9.799021482791046e-09
sVevil
p623
F2.0030752519799037e-06
sVtiring
p624
F0.0
sV-lncredible
p625
F1.1362969641206538e-07
sVday
p626
F0.0
sVjealous
p627
F2.806891422002726e-08
sVpalpable
p628
F8.927440687284432e-08
sVovert
p629
F7.220791540249031e-08
sVcost-effectiveness
p630
F9.155879426063952e-09
sVkid
p631
F2.7368311546072652e-09
sVprescribed
p632
F0.0
sVridiculus
p633
F6.970520156152916e-09
sVshortly
p634
F1.3446644118627032e-07
sVimmaterial
p635
F1.951868425449319e-06
sVdre
p636
F0.0
sVrescinded
p637
F1.5686962749887858e-11
sVhumble
p638
F2.2029413850717786e-08
sV-so
p639
F4.970058289170155e-10
sVunsuitable
p640
F6.656894057955785e-09
sVhearty
p641
F3.60539331071985e-08
sVgreatest
p642
F0.00048099640050603575
sVincapable
p643
F7.490302803876173e-10
sVdreamy
p644
F1.3074106775626812e-07
sVtabling
p645
F3.046088453833754e-11
sVleft
p646
F1.0849826458327775e-09
sVunified
p647
F3.793451570328962e-10
sVstringent
p648
F3.75905286352566e-07
sVjust
p649
F1.2205944210722667e-06
sVkinky
p650
F2.6365078293736503e-07
sVephemeral
p651
F2.0053138851874815e-10
sVwarmest
p652
F2.6837024359205788e-09
sVsleepy
p653
F0.0
sVunfair
p654
F7.686112629686505e-08
sVidentify
p655
F1.721887556221458e-07
sVthanks
p656
F9.333909748447232e-10
sVhuman
p657
F2.72835479693323e-09
sVyes
p658
F1.8650552247986014e-06
sVyet
p659
F6.215792409052171e-05
sVfunctionally
p660
F5.081348671711904e-10
sVprevious
p661
F2.7283079306893303e-09
sVnote
p662
F6.877200272229337e-10
sVmonitored
p663
F3.442326654683952e-07
sVdearer
p664
F3.499606682291352e-09
sVcherry
p665
F7.912477808711431e-08
sVold-fashioned
p666
F5.273015658747301e-07
sVideal
p667
F3.4062673767641205e-07
sVtopical
p668
F1.374514377350083e-08
sVsynergistic
p669
F4.011916519760505e-09
sVinnocent
p670
F9.930468888090998e-10
sVtechnological
p671
F1.5350127510699584e-09
sVpitiful
p672
F1.6672192308762154e-08
sVeast
p673
F3.4225865273536308e-09
sVtolerable
p674
F2.463139850526265e-09
sVtrashed
p675
F5.481156180118387e-10
sVusable
p676
F2.9892342054512404e-07
sVinsensitive
p677
F2.426938016882644e-08
sVadversarial
p678
F1.716762256725132e-09
sVhypersensitive
p679
F3.674288191412075e-09
sVpossible
p680
F7.309172477426782e-08
sVfirmer
p681
F5.016242161293095e-06
sVpossibly
p682
F5.8322711320830196e-08
sVcultural
p683
F1.8150764473809726e-08
sVdiscreet
p684
F7.4980104551873e-09
sVindicative
p685
F2.6365078293736503e-07
sVcopacetic
p686
F9.117257411546058e-08
sVunique
p687
F3.0622082758490683e-07
sVunfounded
p688
F1.490842576189135e-07
sVadvanced
p689
F2.5209163184452356e-10
sVapart
p690
F2.9600924165647034e-08
sVpsychological
p691
F0.0
sVarticulated
p692
F0.0
sVintertwined
p693
F8.886406503619346e-10
sVpatience
p694
F8.239086966792657e-09
sVcooler
p695
F1.3104246997790548e-08
sVnude
p696
F1.2050321833873263e-08
sVgifted
p697
F1.6471230044651992e-09
sVdishonest
p698
F1.3980110358875517e-08
sVunnecessary
p699
F8.984579939830736e-05
sVspecific
p700
F1.6022432557456367e-06
sVinformative
p701
F5.663254123938748e-07
sVsparse
p702
F9.653479855119669e-08
sVarbitrary
p703
F2.6365078293736503e-07
sVnotorious
p704
F2.283617508655471e-09
sVsecurity
p705
F4.11724859875127e-09
sVbeneficial
p706
F7.272093421367586e-07
sVright
p707
F1.3660796321322523e-06
sVold
p708
F4.313528050016535e-10
sVmacabre
p709
F2.6365078293736503e-07
sVdrenched
p710
F2.1900049211340865e-08
sVeasy
p711
F8.957793113552315e-06
sViittle
p712
F4.901319909190127e-09
sVelderly
p713
F1.1020994845726076e-07
sVborn
p714
F0.0
sVsure
p715
F5.5502037570979846e-08
sVdear
p716
F0.0
sVmultiple
p717
F1.0730285589369214e-07
sVrepelling
p718
F0.0
sVpsychogenic
p719
F0.0
sVconfusing
p720
F1.1649123799851124e-07
sVco-funded
p721
F0.0
sVfor
p722
F0.0
sVricher
p723
F8.266964458883895e-09
sVstronger
p724
F0.0001526730461913578
sVphenomenal
p725
F3.684837829896179e-06
sVunavoidable
p726
F0.00031518717851902495
sVcreative
p727
F5.190624789079375e-07
sVwitty
p728
F6.751988782365809e-09
sVprejudicial
p729
F7.568132005727483e-08
sVasking
p730
F4.8983720778420065e-06
sVhonoured
p731
F1.0595533650710722e-07
sVswearing
p732
F1.2050321833873263e-08
sVadorable
p733
F7.955235336048965e-08
sVpalatable
p734
F1.1228687959572975e-09
sVbold
p735
F3.898830946172906e-08
sVunwholesome
p736
F9.030520197661379e-10
sVover-optimistic
p737
F4.4580941636670176e-09
sVexecutable
p738
F7.324660602695798e-09
sVconstructive
p739
F8.23262023183375e-09
sVsqueamish
p740
F2.4367416965792713e-08
sVfar-ranging
p741
F3.810076948250248e-08
sVinvaluable
p742
F0.004755258912416759
sVmemorable
p743
F2.6365078293736503e-07
sVsuper
p744
F2.4556065614957795e-07
sVpermitted
p745
F1.311726349508838e-10
sVimpenetrable
p746
F2.058624299375635e-09
sVanomalous
p747
F3.2148953507015376e-09
sVtrustworthy
p748
F6.647593474980544e-08
sVmisleading
p749
F1.3321969067641879e-08
sVensure
p750
F2.058624299375635e-09
sVdotty
p751
F3.7047579683898733e-09
sVcost-shared
p752
F3.6269857588963224e-10
sVill-founded
p753
F0.0
sVthinner
p754
F1.9591294224641007e-09
sVformerly
p755
F1.064782882014673e-13
sVrock-solid
p756
F1.450689570638574e-13
sVdelighted
p757
F1.5212758263227724e-07
sVobscene
p758
F2.9114252373802677e-08
sVdown
p759
F0.0
sVthankful
p760
F5.59236681796974e-09
sVoverkill
p761
F8.115965056220566e-10
sVproblematical
p762
F1.867616551390365e-08
sVformidable
p763
F4.497722359277719e-05
sVbalanced
p764
F1.647727650850432e-07
sVhonored
p765
F1.0595533650710722e-07
sVrefined
p766
F0.0
sVsimillar
p767
F8.911198994611711e-08
sVfrightened
p768
F1.3294644992813116e-07
sVunambiguous
p769
F1.709688242669112e-07
sVcleared
p770
F5.310402693853676e-10
sVfrazzled
p771
F0.0
sVbetter-looking
p772
F3.733266474957086e-09
sVindispensable
p773
F0.02473306623857838
sVinitial
p774
F2.169965291665555e-10
sVknowing
p775
F1.3754400544458675e-09
sVsovereign
p776
F2.6365078293736503e-07
sVtimelier
p777
F1.433087872290846e-07
sVabsolutely
p778
F0.000347582003881734
sVaccordingly
p779
F3.503728897695592e-05
sVvictorious
p780
F2.6365078293736503e-07
sVcounterproductive
p781
F3.438902426023262e-08
sVauthorized
p782
F2.038932589136792e-09
sVway
p783
F0.0
sVbrainless
p784
F7.802269641621163e-09
sVlaunching
p785
F2.6025941330037087e-10
sVhappy
p786
F1.2353151345237298e-07
sVlowest
p787
F2.418849860347961e-06
sVmedium
p788
F1.8754104050852553e-09
sVoverjoyed
p789
F4.6765825727952884e-08
sVafresh
p790
F1.450689570638574e-13
sVsome
p791
F8.724106347887115e-09
sVenvious
p792
F2.1122994478061724e-08
sVback
p793
F4.464949159805664e-12
sVheinous
p794
F6.962863610535249e-09
sVpayable
p795
F2.3555510536817283e-07
sVunderstandable
p796
F2.6662727953474735e-08
sVdead
p797
F1.3332843177176942e-06
sVroisin
p798
F0.0
sVsustained
p799
F1.6726063392082973e-09
sVremoved
p800
F0.0
sVtrue
p801
F3.6046639975780566e-07
sVunderfunded
p802
F4.003659525792412e-08
sVabsent
p803
F7.551217643725359e-09
sVhigh-quality
p804
F5.257876130755012e-10
sVbraver
p805
F2.2685842985207e-09
sVurgent
p806
F0.00992521875643455
sVinside
p807
F1.1887973067316446e-10
sVmaximum
p808
F3.1137099878549004e-10
sVruined
p809
F1.9082504179767544e-09
sVtouchy
p810
F3.674288191412075e-09
sVinsincere
p811
F8.645528566963635e-10
sVunanimous
p812
F4.640856747850018e-08
sVheartening
p813
F1.0336055594582283e-09
sVemotional
p814
F2.8580683908735203e-07
sVhorrifying
p815
F9.683570001839661e-08
sVpanicky
p816
F3.9456938375469755e-08
sVjuvenile
p817
F1.6459886496999353e-07
sVproud
p818
F3.013722268240678e-08
sVhotter
p819
F2.6912499302953635e-09
sVclassic
p820
F6.148872849953982e-07
sVsinful
p821
F3.550632648816182e-08
sVnovel
p822
F5.225066888405996e-10
sVwretched
p823
F7.179688405087138e-09
sVproven
p824
F5.374056540359799e-12
sVsale
p825
F0.0
sVscientific
p826
F1.4192838121353956e-09
sVacclaimed
p827
F1.121739446127744e-09
sVbelievable
p828
F2.7218689657634025e-08
sVmediocre
p829
F2.446662908347527e-08
sVannoying
p830
F1.678927428713946e-07
sVvice-chairperson
p831
F6.675186199947754e-09
sVinjurious
p832
F2.60240192617562e-08
sVshit
p833
F1.6004302996163827e-09
sVphysical
p834
F1.4187125322499993e-07
sVdiscriminate
p835
F2.6997840172786185e-09
sVfaithful
p836
F6.686835128129481e-08
sVdying
p837
F2.1235786314535264e-09
sVeerie
p838
F2.4125228609772437e-08
sVauthoritative
p839
F1.8332800217836074e-08
sVstir-crazy
p840
F1.5066507043405105e-08
sVgenerally
p841
F1.683598529886354e-08
sVhanded
p842
F0.0
sVreality
p843
F2.817492214940675e-09
sVanswerable
p844
F1.4075648469197748e-09
sVgeographically
p845
F5.380775623603091e-09
sVinterested
p846
F4.24696824936862e-08
sVstagnant
p847
F1.595365069763644e-08
sVcomplicit
p848
F4.1298452002242676e-10
sVambitious
p849
F8.790421360177193e-09
sVshort-term
p850
F4.059930382847188e-09
sVsuperfluous
p851
F5.083631488681492e-06
sVroll
p852
F0.0
sVunbalanced
p853
F0.0
sVtasteful
p854
F1.2523211046540445e-09
sVsavage
p855
F6.998016147955172e-10
sVformally
p856
F0.0
sVsnarky
p857
F1.6873650107991365e-10
sVpreceding
p858
F4.464949159805664e-12
sVwelcome
p859
F5.099990426855225e-08
sVconvincing
p860
F6.034131265937794e-09
sVpolite
p861
F4.464949159805664e-12
sVunwell
p862
F9.988442249461672e-09
sVinvested
p863
F7.886155159339288e-10
sVstress-related
p864
F2.9995388996019044e-08
sVvariable
p865
F2.6365078293736503e-07
sVdense
p866
F0.0
sVhurt
p867
F3.66887866351733e-08
sVdied
p868
F1.069102149016771e-08
sVyounger
p869
F4.2655037373485624e-07
sVallright
p870
F3.111688577457133e-08
sVopen-minded
p871
F8.585716308509672e-09
sVdaily
p872
F2.6365078293736503e-07
sVwell-designed
p873
F2.8230498406257492e-12
sVloyal
p874
F6.82556991163629e-08
sVgood-natured
p875
F2.2749137068036093e-08
sVwell-filled
p876
F2.8230498406257492e-12
sVtime
p877
F8.045983366008454e-12
sVmoreover
p878
F1.2212353202430178e-08
sVserious
p879
F4.878948578909214e-05
sVdebate
p880
F0.0
sVrestored
p881
F0.0
sVoverdue
p882
F1.2613477725294718e-09
sVionely
p883
F1.8930645456107924e-08
sVrehearse
p884
F2.5747146771227053e-10
sVmanaged
p885
F8.436825053995683e-11
sVregrettably
p886
F2.063313831715005e-10
sVremarkable
p887
F6.485631537805595e-06
sVglobal
p888
F3.655823929734842e-08
sVtask-oriented
p889
F4.898867487693449e-09
sVmild
p890
F1.465366211640084e-07
sVgrateful
p891
F4.53422135818512e-08
sVspaced
p892
F0.0
sVabundant
p893
F3.9914857379050634e-07
sVtenable
p894
F2.963913849523633e-08
sVseasick
p895
F5.599744966003018e-08
sVcertainly
p896
F7.8631440184177e-08
sVuneven
p897
F7.084185019573435e-07
sVyummy
p898
F1.087998694292078e-08
sVeverything
p899
F4.00902034281085e-08
sVuseable
p900
F1.2999271470254063e-07
sVdisgusting
p901
F2.3268181924105623e-07
sVenvironment
p902
F2.4329458514880213e-09
sVfinally
p903
F1.1904403339321412e-08
sVunpleasant
p904
F5.526327042347277e-08
sVpermanently
p905
F4.281713594605608e-11
sVknackered
p906
F7.491437758941072e-09
sVanalogous
p907
F3.29404904531984e-08
sVoverwrought
p908
F5.3677069853630815e-08
sVtenacious
p909
F9.150712627335461e-08
sVshoot
p910
F0.0
sVpursuant
p911
F2.980195639045069e-09
sVsloppy
p912
F1.4047680197301596e-08
sVvegas
p913
F2.6365078293736503e-07
sVsappy
p914
F4.771034752041634e-10
sVcentralized
p915
F6.769509110651847e-06
sVanonymous
p916
F2.8037340132857903e-07
sVadvised
p917
F0.0
sVlocked
p918
F8.94345411335858e-10
sVfullest
p919
F6.035654058868227e-08
sVfifty
p920
F3.147003926873962e-11
sVexact
p921
F1.1489582726603828e-06
sVfeeble
p922
F5.5061636562630674e-08
sVminute
p923
F3.455322726063579e-08
sVcool
p924
F3.990214717517922e-07
sVdim
p925
F8.89470003065251e-10
sVflammable
p926
F0.0
sVimpressive
p927
F2.0582588339699954e-06
sVlevel
p928
F0.0
sVfragile
p929
F1.0303612487242011e-07
sVregistered
p930
F0.0
sVcloudy
p931
F2.6365078293736503e-07
sVleave
p932
F0.0
sVdiscrete
p933
F7.260125062389289e-09
sVwarmth
p934
F8.38048376184438e-09
sVquick
p935
F6.017150113014892e-05
sVround
p936
F0.0
sVunaware
p937
F1.9064507530265222e-10
sVdistasteful
p938
F1.1228687959572975e-09
sVbrave
p939
F4.090232669117228e-08
sVslower
p940
F3.2266282887865813e-07
sVill-conceived
p941
F0.0
sVinsignificant
p942
F2.3855593192678183e-06
sVobsolete
p943
F2.373399537759203e-10
sVcomforting
p944
F7.987059980202476e-08
sVravenous
p945
F1.438210280997397e-08
sVhelpless
p946
F1.3933981955870778e-07
sVrough
p947
F7.138252590012806e-07
sVirritated
p948
F5.637883918424915e-09
sVstressful
p949
F1.519875150927703e-07
sVunder-age
p950
F8.918253333810363e-08
sVcelebrated
p951
F4.912858829737976e-08
sVrationalized
p952
F7.56535800396659e-09
sVuniform
p953
F2.1387165901194124e-08
sVcurrent
p954
F2.145025683423721e-06
sVsuspect
p955
F2.0075279338986128e-08
sVlong-standing
p956
F3.6500301317188166e-08
sVtime-consuming
p957
F1.3698257419337325e-07
sVunrestricted
p958
F4.3209163469439466e-09
sVcommensurate
p959
F3.930733201867331e-05
sVfreaky
p960
F6.371702064131581e-08
sVparadoxical
p961
F8.436825053995683e-11
sVhairy
p962
F2.5565061726089457e-07
sVunsure
p963
F6.2462511916668584e-09
sVtransparency
p964
F2.7311903996734598e-08
sVefficacious
p965
F1.1061078778182677e-07
sVassertive
p966
F0.0
sVfrench
p967
F3.286104956846506e-07
sVunderstanding
p968
F1.3713454378153376e-09
sVunanimously
p969
F3.3173744588308634e-08
sVcrippled
p970
F2.3313608430512494e-09
sValone
p971
F3.909394520925812e-08
sVdisappeared
p972
F1.8568826504173662e-13
sVenvironment-friendly
p973
F9.527129447988635e-09
sVmomentous
p974
F4.1001956194328703e-07
sVwait
p975
F3.3581604564564487e-09
sVboy
p976
F2.6365078293736503e-07
sVunidentified
p977
F4.165207708220735e-09
sVnoticeable
p978
F7.164531540958204e-07
sVbrilliant
p979
F3.0116419141963608e-06
sVspontaneous
p980
F4.326745228511848e-10
sVfunded
p981
F1.5686962749887858e-11
sVglobalization
p982
F3.5803771020188885e-09
sVburdensome
p983
F2.0573313343426713e-07
sVineffective
p984
F1.878796716940892e-07
sVusually
p985
F1.987992724046779e-09
sVpriceless
p986
F2.229956184717363e-06
sVweird
p987
F2.1275158405933656e-07
sVmuscovite
p988
F3.2663404942636822e-09
sVall-out
p989
F4.337811892353342e-09
sVgenuinely
p990
F7.707093188147383e-09
sVbreathtaking
p991
F1.578429628238905e-07
sVinsolent
p992
F1.2050321833873263e-08
sVconfidentiality
p993
F1.3731990922214896e-10
sVextra
p994
F5.439445578513403e-08
sVproblematic
p995
F3.6247966977483945e-07
sVmerely
p996
F2.4426427810415128e-08
sVhiv-positive
p997
F8.596066161030732e-10
sVmarked
p998
F0.0
sVmarvelous
p999
F1.3379472348903013e-06
sVflexibility
p1000
F1.5771385053952307e-09
sVself-sufficient
p1001
F1.0558781099424828e-10
sV1st
p1002
F2.117111883125751e-07
sVatrocious
p1003
F1.2699950727309753e-07
sVrarely
p1004
F5.449048650572427e-08
sVultra-hazardous
p1005
F1.0678559479788391e-07
sVsympathetic
p1006
F2.030085531075176e-09
sVvivid
p1007
F2.3637970943455638e-08
sVworking
p1008
F0.0
sVhomesick
p1009
F2.6365078293736503e-07
sVpositive
p1010
F9.765844445331891e-08
sVangry
p1011
F2.1618280698500014e-08
sVby
p1012
F0.0
sVlive
p1013
F1.3413283030340604e-08
sVopposed
p1014
F7.502757737597063e-09
sVcuter
p1015
F2.643331922146059e-08
sVtheoretical
p1016
F3.471944466664888e-08
sVtoday
p1017
F0.0
sVwicked
p1018
F3.368658774644485e-07
sVunwarranted
p1019
F3.556932857675604e-08
sVacceptable
p1020
F1.4407333396739297e-08
sVapparent
p1021
F2.398913308564167e-06
sVwell-lit
p1022
F0.0
sVstate-funded
p1023
F1.5686962749887858e-11
sVodious
p1024
F3.098304972368015e-08
sVvisual
p1025
F0.0
sVrigid
p1026
F2.0664309819297043e-08
sVfirst-hand
p1027
F4.1298452002242676e-10
sVeasiest
p1028
F6.489318350783439e-06
sVmid-sized
p1029
F0.0
sVvalued
p1030
F0.0
sVanything
p1031
F6.614847013140021e-08
sVpretend
p1032
F0.0
sVmodified
p1033
F5.273015658747302e-12
sVlongitude
p1034
F0.0
sVinstable
p1035
F1.3334806888904975e-08
sVhardest
p1036
F3.9962832814482566e-05
sVsour
p1037
F3.9629311875157896e-08
sVamiss
p1038
F3.011534021551964e-08
sVgrowing
p1039
F3.2376057636729854e-06
sVbatty
p1040
F1.13429214926035e-09
sVdeceased
p1041
F2.1308914647435342e-08
sVnearest
p1042
F2.380183980847389e-10
sVdedicated
p1043
F2.6365078293736503e-07
sVgrouchy
p1044
F0.0
sVsmall-time
p1045
F1.43131042561249e-09
sVgarbled
p1046
F0.0
sVexpanding
p1047
F1.965868018138263e-06
sVawesome
p1048
F5.521558491034414e-06
sVconfused
p1049
F6.516147959233123e-08
sVtopic
p1050
F4.33993058333111e-09
sVheard
p1051
F2.785607415553962e-07
sVbattered
p1052
F5.24901342895222e-09
sVdistinguishable
p1053
F5.753735963792549e-09
sVcraze
p1054
F1.3467703357231004e-08
sVill-treated
p1055
F2.471726090037797e-08
sVproductive
p1056
F3.371851228745554e-07
sVbankrupt
p1057
F6.289944584110657e-09
sVdiscussion
p1058
F0.0
sVdelirious
p1059
F1.1520538601404254e-08
sVinnumerable
p1060
F1.3811916946782237e-09
sVvital
p1061
F0.021125945776011217
sVcardinal
p1062
F0.00031096377271508916
sVactual
p1063
F6.2712978698023575e-09
sVfourth
p1064
F6.543723726146191e-06
sVoptimal
p1065
F1.950905330166127e-07
sVallowable
p1066
F1.0139226744240564e-09
sVpathway
p1067
F0.0
sVunbelievable
p1068
F3.5107988842673367e-07
sVparamount
p1069
F0.001567960836040041
sVirrational
p1070
F2.803004626230229e-10
sVinformation
p1071
F0.0
sVimpartial
p1072
F2.556671076665429e-09
sVbroadest
p1073
F1.8980354856289685e-06
sVpraiseworthy
p1074
F3.9436745389847595e-08
sVdesigned
p1075
F0.0
sVimproving
p1076
F2.2752991044955834e-09
sVdrastic
p1077
F7.443519535518672e-08
sVsuck
p1078
F4.234305643257572e-09
sVdestructive
p1079
F2.6365078293736503e-07
sVguys
p1080
F0.0
sVnon-toxic
p1081
F2.085518888469391e-08
sVegotistical
p1082
F8.436825053995683e-11
sVdisagreeable
p1083
F4.035580030467556e-08
sVcosteffective
p1084
F2.5504233311431118e-08
sVnatural
p1085
F6.871928284212963e-08
sVliquid
p1086
F0.0
sVconscious
p1087
F5.034211291833604e-09
sVlong-range
p1088
F0.0
sVslightly
p1089
F8.121027419320128e-08
sVexplicit
p1090
F3.445739481943888e-08
sVnosey
p1091
F3.1954654167827776e-09
sVfluent
p1092
F8.197323446339892e-08
sVrather
p1093
F6.472708116185254e-08
sVthorny
p1094
F5.080833303899439e-09
sVso
p1095
F8.156246545819037e-08
sVafrican
p1096
F3.811931948222746e-09
sVtall
p1097
F4.872803749518785e-07
sVlabour-intensive
p1098
F1.3469263298747117e-09
sVdrunken
p1099
F1.9318406061786297e-08
sVcute
p1100
F2.0792145635974412e-07
sVinnocuous
p1101
F6.3623363157562106e-09
sVnoteworthy
p1102
F4.251000857430141e-06
sVshaky
p1103
F2.8088212432434706e-08
sVmainly
p1104
F1.8566936128144366e-06
sVunacceptable
p1105
F4.3893396603107524e-08
sVcharacteristic
p1106
F6.446000486978099e-09
sVcourse
p1107
F1.2428639337188139e-08
sVcold
p1108
F1.16871091522869e-07
sVstill
p1109
F6.097672982899522e-05
sVlovelier
p1110
F2.852694969345321e-08
sVsacrosanct
p1111
F6.998016147955172e-10
sVconstituted
p1112
F0.0
sVthank
p1113
F7.270595916732227e-10
sVlackluster
p1114
F2.6034100130764336e-09
sVcleanest
p1115
F5.769996932325921e-08
sVamazing
p1116
F8.79549051556854e-07
sVunprejudiced
p1117
F1.4812245158299692e-10
sVbad-looking
p1118
F5.400410890768528e-08
sVconsequential
p1119
F7.501895631034073e-09
sVcoordinated
p1120
F8.436825053995683e-11
sVextirpated
p1121
F3.7137653008347323e-13
sVmain
p1122
F0.00025104984871723965
sVhappened
p1123
F1.0379033292849668e-10
sVnouveau
p1124
F2.6365078293736525e-12
sVnon
p1125
F6.106176601215089e-09
sVlonely
p1126
F4.607266210264343e-08
sVdisparate
p1127
F1.447647628239765e-08
sVsmarter
p1128
F1.860068043590766e-07
sVexecutory
p1129
F9.920511027891488e-08
sVsooner
p1130
F1.669828479046928e-05
sVmoron
p1131
F4.45198619069231e-10
sVqualified
p1132
F7.238201706406849e-08
sVwell-suited
p1133
F0.0
sVunimpressive
p1134
F4.469938230990721e-09
sVwealthy
p1135
F1.5137972645758437e-09
sVthus
p1136
F3.5037338532664605e-05
sVnow
p1137
F4.551932074102785e-09
sVprovision
p1138
F3.227848087837558e-10
sVordinary
p1139
F2.8465798120573512e-08
sVmatched
p1140
F0.0
sVterm
p1141
F0.0
sVfirst-rate
p1142
F3.849124054198973e-07
sVbetter-quality
p1143
F8.929898319611327e-12
sVrespectable
p1144
F2.429435173961224e-08
sVscarcer
p1145
F3.408313090765707e-08
sVtruthful
p1146
F2.5386438244149187e-08
sVunexceptable
p1147
F7.503302955361465e-09
sVrealistic
p1148
F1.236367236923197e-07
sVwealthier
p1149
F1.3060682797670324e-09
sVrock
p1150
F0.0
sVentirely
p1151
F7.796924080581329e-09
sVweighted
p1152
F0.0
sVunproductive
p1153
F1.3825692920703036e-08
sVunachievable
p1154
F6.936648452457213e-10
sVchallenged
p1155
F0.0
sVkane
p1156
F2.6365078293736503e-07
sVabnormal
p1157
F8.063773603430742e-09
sVyeah
p1158
F2.304936522777929e-08
sVtopnotch
p1159
F0.0
sVchallenges
p1160
F1.0161666607798879e-08
sVyear
p1161
F0.0
sVa-okay
p1162
F2.4096130273229742e-08
sVubiquitous
p1163
F9.642639390289672e-08
sVgirl
p1164
F7.068659631836714e-10
sVworried
p1165
F6.897525771462686e-08
sVsmall-scale
p1166
F1.347568615709455e-07
sVgiddy
p1167
F2.927337117970874e-09
sVliving
p1168
F1.7080985551691452e-08
sVdrier
p1169
F2.024838012958964e-09
sVopened
p1170
F6.742034170137269e-09
sV3rd
p1171
F1.8566936128144366e-06
sVfurthermore
p1172
F3.053088300607544e-08
sVenvironmentally-friendly
p1173
F3.7528180590799943e-08
sVlooking
p1174
F0.0
sVseriously
p1175
F2.931804465995788e-06
sVnominal
p1176
F4.441085570983203e-08
sVimperative
p1177
F0.020928240443551942
sVrational
p1178
F3.933211840724134e-08
sVenduring
p1179
F1.6726063392082973e-09
sVviable
p1180
F1.9296118198765846e-06
sVtangible
p1181
F1.0801263684509433e-07
sVtechnology-neutral
p1182
F2.1355713417926565e-10
sVadvantaged
p1183
F0.0
sVdisrespect
p1184
F0.0
sVcomplicated
p1185
F1.4663934383357103e-06
sVemblematic
p1186
F5.4927246445284375e-09
sVwell-controlled
p1187
F1.649386743256968e-08
sVracked
p1188
F6.544834784789113e-10
sVominous
p1189
F2.3626225159650657e-08
sVmarine
p1190
F6.106176601215089e-09
sVinevitable
p1191
F0.0007567910966743504
sVrepayable
p1192
F3.3905707682274324e-11
sVirresponsible
p1193
F4.790733721043491e-08
sVgood-iooking
p1194
F2.3464444486697588e-08
sVwrong
p1195
F2.602520370694863e-06
sVhonest
p1196
F2.887984583551837e-08
sVbest-known
p1197
F9.081774542096038e-10
sVindustrialised
p1198
F0.0
sVundesirable
p1199
F4.350076673095697e-08
sVbothersome
p1200
F1.566215063902643e-08
sVmisused
p1201
F9.644686052104612e-09
sVfrequent
p1202
F6.433320399123416e-07
sVfirst
p1203
F5.846450732843712e-06
sVblind
p1204
F3.1345458989036374e-08
sVconstantly
p1205
F4.768103956684927e-09
sVstriking
p1206
F3.7855127112139725e-07
sVincongruous
p1207
F6.790413433437904e-09
sVsymbolic
p1208
F8.239086966792657e-09
sVyourself
p1209
F0.0
sVbetter-iooking
p1210
F4.750602183599849e-08
sVtemporarily
p1211
F0.0
sVsimplified
p1212
F3.062738518929254e-06
sVspecifically
p1213
F2.0777387382721713e-06
sVdirectly
p1214
F7.864393768652986e-09
sVimpossible
p1215
F2.8119886305886616e-08
sVunattainable
p1216
F7.631728173293997e-10
sVopen
p1217
F7.276922688801257e-08
sVcheesy
p1218
F1.2093655365490022e-08
sVgiven
p1219
F0.0
sVnecessarily
p1220
F6.219263820913471e-05
sVco-funding
p1221
F0.0
sVsilent
p1222
F1.1239436250901228e-08
sVcategorical
p1223
F8.596066161030732e-10
sVstructured
p1224
F2.5747146771227053e-10
sVcallous
p1225
F1.9829150644444938e-07
sVcompulsory
p1226
F0.00020907621961359656
sVpsychotic
p1227
F2.6528458851855845e-08
sVcost-effectively
p1228
F4.27932956924974e-08
sVcrystal-clear
p1229
F2.1941444745555826e-08
sVtragic
p1230
F2.0562230920625847e-07
sVterrifying
p1231
F1.406735131819009e-07
sVcost-effective
p1232
F1.2371005756184705e-07
sVwhite
p1233
F1.807216243597444e-09
sVspeaking
p1234
F0.0
sVokey-dokey
p1235
F1.345947958088338e-09
sVscience-based
p1236
F1.4192838121353956e-09
sVinefficient
p1237
F2.6132212090663978e-08
sVmostly
p1238
F6.122058221918728e-06
sVthat
p1239
F1.2479175233239435e-09
sVcontinuous
p1240
F7.909135040263613e-08
sVhuh
p1241
F4.955570868642681e-11
sVreleased
p1242
F1.6034347964317807e-10
sVridiculous
p1243
F1.082174186407218e-07
sVlengthier
p1244
F3.810076948250248e-08
sVdistributed
p1245
F0.0
sVoccurring
p1246
F0.0
sVthan
p1247
F0.0
sVspecify
p1248
F1.721887556221458e-07
sV10
p1249
F1.1160821376123932e-10
sVrugged
p1250
F6.092506651817591e-07
sVunfortunately
p1251
F1.4812245158299692e-10
sVself-employed
p1252
F5.498693600714557e-09
sVdepressed
p1253
F2.025117432843748e-08
sVscrumptious
p1254
F1.717921382006295e-08
sVgotta
p1255
F2.1181218710630318e-05
sVprotected
p1256
F8.436825053995683e-11
sVall-inclusive
p1257
F2.4975985765931637e-08
sVaesthetic
p1258
F8.239086966792657e-09
sVindividualized
p1259
F0.0
sVgigantic
p1260
F1.0077430504925969e-06
sVmeticulous
p1261
F1.5115313215830547e-08
sVproactive
p1262
F3.794691362453029e-08
sVquestionable
p1263
F3.2422537693958907e-08
sVtroublesome
p1264
F3.610932468129474e-08
sVcontentious
p1265
F1.4064596856652119e-08
sVarmored
p1266
F0.0
sVnicer
p1267
F3.9720999349996037e-07
sVsal
p1268
F2.6365078293736503e-07
sVpro
p1269
F9.337688666528229e-10
sVpremier
p1270
F1.8566936128144366e-06
sVturned
p1271
F3.2663404942636822e-09
sVsad
p1272
F5.2574566881025994e-08
sVprestigious
p1273
F8.239086966792657e-09
sVsay
p1274
F7.270595916732227e-10
sVduty-bound
p1275
F0.0
sVinsatiable
p1276
F4.757075075301388e-09
sVoccupied
p1277
F4.186633995511119e-09
sVany
p1278
F0.0
sVdeserted
p1279
F8.239086966792657e-09
sVsquat
p1280
F2.3228572275199676e-09
sVabysmal
p1281
F4.202811963691912e-09
sVcheerful
p1282
F9.38820087728708e-10
sVefficient
p1283
F3.376476568758656e-07
sVshocked
p1284
F6.284042219651417e-08
sVterrific
p1285
F5.0889915990925735e-06
sVendangered
p1286
F3.5747167423734734e-07
sVfiine
p1287
F9.205577554589016e-08
sVpotential
p1288
F5.173271330163687e-09
sVobjective
p1289
F1.0849826458327775e-09
sVresponsibility
p1290
F1.7594560586497185e-10
sVpersonalized
p1291
F0.0
sVblunt
p1292
F2.4896369963256782e-08
sVswitching
p1293
F0.0
sVflattered
p1294
F2.6365078293736503e-07
sVbegin
p1295
F0.0
sVcommonplace
p1296
F6.667956589803197e-07
sVprick
p1297
F2.225993095346155e-10
sVnormal
p1298
F3.85536369000876e-08
sVclearer
p1299
F1.3332472332331678e-06
sVpaid
p1300
F3.951711468701069e-08
sVn'tunderstand
p1301
F2.9136818922226572e-09
sVimportantly
p1302
F0.0
sVpurty
p1303
F6.858710098837396e-08
sVamerica
p1304
F8.436825053995683e-11
sVcreditable
p1305
F0.0
sVconspicuous
p1306
F1.4256740836352015e-06
sVforever
p1307
F2.6365078293736503e-07
sVviewable
p1308
F7.327392884594277e-09
sVespecially
p1309
F6.996527095480219e-06
sVsurprising
p1310
F1.6968002974198712e-07
sVconsidered
p1311
F0.0
sVinternational
p1312
F2.8176464785540524e-09
sVaverage
p1313
F0.0
sVlater
p1314
F7.086127613048634e-08
sVsteady
p1315
F1.2228864393141926e-07
sVhungry
p1316
F8.272546788736317e-08
sVawareness-raising
p1317
F1.9064507530265222e-10
sVsubsequent
p1318
F6.019985812050514e-11
sVjittery
p1319
F5.3677069853630815e-08
sVprofessional
p1320
F1.737394322152092e-09
sVsenior
p1321
F4.6441626495976284e-05
sVgender-neutral
p1322
F2.1355713417926565e-10
sVtypically
p1323
F1.8316580342068366e-08
sVprecise
p1324
F2.307458187142844e-05
sVmonstrous
p1325
F3.788274764185394e-09
sVshot
p1326
F6.544834784789113e-10
sVmuchfor
p1327
F0.0
sVcheap
p1328
F8.432226756716001e-08
sVcontemporary
p1329
F1.9973108497621193e-10
sVright-handed
p1330
F0.0
sVbright
p1331
F1.6447705138703998e-07
sVheart-warming
p1332
F6.676859152772155e-09
sVinconsistent
p1333
F7.69193362685944e-08
sVsouthwestern
p1334
F3.2188505159890423e-09
sVscarce
p1335
F3.9395949496734586e-07
sVaggressive
p1336
F3.7015876487526044e-08
sVmultifaceted
p1337
F5.932387654049215e-08
sVslow
p1338
F2.4886536814790348e-08
sVpunchy
p1339
F2.225993095346155e-10
sVenough
p1340
F1.511479712171095e-07
sVself-supporting
p1341
F1.4282119882994361e-09
sVonly
p1342
F3.505091031412036e-08
sVgoing
p1343
F1.187299758633265e-06
sVblack
p1344
F2.9308050613621074e-08
sVequipped
p1345
F1.2873573385613527e-09
sVuppermost
p1346
F2.5985612399425504e-06
sVdemand-driven
p1347
F4.8983720778420065e-06
sVdispute
p1348
F0.0
sVgroovy
p1349
F1.9942263505966458e-08
sVdissimilar
p1350
F8.01820506992038e-08
sVget
p1351
F0.0
sVroutine
p1352
F8.151649412842195e-08
sVfreezing
p1353
F1.139892769221622e-08
sVtruly
p1354
F2.0904326232674522e-09
sVsimplistic
p1355
F7.341230397099855e-07
sVunimportant
p1356
F1.987218725968279e-06
sVinfallible
p1357
F4.957693940271588e-09
sVetcetera
p1358
F0.0
sVlighter
p1359
F8.561923983184858e-07
sVhumbled
p1360
F8.290035071595612e-09
sVthought-out
p1361
F0.0
sVunethical
p1362
F8.229786694682597e-08
sVclearest
p1363
F3.316421578782463e-07
sVsecondary
p1364
F1.1377007352978062e-05
sVprime
p1365
F4.228725475859912e-06
sVdisabled
p1366
F1.8042283895984713e-08
sVundemanding
p1367
F2.231646010826858e-09
sViovely
p1368
F4.242952897676506e-08
sVseldom
p1369
F6.958868808095811e-08
sVimpolite
p1370
F1.2050321833873263e-08
sVail
p1371
F0.0
sVnaked
p1372
F2.6365078293736503e-07
sVstupid
p1373
F5.622290509707657e-08
sVliable
p1374
F4.538811677591124e-09
sVunappy
p1375
F8.461651171800221e-09
sVworrying
p1376
F4.3511132964554614e-08
sVstaff
p1377
F3.825394850085268e-08
sVdeclared
p1378
F0.0
sVphysically
p1379
F1.4187125322499993e-07
sVviolated
p1380
F2.232474579902832e-12
sVpitch-black
p1381
F2.9308050613621074e-08
sVuneconomical
p1382
F2.7455784202981164e-08
sVblurred
p1383
F1.9118496496222055e-08
sVrelative
p1384
F1.9890927005552373e-08
sVelected
p1385
F1.6063449855885167e-08
sVactively
p1386
F1.4626973268225927e-08
sVasleep
p1387
F1.0962312360236774e-09
sVculpable
p1388
F4.843029598754583e-10
sVunaltered
p1389
F3.7088580514009914e-09
sVaroused
p1390
F6.41234534656254e-08
sVunderpaid
p1391
F8.856046443797178e-09
sVencouraged
p1392
F2.0672111189164566e-09
sVharmonised
p1393
F2.6365078293736503e-07
sVsatisfying
p1394
F1.3073540412932366e-08
sVvoluntary
p1395
F4.5721079396410054e-09
sVsteadfast
p1396
F1.3427819607159284e-07
sVlimber
p1397
F1.5771385053952307e-09
sVunabated
p1398
F7.690890928150571e-08
sValarming
p1399
F3.0481745797022493e-07
sVfascinated
p1400
F0.0
sVdefinite
p1401
F6.061372520762434e-07
sVteeny
p1402
F6.609967885882409e-09
sVnorth-west
p1403
F0.0
sVoutside
p1404
F2.6997840172786163e-14
sVlaborious
p1405
F4.270720991914037e-08
sVbetween
p1406
F0.0
sVsimplifying
p1407
F5.841651573486799e-09
sVjustified
p1408
F3.126241493404657e-08
sVaffordable
p1409
F3.860674957776756e-08
sVoverly-high
p1410
F6.155117731710846e-09
sVlast-minute
p1411
F1.04567590076917e-09
sVuseful
p1412
F2.5193037567360468e-05
sVfearless
p1413
F1.29957443744238e-08
sVself-serving
p1414
F3.944988648846806e-09
sVgood-looking
p1415
F1.0834687875983235e-07
sVs-sorry
p1416
F3.821933765318595e-09
sVfree-standing
p1417
F1.3226241773051878e-09
sVall-embracing
p1418
F2.0671714399501435e-08
sVwell-protected
p1419
F8.436825053995683e-11
sVcome
p1420
F0.0
sVgrieved
p1421
F1.6506602745442541e-09
sVconcentrated
p1422
F9.004237782050872e-08
sVdiscernible
p1423
F3.10361909046198e-08
sVuntapped
p1424
F0.0
sVtalented
p1425
F5.06209503239741e-10
sVmany
p1426
F1.6387630130729938e-07
sVquiet
p1427
F1.2136623524629093e-07
sVuneconomic
p1428
F1.4003250504557792e-08
sVunforeseen
p1429
F1.5206130937095435e-08
sVsketchy
p1430
F5.193696789711642e-08
sVtraded
p1431
F0.0
sVstupide
p1432
F1.5581951667423082e-09
sVnearby
p1433
F0.0
sVyearly
p1434
F3.147003926873962e-11
sVmadness
p1435
F1.661885558513163e-09
sVafterwards
p1436
F2.174973949735878e-08
sVterse
p1437
F3.2698544759327345e-08
sVeffective
p1438
F1.8784810885570582e-07
sVinexplicable
p1439
F1.3347320886204116e-11
sV15-year-old
p1440
F3.147003926873962e-11
sVmaintained
p1441
F4.725272057975325e-10
sVstrengthening
p1442
F5.389288264203701e-07
sVadditionally
p1443
F6.106176601215089e-09
sVliberal
p1444
F0.0
sVbizarre
p1445
F6.755342679952988e-08
sVactually
p1446
F1.574374298572595e-08
sVlaudable
p1447
F5.330381605542414e-08
sVbutthead
p1448
F4.45198619069231e-10
sVsensible
p1449
F6.175333769022422e-07
sVunusual
p1450
F3.5224350352769436e-07
sVcapable
p1451
F5.046282607968707e-09
sVwest
p1452
F0.0
sVinclusive
p1453
F1.041042227210422e-08
sVinformed
p1454
F8.507439805836043e-10
sValmighty
p1455
F4.938809514067123e-08
sVdependable
p1456
F9.886042068921673e-09
sVeco-friendly
p1457
F1.6423864540057714e-08
sVpeaceful
p1458
F7.402441503201231e-08
sVcompensatory
p1459
F1.7826927115131777e-10
sVbrisk
p1460
F1.0438159451004853e-09
sVbullshit
p1461
F8.584738322735405e-09
sVmarty
p1462
F0.0
sVeducated
p1463
F3.39057076822743e-11
sVfucked-up
p1464
F6.232246181925614e-09
sVformed
p1465
F0.0
sVreaching
p1466
F0.0
sVth-that
p1467
F4.8210428879975314e-14
sVdramatic
p1468
F5.2227557258351605e-06
sVsuspected
p1469
F9.121915612091931e-09
sVextant
p1470
F2.1460448491080848e-07
sVsticky
p1471
F0.0
sVirrelevant
p1472
F3.378844713292667e-07
sVformer
p1473
F0.0
sVcountless
p1474
F1.3811916946782237e-09
sVcase
p1475
F0.0
sVspecialised
p1476
F6.604404343493829e-09
sVmyself
p1477
F2.063313831715005e-10
sVdeveloping
p1478
F5.6460996812514984e-12
sVthese
p1479
F6.691969770923871e-07
sVwealthiest
p1480
F3.3548975300366726e-10
sVsingle
p1481
F1.3997755054455152e-07
sVpremature
p1482
F1.4790347805161698e-07
sVfiercer
p1483
F2.632980514757621e-09
sVhandicapped
p1484
F7.060771715808638e-09
sVdorky
p1485
F5.399465254300428e-09
sVmightier
p1486
F9.471290665202133e-08
sVslippery
p1487
F3.4446610557784055e-07
sVpromising
p1488
F9.903237921791596e-09
sVcancelled
p1489
F2.3771055202411608e-08
sViil
p1490
F2.7094187595040533e-09
sVimplacable
p1491
F1.1437502009626546e-09
sVunsatisfactory
p1492
F1.6082291349558806e-07
sVeventually
p1493
F5.769996932325921e-08
sVsincere
p1494
F6.61569830904104e-09
sVfuzzy
p1495
F2.975133508415776e-07
sVengaged
p1496
F6.260823824275053e-09
sVdubious
p1497
F6.54395906704225e-09
sVsleeping
p1498
F0.0
sVmiddle
p1499
F1.8754104050852553e-09
sVone-sidedly
p1500
F1.521052043381542e-08
sVsudden
p1501
F4.4533599125865676e-08
sVironic
p1502
F4.545966969806351e-07
sVgrievous
p1503
F2.525483575558894e-06
sVobnoxious
p1504
F3.717907695820491e-08
sVfastest
p1505
F5.674924359223514e-07
sVkosher
p1506
F5.7974348920448976e-09
sVdifferent
p1507
F2.1689657942136316e-06
sVingrained
p1508
F0.0
sVharsh
p1509
F9.79856594982644e-07
sVdoctor
p1510
F0.0
sVsmoother
p1511
F4.6844960662230675e-06
sVgranted
p1512
F1.450689570638574e-13
sVscientifically
p1513
F1.4192838121353956e-09
sVimmense
p1514
F9.334295320066174e-06
sVsame
p1515
F3.526854750218586e-08
sVwreckable
p1516
F5.990856358092289e-09
sVconstructed
p1517
F0.0
sVinoffensive
p1518
F1.2724672631512421e-08
sVmoronic
p1519
F2.3405417559020094e-09
sVnoble
p1520
F9.390027762218819e-09
sVeven-handed
p1521
F4.6124971599277995e-07
sVclosest
p1522
F1.0517722989783801e-07
sVrefusal
p1523
F5.080833303899439e-09
sVdisadvantaged
p1524
F1.9440760729001005e-08
sVbulletproof
p1525
F0.0
sVrunning
p1526
F8.436825053995683e-11
sVdelicate
p1527
F6.066574937392922e-08
sVunqualified
p1528
F1.5350127510699584e-09
sVchanging
p1529
F5.73140577602879e-09
sVcheery
p1530
F1.9466560233656366e-09
sVdiscernable
p1531
F1.408070182289715e-09
sVdisputable
p1532
F0.0
sVpurer
p1533
F3.3998266329765022e-09
sVthreaded
p1534
F0.0
sVrebatable
p1535
F3.3905707682274324e-11
sVoversensitive
p1536
F3.674288191412075e-09
sVno
p1537
F4.1292706059126185e-08
sVcustomized
p1538
F0.0
sVknow
p1539
F1.5660851297485197e-09
sVsubstantive
p1540
F7.96331891607103e-06
sVsevere
p1541
F0.00010631712177987962
sVimmeasurable
p1542
F5.113573508907914e-07
sVluminous
p1543
F1.0021191166019745e-08
sVgrumpy
p1544
F0.0
sVunconvincing
p1545
F4.153984560624241e-09
sVuncomplicated
p1546
F2.2821191467691976e-07
sVamazed
p1547
F8.093882961463654e-09
sVcharged
p1548
F0.0
sVdesolate
p1549
F2.063313831715005e-10
sVmanifold
p1550
F1.8433412624000443e-08
sVpre-published
p1551
F4.1912117940759463e-10
sVbeing
p1552
F1.8022651071251627e-09
sVknowledgeable
p1553
F1.1436693636955932e-08
sVinter-linked
p1554
F6.126640204130207e-08
sVvaluable
p1555
F3.863071454211448e-05
sVunofficial
p1556
F8.239086966792657e-09
sVviolent
p1557
F6.727896095610856e-08
sVunclear
p1558
F2.0190542911294337e-07
sVnon-binding
p1559
F1.7826927115131777e-10
sVflaccid
p1560
F2.987806292442826e-09
sVimpractical
p1561
F3.2086065874446137e-07
sVinaudible
p1562
F0.0
sVperilous
p1563
F1.086339904552483e-06
sVblow
p1564
F0.0
sVbi-directional
p1565
F0.0
sVclueless
p1566
F2.9136818922226572e-09
sVwidest
p1567
F1.693417797454447e-05
sVvice-chair
p1568
F1.2396774371331544e-08
sVforward-looking
p1569
F2.169965291665555e-09
sVlifelong
p1570
F4.281713594605608e-11
sVsenseless
p1571
F4.986515726754231e-08
sVimprovement
p1572
F5.515926740157928e-10
sVcomplements
p1573
F6.820425377929874e-09
sVextensive
p1574
F1.490354554068689e-05
sVheavier
p1575
F1.6568184652110807e-06
sVjoyful
p1576
F0.0
sVdisproportionate
p1577
F5.262817114045139e-07
sVscheduled
p1578
F0.0
sVaround
p1579
F2.8988241292273422e-08
sVspectacular
p1580
F5.994213328193134e-07
sVoutermost
p1581
F2.0412176320085983e-08
sVover-ambitious
p1582
F8.243529013950563e-10
sVgonna
p1583
F2.3559327522145417e-05
sVdark
p1584
F1.59891742905284e-06
sVawol
p1585
F3.7137653008347323e-13
sVcompassionate
p1586
F0.0
sVtraffic
p1587
F0.0
sVdarn
p1588
F0.0
sVaccepted
p1589
F2.703569435037697e-09
sVdisappointed
p1590
F2.633897828666993e-08
sVvague
p1591
F6.959492927074068e-08
sVsensational
p1592
F3.542778081460683e-07
sVacute
p1593
F0.00011976858614845152
sVacquainted
p1594
F0.0
sVstranger
p1595
F2.4288479226501424e-08
sVaction-oriented
p1596
F4.898867487693449e-09
sVnosy
p1597
F3.1954654167827776e-09
sVcollective
p1598
F9.611351056675898e-10
sVindisputable
p1599
F0.00013293611083853171
sVtardy
p1600
F6.971172671794467e-10
sVwrongful
p1601
F1.0849826458327775e-09
sVaudience
p1602
F4.831282884269339e-10
sVwell-prepared
p1603
F1.0141813506975486e-06
sVeither
p1604
F1.9051496890145302e-08
sVresolved
p1605
F8.239086966792657e-09
sVserved
p1606
F0.0
sVdirtier
p1607
F0.0
sVpassionate
p1608
F4.666407127401334e-08
sVwell-received
p1609
F2.409626760752385e-08
sVtwelve
p1610
F3.147003926873962e-11
sVsatisfactory
p1611
F1.76666970284244e-07
sVexposed
p1612
F8.239086966792657e-09
sVpushy
p1613
F2.1982433436874455e-08
sVoverworked
p1614
F1.644346854035516e-09
sVsupplementary
p1615
F8.026628070289499e-09
sVcalculated
p1616
F0.0
sVdemeaning
p1617
F2.8885769293767816e-09
sV-me
p1618
F4.096282359988671e-14
sVintact
p1619
F6.5465060315868714e-09
sVextinct
p1620
F3.7137653008347323e-13
sVbooming
p1621
F3.475768465847757e-10
sVprovided
p1622
F2.0024868651353914e-09
sVperverse
p1623
F6.510112970814882e-09
sVthanan
p1624
F0.0
sVunlocked
p1625
F6.5816906904940905e-09
sVriveting
p1626
F1.867971194266399e-08
sVfreer
p1627
F3.2264496364294958e-09
sVdefenceless
p1628
F2.005456124358807e-09
sVslick
p1629
F3.10721681331506e-08
sVlegal
p1630
F2.4901880664016697e-08
sVconservative
p1631
F7.424960888708274e-08
sVnutty
p1632
F1.659000891939516e-08
sVtailor-made
p1633
F9.799021482791046e-09
sVcritical
p1634
F0.01542604606715948
sVmoot
p1635
F1.2083906935275288e-07
sVclear-cut
p1636
F5.8195739573974916e-08
sVrefundable
p1637
F3.3905707682274324e-11
sVdeceptive
p1638
F2.1561056034434538e-08
sVmoderate
p1639
F1.2403356201811794e-07
sVwell-planned
p1640
F2.2526085570193098e-10
sVbiased
p1641
F1.521052043381542e-08
sVfelt
p1642
F0.0
sVhiv-infected
p1643
F8.596066161030732e-10
sVintimate
p1644
F2.6365078293736503e-07
sVmanufactured
p1645
F0.0
sVequivalent
p1646
F2.6283820457070514e-08
sVnotable
p1647
F7.508726994199279e-07
sVmiscellaneous
p1648
F6.106176601215089e-09
sVnotably
p1649
F3.4138334760247497e-09
sVuneasy
p1650
F4.2836942227226787e-07
sVdespicable
p1651
F6.962863610535249e-09
sVterrified
p1652
F9.336696859107917e-09
sVexciting
p1653
F3.6164334752113005e-07
sVfinicky
p1654
F1.0674962618505292e-07
sVrepeating
p1655
F2.5747146771227053e-10
sVon
p1656
F0.0
sVsubdued
p1657
F1.8152618554752751e-09
sVok
p1658
F1.4509336112987654e-07
sVrobust
p1659
F7.579940431046685e-07
sVof
p1660
F0.0
sVfavorite
p1661
F2.03900371561005e-08
sVreinforcing
p1662
F1.7531565599124187e-07
sVslender
p1663
F6.460269443177144e-09
sVpractical
p1664
F1.7876416239301874e-07
sVaddition
p1665
F5.550744012228624e-07
sVpracticable
p1666
F3.1703824208416497e-07
sVdeterminable
p1667
F1.3218411528037575e-07
sVunderway
p1668
F4.135232746955395e-09
sVmixed
p1669
F7.250113826529281e-07
sVmean
p1670
F0.0
sVprovisional
p1671
F4.892042887509447e-09
sVreferenced
p1672
F0.0
sVmeagre
p1673
F1.558058801000729e-07
sVlong-lived
p1674
F2.9917754555143545e-08
sVflawed
p1675
F9.41644153712763e-09
sVskilled
p1676
F1.2631868560258342e-08
sVblessed
p1677
F7.309009693082733e-09
sVrising
p1678
F0.0
sVlively
p1679
F5.2090214284979154e-08
sVheated
p1680
F8.517519010374224e-09
sVelementary
p1681
F1.536612039192002e-05
sVuptown
p1682
F0.0
sVlastly
p1683
F1.1904403339321412e-08
sVtechnically
p1684
F1.2284549294848245e-08
sVher
p1685
F0.0
sVever-increasing
p1686
F2.045541545733187e-06
sVthere
p1687
F1.1606574019010379e-09
sVhey
p1688
F7.270595916732227e-10
sVstark
p1689
F3.237705807429178e-07
sVstart
p1690
F0.0
sVcompliant
p1691
F1.3023308043760947e-08
sVmissy
p1692
F7.068659631836714e-10
sVlow
p1693
F4.218504359765318e-07
sVsealed
p1694
F8.436825053995683e-11
sVresolute
p1695
F1.2631613621446982e-07
sVdeposited
p1696
F3.046088453833754e-11
sVdecisive
p1697
F0.0006078341512235006
sVhysterical
p1698
F9.500642259278472e-08
sVallergic
p1699
F2.6365078293736503e-07
sVtedious
p1700
F1.9083489545087066e-08
sVcomplete
p1701
F1.4226323137365543e-07
sVvested
p1702
F1.450689570638574e-13
sVunsettled
p1703
F4.791777193250072e-09
sVdelayed
p1704
F1.3942345343588933e-09
sVsophisticated
p1705
F1.3294226913017745e-07
sVchange
p1706
F0.0
sVended
p1707
F4.751073647932344e-08
sVtwo-thirds
p1708
F1.314616448341988e-06
sVantiquated
p1709
F2.373399537759203e-10
sVattainable
p1710
F6.07036098199211e-08
sVwith
p1711
F8.239086966792657e-09
sVbelated
p1712
F1.04567590076917e-09
sVlonger
p1713
F2.8121457804703165e-06
sVabused
p1714
F0.0
sVarranged
p1715
F0.0
sVromantic
p1716
F3.5153437724982e-07
sVembedded
p1717
F3.793451570328962e-10
sVreceptive
p1718
F9.58350084547714e-09
sVreasoned
p1719
F1.0822457382427904e-08
sVanyway
p1720
F6.106176601215089e-09
sVbrain-dead
p1721
F1.568576662089873e-08
sVdirty
p1722
F3.7259966386144906e-07
sViegitimate
p1723
F0.0
sVabove-board
p1724
F6.953488322494758e-09
sVpolitically
p1725
F5.911001417226007e-09
sVpowerless
p1726
F1.8556413446548894e-08
sVdarker
p1727
F1.5618206525105705e-06
sVdetailed
p1728
F3.763242689430001e-08
sVgone
p1729
F4.1896836783695114e-08
sV19
p1730
F3.147003926873962e-11
sVflexibly
p1731
F3.1542770107904613e-09
sVjohnny
p1732
F2.6365078293736503e-07
sVgratuitous
p1733
F1.6034347964317807e-10
sVexhausted
p1734
F7.844533653605501e-09
sVcertain
p1735
F2.7182711341694427e-08
sVdeep
p1736
F5.035408627346951e-07
sVgeneral
p1737
F2.041135953339588e-06
sVas
p1738
F4.365303217689402e-09
sVtasty
p1739
F9.841829894985674e-08
sVtogether
p1740
F2.8588459451021697e-07
sVcorresponding
p1741
F1.1539993864651843e-07
sVincorrect
p1742
F1.947266671782776e-07
sVagain
p1743
F1.4829324936795021e-08
sVonerous
p1744
F1.4546712187496307e-07
sVideally
p1745
F0.0
sVidiot
p1746
F9.281664075847068e-09
sVadministered
p1747
F0.0
sVluckier
p1748
F2.0700729858679456e-08
sVvocational
p1749
F1.3355815944024574e-09
sVgraduate
p1750
F1.695285384113715e-11
sVshort-sighted
p1751
F4.163720715775685e-09
sVtight
p1752
F7.898379095143179e-08
sVvalid
p1753
F2.1907989540078974e-06
sVthought-provoking
p1754
F1.5837007794187517e-09
sVyou
p1755
F0.0
sVincomprehensible
p1756
F2.0020981329306172e-11
sVwell-paid
p1757
F8.856046443797178e-09
sVdisgraceful
p1758
F1.2020032408316737e-07
sVpoor
p1759
F2.002312565783926e-06
sVrequested
p1760
F9.846582910106895e-05
sVbriefly
p1761
F4.9662601666013815e-09
sVdead-on
p1762
F3.061660418343498e-08
sVineligible
p1763
F7.703915563717817e-10
sVopen-ended
p1764
F1.1194892023555565e-08
sVobsessed
p1765
F8.239086966792657e-09
sVseparate
p1766
F7.137415819779064e-08
sVstocky
p1767
F3.923978021755012e-08
sVimportant
p1768
F0.005174526540370221
sVsuited
p1769
F0.0
sVfresh
p1770
F4.8589532887536796e-08
sVincluded
p1771
F4.054871586601316e-09
sVequitable
p1772
F1.1165545907716102e-07
sVprudent
p1773
F1.5432940326885584e-07
sVconclusive
p1774
F0.0004686700247522807
sVtricky
p1775
F9.299115186334213e-07
sVbooked
p1776
F0.0
sVclinically
p1777
F2.453539756227181e-08
sVomnibus
p1778
F1.6488931097664766e-08
sVimprecise
p1779
F1.5812393984291963e-07
sVfoutu
p1780
F2.7182275787726555e-09
sVunscathed
p1781
F1.4192838121353956e-09
sVsaved
p1782
F1.345947958088338e-09
sVexhausting
p1783
F0.0
sVgross
p1784
F5.15351458497028e-07
sVfraudulent
p1785
F4.187749814109315e-07
sVrecognising
p1786
F3.367378711735033e-09
sValright
p1787
F2.2111765859406903e-07
sVoral
p1788
F3.2789068684930184e-07
sVoriginal
p1789
F1.408229955098218e-08
sVall
p1790
F7.0343160038922654e-09
sVhateful
p1791
F3.9273239589049345e-10
sVbreadth
p1792
F2.1603510055852944e-08
sVcrucial
p1793
F0.0210682283266893
sVinvariable
p1794
F1.348582021395329e-09
sVanti-constitutional
p1795
F2.3378757899348993e-08
sVsplitting
p1796
F4.8210428879975314e-14
sVfounded
p1797
F1.6370639296705072e-12
sVthoughtful
p1798
F5.0455685802000475e-08
sVsystemic
p1799
F0.0
sVcooperative
p1800
F4.588165365529226e-09
sVmessy
p1801
F5.137478948957595e-06
sVcustomary
p1802
F8.260540360563252e-09
sVdebatable
p1803
F3.2672932676455115e-09
sVfaster
p1804
F1.7471368822187271e-06
sVreligious
p1805
F2.6365078293736503e-07
sVarming
p1806
F1.0849826458327775e-09
sVdreadful
p1807
F2.688098187868925e-07
sVattentive
p1808
F1.1493847442721402e-08
sVeverywhere
p1809
F2.375536823966172e-08
sVstartled
p1810
F1.2140824442195479e-08
sVfacultative
p1811
F2.2860539698205027e-09
sVinexhaustible
p1812
F4.757075075301388e-09
sVextraneous
p1813
F1.2085726907843274e-07
sVto
p1814
F0.0
sVdeep-rooted
p1815
F0.0
sVmulti-faceted
p1816
F3.810076948250248e-08
sVhideous
p1817
F1.3844285488574324e-07
sVimmutable
p1818
F5.396438981981471e-10
sVsound
p1819
F1.5280624317480206e-07
sVcomercial
p1820
F1.6034347964317807e-10
sVworse
p1821
F0.00011961096820076223
sVequivocal
p1822
F8.058564689026627e-09
sVfar
p1823
F3.0200338291356783e-06
sVfat
p1824
F9.904212705997327e-08
sVcandid
p1825
F5.457954817751735e-09
sVworst
p1826
F5.82831487256559e-05
sVfall
p1827
F0.0
sVawful
p1828
F5.708388838470211e-07
sVefficacy
p1829
F5.653783557022752e-09
sVmanageable
p1830
F4.255816705534904e-08
sVtiresome
p1831
F4.718064231554749e-11
sVgeneralised
p1832
F6.890912928517445e-09
sValien
p1833
F4.165207708220735e-09
sVsentimental
p1834
F0.0
sVproscribed
p1835
F8.239086966792657e-09
sVmarvellous
p1836
F1.3940300248719304e-06
sVageing
p1837
F0.0
sVprolonged
p1838
F2.168443616128219e-09
sVbone-dry
p1839
F2.024838012958964e-09
sVlarge
p1840
F3.0056574315942573e-05
sVsane
p1841
F5.037297295580907e-07
sVunproblematic
p1842
F1.7316443290282906e-08
sVsalute
p1843
F7.270595916732227e-10
sVsmall
p1844
F3.295961565095813e-07
sVeconomically
p1845
F6.1206031770627175e-09
sVquicker
p1846
F1.4258125976869965e-06
sVten
p1847
F3.147003926873962e-11
sVcolossal
p1848
F1.6894090987565207e-06
sVcorrigendum
p1849
F2.292616047059302e-08
sVhereto
p1850
F3.840421015413883e-10
sVbuilt-in
p1851
F1.1380354710986886e-09
sVpreposterous
p1852
F2.41745168207271e-08
sVself-contained
p1853
F1.4282119882994361e-09
sVintricate
p1854
F1.7604268847519782e-08
sVzero
p1855
F1.1547608388315211e-08
sVenhancement
p1856
F1.7008314678388873e-07
sVfurther
p1857
F1.3140683354512965e-06
sVfunctioning
p1858
F8.254795176577455e-10
sVdestitute
p1859
F6.132091497200089e-09
sVcasual
p1860
F0.0
sVreturned
p1861
F5.228987583295941e-12
sVimported
p1862
F0.0
sVillogical
p1863
F6.985345079719409e-08
sVadvantageous
p1864
F3.295476920227679e-07
sVshort-lived
p1865
F8.353487235961125e-07
sVpoisonous
p1866
F6.256556665408172e-08
sVbrief
p1867
F4.4046247604406953e-07
sVrun
p1868
F0.0
sVsuccinct
p1869
F4.46610302839537e-08
sVjudicious
p1870
F8.77631913263195e-09
sVongoing
p1871
F4.172492280021997e-08
sVpublic
p1872
F1.5004765457127263e-08
sVrevealing
p1873
F0.0
sVoutgoing
p1874
F1.8566936128144366e-06
sVfull
p1875
F1.198515089405161e-07
sVchristian
p1876
F2.6365078293736503e-07
sVsentient
p1877
F2.4239404724688616e-09
sVunprofessional
p1878
F2.009063638748173e-10
sVloose
p1879
F3.7146440847625414e-07
sVfavourable
p1880
F1.2824595277410118e-08
sVinconsiderable
p1881
F2.4634468533900643e-07
sVselective
p1882
F2.6365078293736503e-07
sVstrong
p1883
F1.1038312736696584e-05
sVthready
p1884
F4.3962407856280013e-08
sVfatter
p1885
F2.051966723753877e-06
sVidentifiable
p1886
F5.7102964970595016e-11
sVexceptionally
p1887
F1.5980022324666854e-08
sVcreepy
p1888
F6.424504533076e-07
sVwell-structured
p1889
F2.344110340601756e-08
sVprior
p1890
F2.6197578827631457e-09
sVhealthier
p1891
F2.7120382904071863e-07
sVpublished
p1892
F4.1912117940759463e-10
sVheartbroken
p1893
F8.170644175672504e-09
sVnarrow
p1894
F2.1101119281426127e-08
sVweirder
p1895
F2.5198764844311692e-08
sVelongated
p1896
F2.4150877053002673e-08
sVsuddenly
p1897
F2.060340666487317e-08
sVmarginal
p1898
F3.146956334322236e-07
sVcosmetic
p1899
F8.239086966792657e-09
sVtrained
p1900
F2.515369400443305e-09
sVuntraceable
p1901
F8.239086966792657e-09
sVarmed
p1902
F1.0849826458327775e-09
sVnon-specific
p1903
F5.170520059450285e-09
sVhurtin
p1904
F2.2147531527987367e-08
sVconventional
p1905
F1.8906215726714714e-07
sVproceed
p1906
F0.0
sVdistinct
p1907
F7.592230691649107e-07
sVall-round
p1908
F4.337811892353342e-09
sVtwo
p1909
F0.0
sValmost
p1910
F6.220770652419763e-07
sVnothingg
p1911
F3.0499168191931904e-09
sVfreest
p1912
F5.310402693853676e-10
sVhlv-positive
p1913
F8.596066161030732e-10
sVgorgeous
p1914
F4.814333247319913e-07
sVmysterious
p1915
F1.6040908788056377e-08
sVtacky
p1916
F6.656894057955785e-09
sVunthinkable
p1917
F3.3459885079915226e-08
sVminor
p1918
F4.3239578421135894e-06
sVmore
p1919
F9.142047908019685e-06
sVflat
p1920
F2.9339369752533456e-08
sVunderprivileged
p1921
F1.2005921751339886e-08
sVstaggering
p1922
F2.86425127759036e-06
sVregrettable
p1923
F2.7363213797598996e-08
sVspoilt
p1924
F2.0869973788661933e-09
sVone-sided
p1925
F5.340225459422113e-08
sVinstrumental
p1926
F0.014581333657670819
sVcommenced
p1927
F2.0040256180155826e-09
sVgrisly
p1928
F0.0
sVbasically
p1929
F1.4192838121353956e-09
sVbroke
p1930
F2.5575374592781657e-08
sVparticular
p1931
F1.0814365642310917e-05
sVknown
p1932
F2.4632116914646068e-08
sVhurry
p1933
F6.878252157130701e-07
sVnineteen
p1934
F3.147003926873962e-11
sVglad
p1935
F4.005239619929852e-08
sVpleasing
p1936
F0.0
sVhour
p1937
F0.0
sVcanceled
p1938
F2.375536823966172e-08
sVshielded
p1939
F0.0
sVlong-winded
p1940
F0.0
sVdebated
p1941
F0.0
sVineffectual
p1942
F5.0934923866382284e-09
sVspecialized
p1943
F2.0522392217028722e-09
sVself-conscious
p1944
F6.025511450720494e-08
sVhistory
p1945
F4.752796659835397e-09
sVbeautiful
p1946
F5.979274397302583e-07
sVstubborn
p1947
F2.4905418998668863e-08
sVembarrassing
p1948
F6.226922916953125e-08
sVwell-coordinated
p1949
F8.436825053995683e-11
sVlife-threatening
p1950
F4.012538177798731e-05
sVstated
p1951
F0.0
sVmeaner
p1952
F7.117911699639058e-09
sVprescriptive
p1953
F2.6365078293736503e-07
sVsicker
p1954
F1.3547093797520267e-09
sVunbiased
p1955
F1.915999674127632e-09
sVminimum
p1956
F5.740583161550949e-06
sVsharp
p1957
F3.776147631832808e-07
sVmainstream
p1958
F5.520069249347252e-09
sV!
p1959
F0.0
sVhuge
p1960
F1.9181510352934926e-05
sVgoal
p1961
F2.169965291665555e-09
sVawkward
p1962
F4.1214616011149996e-07
sVlousy
p1963
F9.488401877769205e-08
sVneedy
p1964
F0.00010853706654176752
sVimminent
p1965
F0.00020062126876486437
sVpressing
p1966
F0.0003891797926640539
sVdismissed
p1967
F5.228987583295941e-12
sVunlucky
p1968
F1.2287935862477888e-08
sVglowing
p1969
F1.1065538939965779e-08
sVsacred
p1970
F2.096812550292404e-09
sVheadstrong
p1971
F1.2509053479957603e-08
sVhopeless
p1972
F0.000226020887874609
sVacknowledging
p1973
F3.5580237870376853e-09
sVokay
p1974
F1.7930330486170477e-07
sVintended
p1975
F8.927152678769934e-08
sVrude
p1976
F4.976808220305057e-07
sVpetite
p1977
F7.068659631836714e-10
sVhinky
p1978
F8.309427792565815e-10
sVlong
p1979
F4.3725683127729135e-07
sVbeastly
p1980
F3.788274764185394e-09
sVdeath-proof
p1981
F8.081385936432103e-11
sVunsound
p1982
F4.688894357752576e-09
sVfast-growing
p1983
F1.5721030815950567e-07
sVcoming
p1984
F3.2352659556499824e-09
sVinconceivable
p1985
F2.6878615548730573e-08
sVauthentic
p1986
F4.7201915463271804e-08
sVundisputable
p1987
F6.963406552520414e-08
sVbleak
p1988
F4.082982327926061e-05
sVa
p1989
F0.0
sVsnotty
p1990
F0.0
sVshort
p1991
F4.3225580880306216e-07
sVpreferential
p1992
F2.6365078293736503e-07
sVcrowded
p1993
F9.530840021319177e-09
sVquoted
p1994
F0.0
sVgroundless
p1995
F7.513240771385637e-08
sVgeneric
p1996
F1.6488931097664766e-08
sVuntenable
p1997
F2.2764058936763813e-08
sVnegligible
p1998
F1.6423811698811818e-07
sVskilful
p1999
F0.0
sVfundamental
p2000
F0.0007050307642229905
sVpitch-dark
p2001
F5.861610122724215e-08
sVimpermissible
p2002
F1.0288799749314886e-08
sVgeographic
p2003
F5.380775623603091e-09
sVcrafty
p2004
F1.5525446506195778e-08
sVdepraved
p2005
F8.374250001884049e-09
sVdeveloped
p2006
F1.9761348884380243e-11
sVheartfelt
p2007
F0.0
sVco-chairperson
p2008
F0.0
sVsoon
p2009
F6.822290403592844e-07
sVcarmela
p2010
F0.0
sVinstalled
p2011
F2.6365078293736503e-07
sVwide-ranging
p2012
F3.58545988560482e-06
sVheld
p2013
F0.0
sVnaughty
p2014
F7.917848381150563e-08
sVthrough
p2015
F2.375536823966172e-08
sVsupra
p2016
F1.064782882014673e-13
sVcommitted
p2017
F1.8048763935503644e-09
sVstone-cold
p2018
F1.8271826147769297e-09
sVforgiving
p2019
F1.4022493832784887e-08
sVunhealthy
p2020
F1.0236047863173047e-08
sVbummed
p2021
F8.876079078450962e-09
sVrapidly
p2022
F6.67691264892735e-07
sVprat
p2023
F2.225993095346155e-10
sVmistreated
p2024
F2.471726090037797e-08
sVbeautifui
p2025
F3.893786378764917e-08
sVcoarser
p2026
F8.408618743345404e-08
sVfruitful
p2027
F4.5130290152685324e-07
sVlate
p2028
F5.146175493947002e-09
sVharmless
p2029
F5.461863154797828e-08
sVdisclosed
p2030
F1.6034347964317807e-10
sVattended
p2031
F0.0
sVnifty
p2032
F2.6408662538582435e-08
sVself-aware
p2033
F1.9064507530265222e-10
sVbereft
p2034
F0.00010853706654176752
sVfiner
p2035
F5.821962022849153e-09
sVfocussed
p2036
F4.877577684470114e-09
sVhurting
p2037
F2.9549551879630933e-08
sVgood
p2038
F2.584983025910144e-07
sVmotivated
p2039
F3.154221453124116e-08
sVyo
p2040
F2.153064227501902e-09
sVlargest
p2041
F0.00045272994111209637
sVanticipated
p2042
F2.2526085570193098e-10
sVshitless
p2043
F0.0
sVpermissible
p2044
F4.495347549489567e-08
sVnon-compliant
p2045
F5.573094543905546e-09
sVbigger
p2046
F0.0002010086398863537
sVlovable
p2047
F4.060539992432869e-08
sVshifty
p2048
F1.3562146551750386e-08
sVsubtler
p2049
F2.6183059247104037e-08
sVfully
p2050
F1.6257274609745845e-08
sVnauseous
p2051
F1.3547093797520267e-09
sVutilized
p2052
F2.1507057551463937e-09
sVreaily
p2053
F2.2445575431528817e-06
sVgoofy
p2054
F1.3808685696763408e-08
sVstopped
p2055
F0.0
sVaggrieved
p2056
F2.232474579902832e-12
sVinherent
p2057
F6.068694880386413e-08
sVshocking
p2058
F1.1172919389073282e-06
sVintolerable
p2059
F1.4210872329791972e-08
sVexquisite
p2060
F3.6742715521017265e-07
sVforthright
p2061
F5.540450320848123e-09
sVheavy
p2062
F1.957931386057815e-06
sVmisguided
p2063
F9.644686052104612e-09
sVeveryone
p2064
F0.0
sVdelicious
p2065
F1.8035261636932877e-07
sVneedless
p2066
F6.006567202558577e-08
sVundetectable
p2067
F8.239086966792657e-09
sVcolder
p2068
F1.1413443574654642e-08
sVhard
p2069
F1.4601482851968574e-06
sVpositioned
p2070
F0.0
sVwacky
p2071
F1.242983248808523e-08
sVmodernized
p2072
F1.9973108497621193e-10
sVexorbitant
p2073
F5.944398250140168e-08
sVirreconcilable
p2074
F1.5845373358247681e-09
sVpro-poor
p2075
F4.469938230990721e-09
sVwacko
p2076
F8.434374734472128e-09
sVorganised
p2077
F0.0
sVreally
p2078
F2.285736181237516e-06
sVanxious
p2079
F0.00012186519376452862
sVfoolproof
p2080
F4.957693940271588e-09
sVpresumptuous
p2081
F2.6365078293736503e-07
sVunnatural
p2082
F3.2148953507015376e-09
sVchildish
p2083
F1.7245431772378764e-07
sVsurrounded
p2084
F2.894317580355472e-07
sVjolly
p2085
F4.074002494479651e-09
sVparticipants
p2086
F4.1298452002242676e-10
sVdarling
p2087
F3.214645788641955e-08
sVinduced
p2088
F0.0
sVissue
p2089
F4.3400370616193115e-09
sVhard-pressed
p2090
F1.676877364572338e-09
sVuh-huh
p2091
F7.270595916732227e-10
sVmission-critical
p2092
F0.0
sVpathetic
p2093
F4.797277876283337e-08
sVfound
p2094
F0.0
sVparched
p2095
F2.1235786314535264e-09
sVmotherfucker
p2096
F3.4950768173613317e-10
sVlike
p2097
F1.1050616847395852e-08
sVpleasant
p2098
F1.3890486248026873e-07
sVextraordinary
p2099
F4.664204782069039e-06
sVreason
p2100
F1.3690092555158997e-08
sVbrightest
p2101
F1.0021191166019745e-08
sVdire
p2102
F0.00017673485794486563
sVvigorous
p2103
F1.4916931241169898e-07
sVecologically
p2104
F1.6423864540057714e-08
sVlaughable
p2105
F1.165231432832035e-08
sVearliest
p2106
F6.894625478468128e-07
sVunresolved
p2107
F4.0727148026771514e-08
sVunbecoming
p2108
F0.0
sV-sorry
p2109
F1.8569916577157548e-09
sVannulled
p2110
F1.5686962749887858e-11
sVbroad-based
p2111
F1.6053641152168533e-07
sVterrible
p2112
F6.359024095404379e-06
sVlunatic
p2113
F8.485366991681902e-09
sVamerican
p2114
F8.436825053995683e-11
sVjurisdictional
p2115
F3.4964274973908462e-09
sVexpedient
p2116
F7.042815515821392e-07
sVmerry
p2117
F2.8854761110943447e-09
sVindebted
p2118
F0.0
sVmajor
p2119
F0.00018319155307615638
sVengagement
p2120
F5.081304388082178e-10
sVrooted
p2121
F0.0
sVupper
p2122
F1.8008547324232659e-06
sVradical
p2123
F3.0396976922227414e-09
sVbelligerent
p2124
F0.0
sVfancy
p2125
F1.6197452149715583e-07
sViucky
p2126
F1.9572240715986182e-08
sVwell-known
p2127
F3.022925577200952e-08
sVfierce
p2128
F2.970120195063894e-07
sVenlarged
p2129
F2.778892173230134e-06
sVunexpected
p2130
F1.369944209686752e-07
sVdone
p2131
F4.7887909708821356e-08
sVblank
p2132
F6.624117330704853e-09
sVnorth-east
p2133
F3.388072389554111e-10
sVsingle-ranked
p2134
F5.433821520367774e-08
sVobligatory
p2135
F3.503746724622707e-05
sV"
p2136
F0.0
sVfuller
p2137
F1.0674013618696985e-07
sVbloodied
p2138
F2.375536823966172e-08
sVinexcusable
p2139
F6.726087676839788e-09
sVtwenty
p2140
F3.147003926873962e-11
sVfinanced
p2141
F0.0
sVtougher
p2142
F6.92125754872385e-06
sVmoderately
p2143
F8.882929684852017e-09
sVcomfy
p2144
F1.3352121465831694e-08
sVleast
p2145
F6.284130772972308e-06
sVelegante
p2146
F2.6365078293736525e-12
sVexcitable
p2147
F4.205611965174941e-09
sVobtainable
p2148
F4.1657620730504954e-10
sVomnipresent
p2149
F5.1375206238528185e-08
sVendearing
p2150
F0.0
sVwonderfui
p2151
F1.698518285330093e-07
sVmama
p2152
F5.2205859321969106e-09
sVnigeria
p2153
F1.2706439827409153e-09
sVenchanting
p2154
F1.4270644736120984e-08
sVmerciless
p2155
F8.436825053995683e-11
sVtoo
p2156
F0.0
sVtreasured
p2157
F2.98965523829713e-11
sVrelieved
p2158
F8.436825053995683e-11
sVantsy
p2159
F3.481364148223479e-09
sVimmediate
p2160
F4.339474828747525e-09
sVinconsequential
p2161
F7.270595916732227e-10
sVoff-putting
p2162
F1.795738708591728e-08
sVsizable
p2163
F1.3274300198850067e-07
sVpart
p2164
F0.0
sVnon-competitive
p2165
F2.317422074370608e-09
sVfavorable
p2166
F9.320091072133502e-09
sVgruesome
p2167
F1.2415044076705172e-07
sVscaleable
p2168
F1.0849826458327784e-09
sVrampant
p2169
F1.1617645389861664e-07
sVrespendable
p2170
F2.0881104292567917e-09
sVkind
p2171
F1.996773381425311e-08
sVstate-owned
p2172
F3.474108985290292e-07
sVdouble
p2173
F8.75852774478728e-09
sVlargely
p2174
F2.9435802927780806e-07
sVoutrageous
p2175
F1.2605021159156068e-06
sVdetermined
p2176
F1.3218411528037575e-07
sVcontrary
p2177
F3.97104603706674e-08
sVuncanny
p2178
F2.5296297341154655e-08
sVinsulted
p2179
F4.724622030237583e-09
sVstale
p2180
F1.0684765852623023e-09
sVtreated
p2181
F0.0
sVrisky
p2182
F1.1564967733722167e-06
sVferociously
p2183
F0.0
sVcleaner
p2184
F1.19978086811918e-07
sVmotivation
p2185
F1.0822457382427904e-08
sVvacant
p2186
F5.0184836350023835e-09
sVbad
p2187
F5.040625693749034e-06
sVsubstantiated
p2188
F1.9272018437982222e-12
sVoutstanding
p2189
F6.08422625843821e-06
sVurgently
p2190
F8.020399248988729e-05
sVsuspicious
p2191
F2.0075279338986128e-08
sVwell-developed
p2192
F5.791168638315356e-12
sVaffirmative
p2193
F5.3196862712074525e-09
sVcattled
p2194
F8.099771607959011e-10
sVwell-written
p2195
F8.918104034244797e-09
sVsubstantial
p2196
F0.00012113637410839953
sValike
p2197
F2.7769866439661124e-08
sVcognizant
p2198
F1.8399979461449484e-08
sVimperfect
p2199
F1.1797081566847783e-08
sVcumbersome
p2200
F6.191016987489852e-07
sVnull
p2201
F8.239086966792657e-09
sVvulnerable
p2202
F1.2363387581384988e-07
sVbriiliant
p2203
F1.4545328831331885e-07
sVsell
p2204
F0.0
sVbuilt
p2205
F0.0
sVdestabilizing
p2206
F3.917473161351235e-07
sVempowered
p2207
F8.239086966792657e-09
sVaccountable
p2208
F2.1113472703796616e-09
sVheterosexual
p2209
F5.06171861722082e-09
sVlit
p2210
F0.0
sVmoist
p2211
F4.271142683585313e-10
sVrecognizing
p2212
F4.1553665862486054e-09
sVinternal
p2213
F2.5099140399820573e-10
sVbarmy
p2214
F8.80614588327075e-09
sVgeneralized
p2215
F1.0598848092815815e-08
sVfrail
p2216
F1.2855815140428479e-08
sVaggravating
p2217
F3.8259123610431864e-08
sVorderable
p2218
F6.413739185727123e-10
sVon-going
p2219
F2.5860668271855354e-09
sVinsufferable
p2220
F8.455582547282303e-09
sVextensible
p2221
F5.424913229163892e-10
sVmarginalized
p2222
F1.6220702465873045e-08
sVcontestable
p2223
F0.0
sVnon-compensatory
p2224
F1.7826927115131777e-10
sVmedium-sized
p2225
F0.0
sVunused
p2226
F0.0
sVmost
p2227
F9.411017517812616e-06
sVsponsored
p2228
F0.0
sVunder-funded
p2229
F4.003659525792412e-08
sVsignificant
p2230
F0.00010199973987228602
sVnothing
p2231
F4.5996599136570126e-08
sVdefensible
p2232
F2.50620252530165e-09
sVfaint
p2233
F7.447457218290132e-09
sVextremely
p2234
F5.4421499013768016e-08
sVapproved
p2235
F2.1145936612847858e-08
sVfunnier
p2236
F2.6365078293736503e-07
sVself-governed
p2237
F1.4282119882994361e-09
sVunequal
p2238
F0.0
sVapposite
p2239
F9.10981387491617e-08
sVsturdy
p2240
F4.965882389903234e-08
sVmobile
p2241
F2.6365078293736503e-07
sVclear
p2242
F8.802995288055519e-07
sVbecoming
p2243
F0.0
sVunreasonable
p2244
F3.341115530140104e-07
sValtered
p2245
F5.273015658747302e-12
sVtraditional
p2246
F1.123098518944365e-07
sVclean
p2247
F3.6134076825338126e-08
sVusual
p2248
F1.5534394955451488e-07
sVparticularly
p2249
F6.730693632012315e-06
sVblended
p2250
F3.674288191412075e-09
sVscattered
p2251
F8.239086966792657e-09
sVfixated
p2252
F1.3218411528037575e-07
sVwell-placed
p2253
F0.0
sVinflexible
p2254
F1.1119299535891161e-08
sVco-operative
p2255
F2.8390741020610517e-07
sVstoned
p2256
F1.1404131160663067e-08
sVcarefully
p2257
F2.616715259917751e-09
sVexcessive
p2258
F6.36419235569862e-07
sVdegraded
p2259
F2.6365078293736503e-07
sVfine
p2260
F5.565232634930345e-07
sVfind
p2261
F0.0
sVdistressing
p2262
F9.547537693127622e-08
sVgiant
p2263
F1.1031331632423906e-08
sVnorthern
p2264
F3.831874744779532e-09
sVparanoid
p2265
F5.019828079964115e-10
sVconvinced
p2266
F2.253489479411449e-08
sVhope
p2267
F1.1124940531173538e-09
sVgrotesque
p2268
F4.0996578405939127e-07
sVunhappy
p2269
F3.0824139820106425e-08
sVidiots
p2270
F2.087737903947869e-09
sVpretty
p2271
F5.290041444324227e-07
sVinadvisable
p2272
F6.517246526466847e-10
sVhip
p2273
F1.4619708510866049e-09
sVintractable
p2274
F0.0
sVlegible
p2275
F5.469889405210361e-09
sVdominant
p2276
F6.867671113107234e-06
sVall-powerful
p2277
F6.155117731710846e-09
sVhiv
p2278
F8.596066161030732e-10
sVdependent
p2279
F7.100882131830263e-13
sVluke
p2280
F0.0
sVsunny
p2281
F2.6026890578909406e-08
sVcheaper
p2282
F1.6354476771639408e-07
sVfamous
p2283
F1.5218171825097384e-08
sVout-dated
p2284
F2.373399537759203e-10
sVlongest
p2285
F6.456582260967295e-08
sVshared
p2286
F6.70165085609189e-09
sVselfevident
p2287
F8.803172781144668e-08
sVinterminable
p2288
F0.0
sVfrightening
p2289
F3.2105641195502006e-07
sVhim
p2290
F0.0
sVlegibly
p2291
F1.7548824464425284e-09
sVadulthood
p2292
F0.0
sVprogressive
p2293
F1.0849826458327775e-09
sVco-operate
p2294
F4.588165365529226e-09
sVwell-off
p2295
F2.7925550440605187e-09
sVnegligeable
p2296
F9.874078368811615e-09
sVunderlying
p2297
F5.015573026950963e-08
sVcommon
p2298
F6.513245846142936e-07
sVnewest
p2299
F1.1468158281727436e-07
sVsustainable
p2300
F4.450724519281713e-08
sVobscure
p2301
F8.938643147577981e-09
sVcourteous
p2302
F4.464949159805664e-12
sVrelentless
p2303
F4.355381821492013e-09
sVinsane
p2304
F2.352804689460416e-07
sVhousebroken
p2305
F2.6661749680515638e-09
sVset
p2306
F5.955700657650014e-10
sVtaken
p2307
F0.0
sVcynical
p2308
F8.436825053995683e-11
sVunpublished
p2309
F1.6034347964317807e-10
sVpotent
p2310
F3.8679646938796983e-07
sVplausible
p2311
F8.659025747286737e-08
sVoverburdened
p2312
F2.6365078293736503e-07
sVindividual
p2313
F4.070481612415121e-09
sVdumb
p2314
F2.7262891287229427e-08
sVgravest
p2315
F4.5662241830292564e-05
sVsafeguarded
p2316
F8.436825053995683e-11
sVclose
p2317
F2.0745704675565938e-08
sVforthcoming
p2318
F3.202592240807849e-07
sVyouth
p2319
F2.1311522498155572e-10
sVbuilshit
p2320
F8.733707079431599e-10
sVhorrid
p2321
F3.504186337800195e-08
sVmuted
p2322
F2.6034100130764336e-09
sVforlorn
p2323
F0.00010853706654176752
sVcurrently
p2324
F1.962608586768341e-09
sVmulti-threaded
p2325
F0.0
sVdegrading
p2326
F9.775459102183011e-09
sVinterrelated
p2327
F6.820538909474552e-08
sVvarious
p2328
F1.4233117560262835e-06
sVprobably
p2329
F7.3691428472411936e-09
sVburned
p2330
F0.0
sVnumerous
p2331
F2.8774926562130047e-06
sVberserk
p2332
F7.975246453323695e-09
sVprepped
p2333
F0.0
sVavailable
p2334
F1.5469366113161086e-08
sVmilder
p2335
F2.984715930712335e-07
sVkorea
p2336
F7.663749489559064e-09
sVrecently
p2337
F6.0107592956635e-08
sVcomplementary
p2338
F1.9131237458286462e-08
sVtargeted
p2339
F1.070189256654129e-07
sVmasterful
p2340
F9.881192803715283e-08
sVsole
p2341
F2.0400366093804956e-08
sVpoorer
p2342
F1.0049830069292091e-05
sVuntouched
p2343
F1.4183641680504846e-09
sVcounter-productive
p2344
F1.285958140280615e-08
sVsucceed
p2345
F2.146374605551674e-09
sVrarer
p2346
F8.034328824617665e-08
sVcompetent
p2347
F4.779407028684714e-09
sVpissed
p2348
F1.1522604239062234e-08
sVbrillant
p2349
F2.004238233203949e-08
sVtime-sensitive
p2350
F0.0049103677176607595
sVlast
p2351
F2.1649122451160403e-07
sVabhorrent
p2352
F1.2362328864835678e-08
sVinfluential
p2353
F8.239086966792657e-09
sVrestful
p2354
F8.239086966792657e-09
sVgullible
p2355
F9.969510314214442e-09
sVminus
p2356
F8.450098880107051e-08
sVsensitive
p2357
F1.9212916528865567e-06
sVretarded
p2358
F3.7412826617790496e-07
sVlong-term
p2359
F1.375205163029001e-08
sVinteractive
p2360
F2.999588933908619e-07
sVwhole
p2361
F4.5053159858903486e-08
sVmind-boggling
p2362
F5.736974803353003e-09
sVliked
p2363
F0.0
sVlarge-scale
p2364
F3.0380216079055258e-06
sVsimple
p2365
F7.898695470790115e-06
sVsweet
p2366
F6.624263868558542e-07
sVnortheastern
p2367
F2.880043277033631e-09
sVrad
p2368
F1.2918905471145997e-07
sVwhatever
p2369
F6.691969770923871e-07
sVleading
p2370
F2.383201094132287e-06
sVimproper
p2371
F1.4746245355654769e-07
sVless-favoured
p2372
F0.0
sVsimply
p2373
F3.0285999184337146e-07
sVunsuccessful
p2374
F7.2398669921899025e-09
sVoverambitious
p2375
F8.243529013950563e-10
sVsing
p2376
F2.6365078293736503e-07
sVmissingg
p2377
F3.7137653008347323e-13
sVexpensive
p2378
F2.58781026058181e-07
sVstartling
p2379
F1.0456755684803375e-07
sVworthless
p2380
F2.0619896245751132e-07
sVdescribed
p2381
F0.0
sVinadmissible
p2382
F4.327133041094371e-08
sVmonthly
p2383
F3.147003926873962e-11
sVdamp
p2384
F4.271142683585313e-10
sVunderage
p2385
F1.997870046807542e-06
sVpolitical
p2386
F1.2785467185216536e-07
sVdue
p2387
F5.9512011560765216e-08
sVgoal-oriented
p2388
F3.9932273827542846e-09
sVreduction
p2389
F1.6727555833671902e-08
sVlucrative
p2390
F4.27932956924974e-08
sVsociable
p2391
F1.5467512598992088e-10
sVcontained
p2392
F1.6034347964317807e-10
sVintrusive
p2393
F0.0
sVwidening
p2394
F0.0
sVempty
p2395
F1.8074471688902452e-08
sVvice-chairmen
p2396
F2.8607940856918947e-09
sVfirm
p2397
F1.2902337609652106e-07
sVsweetheart
p2398
F8.35688045069281e-10
sVheaviest
p2399
F4.186050838424121e-05
sVgay
p2400
F2.471726090037797e-08
sVschizo
p2401
F5.560559545338836e-09
sVexempt
p2402
F7.885117370976382e-10
sVelse
p2403
F2.9101345611213987e-06
sVadaptable
p2404
F3.360275950162863e-09
sVpricey
p2405
F3.935158487510661e-09
sVawake
p2406
F9.567527136801381e-09
sVdisruptive
p2407
F2.6365078293736503e-07
sVsystematic
p2408
F0.0
sVself-sustained
p2409
F1.0558781099424828e-10
sVpresented
p2410
F0.0
sVflashing
p2411
F3.733266474957086e-09
sVintriguing
p2412
F7.632227507280932e-08
sVhandling
p2413
F0.0
sVuncertain
p2414
F1.0186033982604499e-07
sVexponential
p2415
F4.505511813059743e-09
sVsolid
p2416
F4.2246168946854755e-08
sVcircumneutral
p2417
F2.1355713417926565e-10
sVstraight
p2418
F4.3996768780493764e-08
sVexpanded
p2419
F4.174189156733637e-08
sVhealthy
p2420
F1.794957719887448e-07
sVfun
p2421
F1.328136245027205e-07
sVsombre
p2422
F1.5032045512833282e-06
sVreal
p2423
F1.2761319945033698e-07
sVsizeable
p2424
F1.2258069920462676e-05
sVcostly
p2425
F1.4883932249622838e-07
sVimpracticable
p2426
F5.08884213724176e-09
sVenriching
p2427
F4.770917562161983e-09
sVguilty
p2428
F9.265500645251304e-10
sVbinding
p2429
F7.502929873847115e-09
sVherein
p2430
F4.337042885160166e-10
sVco-ownership
p2431
F0.0
sVdisappointing
p2432
F6.328374744813843e-08
sVfrantic
p2433
F0.00010854973196260539
sVready
p2434
F5.9899808271668e-05
sVlacklustre
p2435
F1.6621532662093683e-09
sVall-important
p2436
F6.305505249185957e-05
sVreai
p2437
F1.9911470191065973e-08
sVunfit
p2438
F7.490302803876173e-10
sVfunny
p2439
F8.027457285669203e-08
sVlengthy
p2440
F5.061286951720116e-07
sVclerical
p2441
F5.081304388082178e-10
sVtwofold
p2442
F6.155117731710846e-09
sVpresentable
p2443
F7.270595916732227e-10
sVanymore
p2444
F6.73552580468853e-06
sVbonnie
p2445
F3.887969179981253e-09
sVaccomplished
p2446
F5.8971292585035785e-09
sVelevated
p2447
F1.371445713607926e-07
sVshorter
p2448
F5.740676226384831e-07
sVbenign
p2449
F7.38993245461433e-08
sVwierd
p2450
F9.957004195095195e-09
sVresults-oriented
p2451
F4.898867487693449e-09
sVreachable
p2452
F1.7710686638659125e-09
sVvirtually
p2453
F5.478727548404805e-07
sVwidely
p2454
F0.0
sVgrand
p2455
F3.832244496729293e-07
sVlenient
p2456
F9.52611685408059e-09
sVstrangers
p2457
F4.165207708220735e-09
sVprerequisite
p2458
F0.010295852506478303
sVhigher
p2459
F6.404662963730017e-05
sVpray
p2460
F3.3652183383832314e-09
sVused
p2461
F2.7380862603470197e-07
sVtemporary
p2462
F2.230496579942342e-09
sVsomewhere
p2463
F0.0
sVcomprehensive
p2464
F6.901929641244318e-07
sVpainless
p2465
F1.943762565479522e-08
sVoverweight
p2466
F4.36386876454252e-08
sVyesterday
p2467
F6.595262339952956e-05
sValert
p2468
F1.483669480606036e-08
sVhigh-tech
p2469
F1.5350127510699584e-09
sVmoving
p2470
F0.0
sVappreciable
p2471
F2.622054422027238e-06
sVpeachy
p2472
F0.0
sVwholesome
p2473
F5.292217975269592e-10
sVprodigious
p2474
F3.4043115636411606e-07
sVtimid
p2475
F4.653164153973478e-07
sVinfamous
p2476
F5.0941434066049605e-09
sVrecent
p2477
F1.111755546087862e-07
sVfrozen
p2478
F1.4580450498931051e-08
sVlower
p2479
F4.947074587144697e-06
sVpicky
p2480
F2.087388431057069e-07
sVolder
p2481
F1.551224713756098e-05
sVenergy-efficient
p2482
F3.447412860959581e-09
sVpersuasive
p2483
F2.4287991445915336e-08
sVspent
p2484
F0.0
sVconcrete
p2485
F6.398745087169236e-08
sVinter-related
p2486
F6.691257080486002e-09
sVinspirational
p2487
F1.5837007794187517e-09
sVthoroughly
p2488
F6.2836177110277055e-09
sVju
p2489
F7.270595916732227e-10
sVweakest
p2490
F1.0929019947456096e-08
sVwell-timed
p2491
F2.264426538693276e-08
sVsoaked
p2492
F4.4013655556861e-08
sVmigratory
p2493
F2.6365078293736503e-07
sVprompt
p2494
F6.962347441454514e-07
sVludicrous
p2495
F1.9625837797824387e-08
sVnamed
p2496
F0.0
sVcompetitive
p2497
F1.4977467419865205e-08
sVhigh-availability
p2498
F1.6034347964317807e-10
sVdistracting
p2499
F1.566215063902643e-08
sVinactive
p2500
F1.7726907007021291e-09
sVcomprehensively
p2501
F4.337811892353342e-09
sVirritable
p2502
F4.205611965174941e-09
sVvigilant
p2503
F1.96504745043118e-08
sVspatially
p2504
F0.0
sValternative
p2505
F2.7363270136091298e-06
sVpredominantly
p2506
F1.8566936128144366e-06
sVprofitable
p2507
F1.0037984106327677e-07
sVsuperficial
p2508
F2.2639565127527335e-08
sVioyal
p2509
F1.5174254546184787e-08
sVobservant
p2510
F2.6365078293736503e-07
sVinformal
p2511
F8.239086966792657e-09
sValternate
p2512
F6.789959985751781e-07
sVguaranteed
p2513
F1.687201554247451e-06
sVrecommended
p2514
F1.9551739579400538e-09
sVco-ordinated
p2515
F1.6873650107991365e-10
sVeager
p2516
F3.6748831153016026e-06
sVbrand-new
p2517
F1.5519974979975033e-07
sVdeliberately
p2518
F3.8862257230102396e-08
sVtabled
p2519
F3.046088453833754e-11
sVcomprehensible
p2520
F9.847537716396706e-09
sVimpoverished
p2521
F1.4492984746818571e-08
sVexcited
p2522
F4.027413685818985e-06
sVsurprised
p2523
F7.473909057498955e-08
sVuseless
p2524
F9.930623643816161e-06
sVamended
p2525
F2.636507829373651e-12
sVlacking
p2526
F3.5764578808826415e-08
sVbig
p2527
F1.4680637732152028e-05
sVdiscriminatory
p2528
F2.6997840172786185e-09
sVunlimited
p2529
F8.89470003065251e-10
sVself-sufficiency
p2530
F1.3226241773051878e-09
sVshitty
p2531
F3.0355875856216803e-07
sVculturally
p2532
F7.585073379706893e-08
sVwiser
p2533
F2.7007950819183534e-07
sVnessessary
p2534
F2.118182064614289e-05
sVentrenched
p2535
F0.0
sVawaken
p2536
F6.251254707665819e-09
sVformal
p2537
F5.011710951564188e-08
sVpertinent
p2538
F2.6101752558859564e-06
sVsincerely
p2539
F4.624492783560278e-10
sVfollows
p2540
F0.0
sVincidental
p2541
F9.466745322547236e-07
sVmulticultural
p2542
F1.447647628239765e-08
sVunrealistic
p2543
F4.83288714835567e-07
sVmanifest
p2544
F1.2213563370731997e-07
sVunstable
p2545
F6.274658667118562e-08
sVwrecked
p2546
F4.821785530632882e-09
sVpopular
p2547
F1.9258786075019358e-07
sVstylish
p2548
F2.6365078293736525e-12
sVunendurable
p2549
F2.586147466751171e-10
sVfoolish
p2550
F8.77941678027717e-08
sVessential
p2551
F0.02090425943564249
sVperpetual
p2552
F4.281713594605608e-11
sVoften
p2553
F5.6166605648799304e-09
sVagreement
p2554
F1.8635945516352434e-06
sVunremarkable
p2555
F3.0875976908774964e-10
sVfucking
p2556
F1.0982732571808533e-09
sVobliged
p2557
F0.0
sVfake
p2558
F2.6580502855147356e-08
sVmagnificent
p2559
F1.7000837259295149e-06
sVgrass-roots
p2560
F0.0
sVunderdeveloped
p2561
F2.2584398725005994e-11
sVunderstood
p2562
F7.98537234602999e-09
sVstrongest
p2563
F0.00014166518402268245
sVeconomic
p2564
F1.0275973862123122e-08
sVmighty
p2565
F2.403918612035693e-07
sVaccelerating
p2566
F3.1690624343187537e-08
sVmideast
p2567
F3.388072389554111e-10
sVgreener
p2568
F1.0783056453683343e-07
sVtrendy
p2569
F1.9253221229280528e-09
sVcurious
p2570
F6.826319349003165e-08
sVpale
p2571
F2.6365078293736503e-07
sVourselves
p2572
F0.0
sVindigent
p2573
F6.604366478137779e-09
sVmomentary
p2574
F1.0026569425937408e-10
sVpronounced
p2575
F0.0
sVdull
p2576
F1.9083489545087066e-08
sVproficient
p2577
F8.636807378094131e-09
sVunspoiled
p2578
F2.4288498272253775e-08
sVper
p2579
F2.375536823966172e-08
sVgermane
p2580
F6.656274118688989e-08
sVbogus
p2581
F3.398637681332978e-08
sVfbl
p2582
F2.6365078293736503e-07
sVstraightforward
p2583
F5.109126279340856e-06
sVminimal
p2584
F1.050834702915958e-06
sVjumpy
p2585
F6.525131380706229e-08
sVeverybody
p2586
F0.0
sVvarying
p2587
F0.0
sVcostlier
p2588
F2.135884855421475e-09
sVpatient
p2589
F8.239086966792657e-09
sVprocessing
p2590
F0.0
sVperpendicular
p2591
F2.6365078293736503e-07
sVpatentable
p2592
F6.8668095168143915e-09
sVchickenshit
p2593
F8.733707079431599e-10
sVrestrictive
p2594
F7.553079220161166e-08
sVweil
p2595
F8.800710325487443e-08
sVweii
p2596
F8.640838799728205e-08
sVremediated
p2597
F0.0
sVintense
p2598
F4.912840636734501e-07
sVhandled
p2599
F0.0
sVdormant
p2600
F7.288747556016438e-10
sVill-defined
p2601
F1.901036473425985e-15
sVcautious
p2602
F5.6509485545165644e-08
sVsharper
p2603
F5.093245096090945e-07
sVdeserved
p2604
F1.0849826458327775e-09
sVstate-of-the-art
p2605
F2.5712682542906298e-08
sVexaggerated
p2606
F5.6005611207480804e-08
sVdisoriented
p2607
F3.6695375875087005e-08
sVin-depth
p2608
F2.1247505675860347e-07
sVreduced
p2609
F1.5963359662489224e-09
sVfrightful
p2610
F2.12140956501537e-08
sVself-executing
p2611
F3.9915456127850417e-07
sVcomplimentary
p2612
F3.930136053370131e-07
sVshiny
p2613
F1.1116058567675668e-07
sVyouthful
p2614
F2.1311522498155572e-10
sVenlightening
p2615
F1.3518618929018952e-07
sVcredible
p2616
F7.328496987721256e-08
sVshipshape
p2617
F1.1794258517007157e-08
sVwell-organised
p2618
F0.0
sVabusive
p2619
F6.629234467613292e-08
sVintegral
p2620
F0.00029240735344475725
sVnonsense
p2621
F3.561295959759253e-08
sVawaited
p2622
F8.427091108403283e-10
sVappropriate
p2623
F4.550637386645664e-05
sVprimarily
p2624
F1.8566936128144366e-06
sVconscientious
p2625
F1.9064507530265222e-10
sVproportional
p2626
F3.930722901920363e-05
sVdelusional
p2627
F1.1520538601404254e-08
sVunnerving
p2628
F1.9036308902771518e-08
sVcalming
p2629
F3.6404761755687505e-08
sVimpressed
p2630
F5.593449276059685e-08
sVsonny
p2631
F2.029965191423594e-09
sVinfuriating
p2632
F0.0
sVeleven
p2633
F3.147003926873962e-11
sVdismal
p2634
F3.34134680819306e-08
sVhands-on
p2635
F3.021986740709552e-09
sVbusiness-friendly
p2636
F1.735325262517851e-08
sVquestion
p2637
F1.064782882014673e-13
sVpractice-oriented
p2638
F4.898867487693449e-09
sVfast
p2639
F1.404621330831058e-06
sVaccountability
p2640
F0.0
sVconsultation
p2641
F0.0
sVinfected
p2642
F5.448128680200098e-07
sVprettier
p2643
F1.0080973826992025e-07
sVconceivable
p2644
F9.806923974204537e-09
sVbored
p2645
F7.905993542259306e-10
sVgoodto
p2646
F0.0
sVwell-organized
p2647
F1.8576001271357534e-08
sVconsiderably
p2648
F1.624194546347935e-07
sVforeverything
p2649
F1.9253862271868212e-08
sVperplexing
p2650
F1.3347320886204116e-11
sVelsewhere
p2651
F1.0889191374555349e-07
sVrelaxed
p2652
F2.90103502978448e-07
sVaudacious
p2653
F2.95682851126063e-08
sVapplicable
p2654
F2.1998986210816545e-05
sVunheard-of
p2655
F4.303742067816879e-09
sVarchaic
p2656
F2.373399537759203e-10
sVproperly
p2657
F7.13571423888615e-08
sVmajeure
p2658
F1.0403906292207432e-05
sVnewer
p2659
F7.588102594921122e-08
sVfiled
p2660
F0.0
sVupright
p2661
F6.3037174118308415e-09
sVconsiderable
p2662
F2.04067567142426e-05
sVinfo
p2663
F0.0
sVcharmed
p2664
F2.2356161571195047e-08
sVinhumane
p2665
F1.0251486207214127e-09
sVup
p2666
F2.5747146771227053e-10
sVus
p2667
F0.0
sVgratifying
p2668
F9.682334341019123e-09
sVdickish
p2669
F7.270595916732227e-10
sVaccustomed
p2670
F0.0
sVmature
p2671
F2.1393968831151463e-07
sVsuitable
p2672
F9.901300441004928e-07
sVheterogeneous
p2673
F0.0
sVexport
p2674
F0.0
sVautonomous
p2675
F1.4282119882994361e-09
sVloving
p2676
F0.0
sVsimilar
p2677
F2.229617750515054e-07
sVcalled
p2678
F0.0
sVsunnier
p2679
F1.0443477739460335e-09
sVawestruck
p2680
F1.1784301616668353e-08
sVdevastating
p2681
F6.908039819012047e-08
sVassociated
p2682
F5.771029835804754e-08
sVworthwhile
p2683
F3.284171024627778e-06
sVmindful
p2684
F1.6432306943767736e-09
sVdefined
p2685
F3.80207294685197e-15
sVspecified
p2686
F3.5912953230987314e-07
sVunsafe
p2687
F1.1315495688794585e-06
sVinterwoven
p2688
F3.928794032063941e-09
sVlye
p2689
F3.679240761018344e-05
sVconsulted
p2690
F0.0
sVdiverse
p2691
F1.5572562193381476e-06
sVevening
p2692
F3.4855863358972334e-10
sVunwise
p2693
F1.4671522648885307e-07
sVgraceful
p2694
F0.0
sVsteeper
p2695
F3.797778168721306e-07
sVre-established
p2696
F1.4812245158299692e-10
sVactionable
p2697
F2.540236627521126e-07
sVpredictability
p2698
F3.7524388655227965e-08
sVdivine
p2699
F3.1330433218381013e-09
sVpuzzling
p2700
F5.035427809691166e-08
sVtentative
p2701
F1.214180191562482e-08
sVmalicious
p2702
F7.402020351643562e-09
sVcohesive
p2703
F2.7982741471942605e-08
sVinvalid
p2704
F1.0703013963488565e-07
sVdemocratically
p2705
F4.33993058333111e-09
sVunjustifiable
p2706
F3.3681095954465805e-08
sVrealisable
p2707
F9.70059554281896e-09
sVnice
p2708
F6.808468388806212e-07
sVenergetic
p2709
F1.5980022324666854e-08
sVsmitten
p2710
F7.975203104014169e-09
sVlucid
p2711
F1.9714520025650534e-08
sVlong-lasting
p2712
F4.498071638317257e-09
sVprepared
p2713
F5.846343569230568e-05
sVtreatable
p2714
F1.205492604146442e-09
sVgenerated
p2715
F0.0
sVbad-ass
p2716
F7.309854255433025e-09
sVago
p2717
F0.0
sVfurthest
p2718
F1.9051496890145302e-08
sVtailored
p2719
F0.0
sVhappier
p2720
F1.340879225475714e-07
sVpractically
p2721
F5.547727326523195e-07
sVnon-discriminatory
p2722
F1.3498920086393092e-09
sVsounder
p2723
F1.4192838121353956e-09
sVappalling
p2724
F1.2222769378668023e-07
sVimpatient
p2725
F5.904489227619103e-05
sVlogical
p2726
F1.3092139363455027e-07
sValigned
p2727
F2.980195639045069e-09
sVenrolled
p2728
F0.0
sVignorant
p2729
F6.846874558980897e-09
sVnice-looking
p2730
F0.0
sVintentional
p2731
F1.2740672442612851e-07
sVmodernizing
p2732
F9.986554248810597e-11
sVpartial
p2733
F6.20893653301193e-08
sVashamed
p2734
F1.6951947264656273e-08
sVissued
p2735
F4.1912117940759463e-10
sVexisting
p2736
F4.00410027098969e-08
sVenjoyable
p2737
F3.960217201107535e-08
sVsofter
p2738
F5.9023517791702487e-05
sVbroader
p2739
F6.561227784499758e-06
sVdainty
p2740
F1.1679727159964558e-08
sVgo
p2741
F3.39057076822743e-11
sVhumid
p2742
F4.271142683585313e-10
sVpsycho
p2743
F2.5154636425626084e-08
sVwell-targeted
p2744
F7.986454765508569e-09
sVworrisome
p2745
F3.502146657381628e-08
sVcompact
p2746
F0.0
sVgraver
p2747
F4.289527074346242e-05
sVlongstanding
p2748
F6.414464190099901e-10
sVdisposal
p2749
F0.0
sVconcerned
p2750
F3.6997259819697087e-08
sVfried
p2751
F8.099771607959011e-10
sVyoung
p2752
F3.729516437177225e-10
sVgovernment-owned
p2753
F5.003625955748989e-10
sVintensive
p2754
F2.8583144318748524e-07
sVmulti-layered
p2755
F0.0
sVobstinate
p2756
F1.5523628888700663e-08
sVexcluded
p2757
F2.5747146771227053e-10
sVstable
p2758
F1.670328228094655e-07
sVexpeditious
p2759
F1.0180853954572878e-06
sVfatal
p2760
F1.0066347667288197e-06
sVfriendly
p2761
F1.2891035098040104e-07
sVscarlett
p2762
F0.0
sVinter-dependent
p2763
F5.802616430124068e-09
sVvirtuous
p2764
F8.239086966792657e-09
sVwished
p2765
F0.0
sVpresently
p2766
F1.8022651071251627e-09
sVsusceptible
p2767
F8.498110396238502e-08
sVunhurt
p2768
F1.4192838121353956e-09
sVcelebrities
p2769
F8.911128845463811e-09
sVdisquieting
p2770
F4.316396098652089e-08
sVwell-done
p2771
F1.7317044059579255e-06
sVpopulous
p2772
F0.0
sVimplausible
p2773
F2.083736271621622e-08
sVcontinued
p2774
F3.8665884634957084e-09
sVedible
p2775
F1.6957728815696098e-08
sVtimely
p2776
F1.3331428615123674e-06
sVseverely
p2777
F2.94782408534969e-07
sVmagic
p2778
F1.2262184215965446e-08
sVrespectful
p2779
F1.0527061733640112e-08
sVstiff
p2780
F3.927441134311228e-07
sVuncompetitive
p2781
F2.317422074370608e-09
sVfewer
p2782
F6.920510247326981e-07
sV'sgoing
p2783
F1.408070182289715e-09
sVtry
p2784
F0.0
sVbrutal
p2785
F3.833295655050068e-07
sVrace
p2786
F0.0
sVbusier
p2787
F1.496204463450881e-08
sVreyes-torrena
p2788
F4.773435439357246e-09
sVco-financing
p2789
F0.0
sVtrite
p2790
F5.374056540359799e-12
sVmanifestly
p2791
F8.3572525639297e-08
sVsedentary
p2792
F3.644373778008219e-10
sVnoted
p2793
F1.6370639296705072e-12
sVconcluded
p2794
F0.0
sVsomeday
p2795
F0.0
sVsmaller
p2796
F1.0657508700873725e-05
sVmalignant
p2797
F3.966613060394694e-09
sVunprofitable
p2798
F1.6387567473201105e-08
sVjump
p2799
F0.0
sVegocentric
p2800
F8.436825053995683e-11
sVuncomfortable
p2801
F2.4452618190830053e-07
sVunattractive
p2802
F5.779910783395221e-08
sVodd
p2803
F1.7457335954405862e-07
sV-just
p2804
F1.1880520494963672e-06
sVrequired
p2805
F0.004729247751809876
sVhourly
p2806
F0.0
sVunavailable
p2807
F7.602421834784961e-09
sVjunior
p2808
F0.0
sVmarketed
p2809
F1.6034347964317807e-10
sVexpressed
p2810
F0.0
sVoverwhelmed
p2811
F4.891770859034688e-08
sVunhelpful
p2812
F2.6207614050272517e-07
sVrotten
p2813
F6.617218247081448e-07
sVindian
p2814
F2.6365078293736503e-07
sVvolatile
p2815
F1.381131708382445e-07
sVpolluting
p2816
F0.0
sVindustrialized
p2817
F0.0
sVpristine
p2818
F1.1794258517007157e-08
sVimplementable
p2819
F1.9600408497347985e-07
sVjustification
p2820
F5.342101325327607e-10
sVcozy
p2821
F1.1806379186011408e-08
sVstrained
p2822
F6.282173488684487e-09
sVsobering
p2823
F4.401636112322605e-08
sVcommercial
p2824
F1.6034347964317807e-10
sVconsideration
p2825
F0.0
sVnonexistent
p2826
F7.24947666804982e-10
sVyoungest
p2827
F5.317678122660395e-07
sVdesired
p2828
F0.0
sVfocused
p2829
F1.8784284503316396e-06
sVothers
p2830
F0.00010182402633973333
sVsexy
p2831
F7.509178598704058e-08
sVsafer
p2832
F1.8614787218407775e-07
sVfifteen
p2833
F3.147003926873962e-11
sVirritating
p2834
F0.0
sVextreme
p2835
F4.2433327928454667e-05
sVgreat
p2836
F2.7746427750506726e-05
sVlosin
p2837
F2.0869973788661933e-09
sVbroken
p2838
F0.0
sVtechnical
p2839
F8.925677547358712e-09
sVinvolved
p2840
F4.117433440782083e-09
sVlarger
p2841
F0.00022323315797415848
sVunconditional
p2842
F4.624034173418128e-05
sVnervous
p2843
F1.80895726832355e-07
sVprincipally
p2844
F1.8566936128144366e-06
sVdisconcerting
p2845
F1.4364657644794831e-08
sVcommendable
p2846
F2.2770743026012764e-07
sVup-to-date
p2847
F3.3190050361865724e-09
sVpanicked
p2848
F2.8934179600591815e-08
sVasinine
p2849
F6.322875207395261e-09
sVdanger
p2850
F6.852647118745205e-08
sVclare
p2851
F1.901036473425985e-15
sVwin
p2852
F0.0
sVlimp
p2853
F0.0
sVworthy
p2854
F6.903216775568221e-07
sVclara
p2855
F2.3614026260618445e-09
sVcrazy
p2856
F2.556514287037728e-07
sVprivate
p2857
F3.719032311399463e-10
sVsacrilegious
p2858
F5.5951951832317395e-09
sVimprobable
p2859
F6.986926575717231e-09
sVstupider
p2860
F4.477082886616532e-09
sVstanding
p2861
F1.6034347964317807e-10
sVuse
p2862
F0.0
sVsadder
p2863
F0.0
sVe.g.
p2864
F4.987147541936935e-10
sVnewsworthy
p2865
F9.406834380450894e-10
sVillegal
p2866
F4.1714838472950206e-07
sVreadable
p2867
F1.7548824464425284e-09
sVseamless
p2868
F3.077516730104642e-08
sVnext
p2869
F8.00394082889716e-07
sVfew
p2870
F1.939147605648207e-07
sVdoubt
p2871
F0.0
sVsubsidized
p2872
F2.6365078293736503e-07
sVagreeable
p2873
F1.7230687594879067e-08
sVexhaustive
p2874
F8.541243115432689e-08
sVnoisy
p2875
F8.084575293116346e-09
sVwell-reputed
p2876
F1.1407704351635544e-10
sVindefensible
p2877
F2.863180026229237e-08
sVclever
p2878
F3.767860816098444e-07
sVbabe
p2879
F0.0
sVdysfunctional
p2880
F2.378621053447183e-08
sVsorr
p2881
F3.821933765318595e-09
sVcost-efficient
p2882
F4.228091660631555e-08
sVstarted
p2883
F0.0
sVrarest
p2884
F9.044109956200894e-09
sVvisibility
p2885
F1.8575034793839163e-09
sVcharming
p2886
F1.0314318573492412e-07
sVsore
p2887
F1.4560663462694053e-07
sVtransient
p2888
F2.3307622742017163e-09
sVfaultless
p2889
F3.038124437248916e-08
sVcentral
p2890
F0.00029940514285604073
sVunforgiving
p2891
F8.436825053995683e-11
sVappointed
p2892
F2.6365078293736525e-12
sVgrim
p2893
F1.6774764221619676e-06
sVuncontroversial
p2894
F4.688198952217373e-09
sVdisingenuous
p2895
F1.516158362930047e-08
sVintegrating
p2896
F3.793451570328962e-10
sVthis
p2897
F1.2479175233239435e-09
sValia
p2898
F6.691969770923871e-07
sVanywhere
p2899
F2.375536823966172e-08
sVobvious
p2900
F1.3894267135176303e-06
sVthin
p2901
F1.6863037487644463e-08
sVindustrial
p2902
F2.8230498406257492e-12
sV-lnteresting
p2903
F4.4183442388837986e-08
sVperformed
p2904
F3.3905707682274324e-11
sVoverall
p2905
F5.606196919542378e-08
sVindisposed
p2906
F1.3547093797520267e-09
sVweaker
p2907
F4.734863893241432e-06
sVproprietary
p2908
F3.674288191412075e-09
sVthirsty
p2909
F4.376081494619777e-08
sVslim
p2910
F4.182871197022561e-08
sVloco
p2911
F1.0927203072241871e-08
sVhigh
p2912
F7.41549237500072e-06
sVeffectively
p2913
F1.7237064304797905e-09
sVapplication
p2914
F4.8983720778420065e-06
sVsomething
p2915
F0.0
sVwonderful
p2916
F3.472610707007092e-06
sVexpandable
p2917
F5.424913229163892e-10
sVcowardly
p2918
F2.6365078293736503e-07
sVtan
p2919
F4.9285694398086914e-08
sVupstanding
p2920
F0.0
sVpsyched
p2921
F8.71696956141009e-08
sVeducational
p2922
F4.843584632963042e-07
sVwell-founded
p2923
F7.165959463805807e-09
sVvaried
p2924
F3.4938084509523423e-08
sVfriendlier
p2925
F1.9444488520132518e-08
sVlame
p2926
F2.7021175066433896e-08
sVbuoyant
p2927
F5.443751169348339e-08
sVjustifiable
p2928
F2.1969579819300916e-08
sVneurotic
p2929
F3.6891030298911253e-07
sVdelay
p2930
F6.971172671794467e-10
sVwell-respected
p2931
F1.411284382110898e-08
sVinstead
p2932
F5.769996932325921e-08
sVthin-skinned
p2933
F3.674288191412075e-09
sVcounterfeit
p2934
F2.978277514932747e-08
sVimmoral
p2935
F1.0880319035225243e-06
sVabrasive
p2936
F2.5747146771227053e-10
sVoverridden
p2937
F1.5686962749887858e-11
sVsir
p2938
F9.20917225024821e-15
sV-surprised
p2939
F1.6187765922927308e-08
sVfactored
p2940
F3.793451570328962e-10
sVfluid
p2941
F3.973236114513498e-09
sVpermanent
p2942
F1.6034347964317807e-10
sVseropositive
p2943
F1.7192132322061463e-09
sVlegality
p2944
F2.7186618884760663e-09
sVinsufficient
p2945
F3.018454789066636e-07
sVcabbage
p2946
F2.3228572275199676e-09
sViate
p2947
F2.09135180153834e-09
sVsolidarity
p2948
F3.2267270199578866e-09
sVunforeseeable
p2949
F1.5206130937095435e-08
sVnon-transparent
p2950
F6.326969594679754e-09
sVdefective
p2951
F3.530385857904319e-09
sVlight
p2952
F3.606320345081512e-07
sVcounter
p2953
F1.587600016175193e-08
sVarduous
p2954
F7.92843466007058e-07
sVredundant
p2955
F5.0816260325571336e-06
sVclaire
p2956
F3.54210298857453e-09
sVcrazed
p2957
F1.3467703357231004e-08
sVsix-year
p2958
F3.147003926873962e-11
sVclassy
p2959
F1.9253221229280528e-09
sVwell-managed
p2960
F8.436825053995683e-11
sVsecured
p2961
F2.058624299375635e-09
sVmieux
p2962
F1.5730919906664572e-07
sVgloomy
p2963
F1.5963766290723587e-06
sVrusted
p2964
F2.169965291665555e-09
sVcreation
p2965
F0.0
sVnon-exclusive
p2966
F6.02404298781309e-10
sVever-changing
p2967
F2.061696689140665e-08
sVin-house
p2968
F2.5099140399820573e-10
sVmove
p2969
F0.0
sVfacilitated
p2970
F1.7168320838699908e-08
sVmeager
p2971
F8.892615980912664e-08
sVstatutory
p2972
F9.892970157153793e-05
sVdocile
p2973
F2.6365078293736503e-07
sVstimulating
p2974
F4.081276986297427e-09
sVflattering
p2975
F3.8497004585245617e-07
sVfertile
p2976
F4.770917562161983e-09
sVinteroperable
p2977
F8.734197912022616e-09
sVhappiest
p2978
F6.315768093056354e-09
sVoperative
p2979
F3.173446504865551e-10
sVcontaminated
p2980
F8.239086966792657e-09
sVperfect
p2981
F2.8138053291670415e-06
sVsuperior
p2982
F1.3602946111482606e-06
sVmulti-dimensional
p2983
F0.0
sVcontemplated
p2984
F2.2526085570193098e-10
sVchosen
p2985
F3.3905707682274324e-11
sVchoosy
p2986
F1.6841616795106756e-07
sVunreal
p2987
F1.870602862685057e-07
sVwinning
p2988
F0.0
sVmental
p2989
F5.785923913034165e-09
sVprimordial
p2990
F0.00029451737165938355
sVpilot-tested
p2991
F3.4964274973908462e-09
sVcriminal
p2992
F8.958391736918421e-09
sVpending
p2993
F4.0400320124700654e-08
sVpure
p2994
F4.818190801026987e-09
sVbolder
p2995
F4.7888783290179095e-08
sVmaterial
p2996
F9.769541089950172e-06
sVcommended
p2997
F0.0
sVcommitment
p2998
F5.081304388082178e-10
sVheavy-handed
p2999
F3.186897474390184e-07
sVstout
p3000
F3.923978021755012e-08
sVapolitical
p3001
F2.1355713417926565e-10
sVimpaired
p3002
F0.0
sVdocumented
p3003
F1.5686962749887826e-11
sVtransparent
p3004
F9.309082836994906e-08
sVfragmented
p3005
F2.6365078293736503e-07
sVcrass
p3006
F1.2050321833873263e-08
sVancient
p3007
F1.568696274988784e-11
sVtransitional
p3008
F1.0026569425937408e-10
sVprofound
p3009
F3.025444010009953e-06
sVestablishment
p3010
F0.0
sVradiant
p3011
F1.0443477739460335e-09
sVwell-tolerated
p3012
F0.0
sVunpredictable
p3013
F2.6092336254954072e-08
sVdelightful
p3014
F3.160210884828908e-07
sVtruth
p3015
F7.270595916732227e-10
sVshaking
p3016
F3.110350770457725e-08
sVexpressly
p3017
F1.1807003625126854e-09
sVexperienced
p3018
F8.527867745851652e-09
sVprevailing
p3019
F4.4484329290047076e-07
sVdoing
p3020
F0.0
sVtepid
p3021
F1.10114000475253e-08
sVmet
p3022
F4.82605231906755e-08
sVsecretive
p3023
F5.619718125450614e-09
sVrelated
p3024
F2.3131830009154846e-11
sVaggravated
p3025
F1.1022108707772277e-06
sVstatic
p3026
F1.966250874903743e-08
sVthirteen
p3027
F3.147003926873962e-11
sVspecial
p3028
F2.156711940691959e-06
sVout
p3029
F2.6997840172786163e-14
sVmid-
p3030
F1.8754104050852553e-09
sVlukewarm
p3031
F6.728124825738409e-10
sVtwice
p3032
F0.0
sVundemocratic
p3033
F4.33993058333111e-09
sVshallow
p3034
F3.424553298764989e-08
sVsingular
p3035
F1.8803073068328883e-09
sVunlawful
p3036
F3.1787751209972607e-07
sVenforceable
p3037
F4.167314100980347e-07
sVwholly
p3038
F7.862467778804005e-10
sVoriental
p3039
F8.812985618718003e-10
sVwondrous
p3040
F1.5190407710242912e-07
sVhilarious
p3041
F1.0085021769336743e-06
sVunprepared
p3042
F2.0927652244713477e-06
sVhonorable
p3043
F3.499461572953651e-08
sVadaptive
p3044
F1.0299946968620075e-10
sVintegrated
p3045
F8.42027964076647e-09
sVannounced
p3046
F6.25700753231048e-10
sVtrashy
p3047
F6.656894057955785e-09
sVfrank
p3048
F1.6942246930493522e-08
sVstepped-up
p3049
F1.2167075865437843e-07
sVhumiliating
p3050
F7.976105998808903e-09
sVincalculable
p3051
F2.4304471671655085e-07
sVgreedy
p3052
F3.2954238660907127e-07
sVpromptly
p3053
F4.65363426464274e-09
sVfourteen
p3054
F3.147003926873962e-11
sVclarify
p3055
F1.721887556221458e-07
sVcompletely
p3056
F1.830318561866797e-08
sVsurely
p3057
F5.6166605648799304e-09
sVtied
p3058
F9.017378447581413e-09
sVearly
p3059
F1.0849826458327775e-09
sVapt
p3060
F1.256404639692359e-07
sVmoody
p3061
F8.379500391052813e-10
sVimpulsive
p3062
F2.7803188833471365e-10
sVprincess
p3063
F0.0
sVshortest
p3064
F2.029965191423594e-09
sVtwo-pronged
p3065
F6.155117731710846e-09
sVorganic
p3066
F3.4706398230856227e-09
sVhostile
p3067
F2.5747146771227053e-10
sVdetermining
p3068
F7.544150883318132e-05
sVbetter-educated
p3069
F6.78114153645486e-11
sVdiminished
p3070
F6.256553119350594e-09
sVfeasible
p3071
F2.7274812460511264e-07
sVchilly
p3072
F8.969070058105434e-09
sVmortal
p3073
F1.9848448480953074e-08
sVhence
p3074
F3.5037338532664605e-05
sVretail
p3075
F1.205492604146442e-09
sVcomprende
p3076
F1.5028453917138733e-09
sVsouth
p3077
F3.831874744779532e-09
sVmad
p3078
F9.591387626860656e-08
sVfledged
p3079
F0.0
sVdistracted
p3080
F4.130972843341387e-07
sVswifter
p3081
F1.1748742512531525e-07
sVpowerful
p3082
F1.4903233153209724e-05
sVowned
p3083
F0.0
sVsoothing
p3084
F2.6365078293736503e-07
sVembarrassed
p3085
F5.297798659311993e-08
sVsuch
p3086
F1.1233321129759861e-08
sVstarker
p3087
F0.0
sVprecisely
p3088
F2.803056019812115e-09
sVquality
p3089
F4.464949159805664e-12
sVendemic
p3090
F8.546265576744604e-09
sVopportune
p3091
F2.507395279099234e-07
sVfella
p3092
F0.0
sVtwo-
p3093
F0.0
sVsadly
p3094
F1.4812245158299692e-10
sVfair
p3095
F3.525903974620175e-07
sVstrict
p3096
F3.866099038851204e-07
sVnon-partisan
p3097
F9.57999837063816e-10
sVunknown
p3098
F3.618646900774104e-08
sVdurable
p3099
F1.6726063392082973e-09
sVvulgar
p3100
F6.656894057955785e-09
sVopening-up
p3101
F4.577665072478508e-09
sVadopted
p3102
F6.2194162480193496e-09
sVlamentable
p3103
F1.75725524390001e-08
sVimmovable
p3104
F0.0
sVintermediate
p3105
F8.555317631544559e-07
sVinalienable
p3106
F0.00014854344921669182
sVprouder
p3107
F3.430564904928186e-09
sVperfectly
p3108
F3.5334481138790164e-09
sVfairest
p3109
F2.3875860519045183e-07
sVpainful
p3110
F3.310139398626883e-07
sVfutile
p3111
F1.7836387890982332e-07
sVpervasive
p3112
F5.844933753330433e-07
sVunder-inclusive
p3113
F1.565854420292093e-08
sVco-dependent
p3114
F8.553741357942037e-09
sVchallenging
p3115
F8.135695199056065e-07
sVambiguous
p3116
F1.2650672710398314e-07
sVin-progress
p3117
F2.2727677817097267e-09
sVcompleted
p3118
F8.461165540044234e-08
sVunoccupied
p3119
F8.628142948720436e-09
sVapologise
p3120
F8.25325532686002e-10
sVself-sustaining
p3121
F6.111028765772471e-08
sVdepressing
p3122
F1.8171360025024536e-08
sVenvironmental
p3123
F1.2749576348645639e-08
sVabsent-minded
p3124
F3.5068317617516445e-08
sVtroubling
p3125
F2.026610282195013e-07
sVinterestedin
p3126
F6.441347942491227e-09
sVinestimable
p3127
F2.0997383295309876e-06
sVoverwhelming
p3128
F4.152996581299687e-06
sVastounded
p3129
F4.046941480731827e-09
sVdiscretionary
p3130
F1.1768599261633893e-07
sVupdating
p3131
F3.2191394936984665e-09
sVglamorous
p3132
F8.239086966792657e-09
sVdandy
p3133
F0.0
sVegregious
p3134
F3.788274764185394e-09
sVobjectionable
p3135
F9.927546855281267e-09
sVboring
p3136
F5.714647598352584e-10
sVcoast
p3137
F0.0
sVwell-established
p3138
F2.113828300669e-09
sVsubmitted
p3139
F0.0
sVappealing
p3140
F7.173300668768855e-09
sVexclusive
p3141
F1.0976250265365297e-09
sVcircumspect
p3142
F1.275834127713038e-10
sVidentical
p3143
F6.018525543426134e-08
sVbare
p3144
F6.199183997515069e-09
sVstricter
p3145
F1.581682864052197e-06
sVundamaged
p3146
F1.4183641680504846e-09
sVsteep
p3147
F2.6365078293736503e-07
sVdistinguished
p3148
F3.3905707682274324e-11
sVbeter
p3149
F5.769996932325921e-08
sVfalse
p3150
F3.110727271884266e-08
sVpoverty-stricken
p3151
F4.722749809376898e-10
sVunchanged
p3152
F2.159926387135409e-08
sVreassuring
p3153
F6.585199038523223e-08
sVtransitory
p3154
F3.0079708277812223e-10
sVgentle
p3155
F4.6496644260032956e-08
sVthereto
p3156
F5.769996932325921e-08
sVpitiable
p3157
F2.5788020941651627e-09
sVunlikely
p3158
F8.286028388159411e-08
sVmiserable
p3159
F2.891178564795626e-07
sVneed
p3160
F0.00011970400376857702
sVrepresentativeness
p3161
F5.4927246445284375e-09
sVconstrained
p3162
F2.668410009195753e-09
sVstillborn
p3163
F2.1235786314535264e-09
sVclearly
p3164
F2.1163079917027367e-08
sVvis-
p3165
F0.0
sVunbearable
p3166
F1.2634174918020898e-09
sVbastard
p3167
F3.4950768173613317e-10
sVafraid
p3168
F4.4260140006812096e-08
sVable
p3169
F8.533868816177962e-10
sVaccelerated
p3170
F4.070164796930702e-08
sVcross-border
p3171
F2.6365078293736503e-07
sVpivotal
p3172
F0.0011191297567673879
sVasshole
p3173
F3.4950768173613317e-10
sVseductive
p3174
F3.3047465395483996e-09
sVcompetence
p3175
F3.4964274973908462e-09
sVdeader
p3176
F2.1235786314535264e-09
sVaccuracy
p3177
F1.4930774553684874e-07
sVpatchy
p3178
F0.0
sVtonight
p3179
F0.0
sVaxiomatic
p3180
F7.296725393515718e-08
sVdo-able
p3181
F5.990856358092289e-09
sVharmful
p3182
F1.1015802538562324e-06
sVfurious
p3183
F2.8297449950418837e-08
sVconnected
p3184
F1.0329034788328057e-11
sVpreliminary
p3185
F1.0026569425937408e-10
sValarmed
p3186
F5.779165173493613e-08
sVwhy
p3187
F2.1811787750196684e-09
sVprobable
p3188
F2.6293454996299934e-08
sVso-called
p3189
F0.0
sVrefreshing
p3190
F6.1342356699849e-08
sVundeniable
p3191
F9.949096683253908e-09
sVenthusiastic
p3192
F7.840398309471678e-08
sVupset
p3193
F1.7713877201449665e-07
sVrepeated
p3194
F2.5747146771227053e-10
sVreconcilable
p3195
F1.3089144926932617e-09
sVastonishing
p3196
F2.420036952119309e-07
sVabsurd
p3197
F2.206974653631224e-08
sVmechanical
p3198
F2.6365078293736503e-07
sVwounded
p3199
F1.3089669569578226e-09
sVskinny
p3200
F3.095720768000494e-07
sVtypical
p3201
F1.771796638875912e-07
sVnormally
p3202
F1.6553526482271591e-09
sVemerging
p3203
F3.6086622061951586e-09
sVioaded
p3204
F1.6792516376663618e-09
sVreprehensible
p3205
F1.1828495468868696e-08
sVannually
p3206
F0.0
sVagreed
p3207
F2.2093047518427104e-08
sVsupported
p3208
F4.4576002247770574e-07
sVwoolly
p3209
F4.408097153035445e-09
sVunsolved
p3210
F3.812755234299093e-08
sVunfathomable
p3211
F1.3347320886204116e-11
sVsouth-east
p3212
F3.388072389554111e-10
sVplanning
p3213
F2.2526085570193098e-10
sVunreliable
p3214
F3.072984832386896e-08
sVtelling
p3215
F0.0
sVcareful
p3216
F7.380959212959597e-08
sVdarkest
p3217
F2.9308050613621074e-08
sVtrivial
p3218
F1.8261390689209478e-07
sVpleased
p3219
F1.6078151647385348e-07
sVprincipal
p3220
F0.00024855590583753066
sVloveable
p3221
F3.828254269680872e-08
sVinspiring
p3222
F5.23461267775396e-09
sVholistic
p3223
F5.225275839429404e-09
sVbased
p3224
F0.0
sVnaturalistic
p3225
F7.208280740273934e-08
sVhopeful
p3226
F4.249780347875352e-09
sVrash
p3227
F5.8097843734576646e-08
sVoperational
p3228
F1.4573838478217042e-09
sVbrighter
p3229
F9.001479809554271e-07
sVsmallest
p3230
F3.6261612579892503e-06
sVhouse-trained
p3231
F1.5976983827892615e-09
sVgirlie
p3232
F1.4137319263673428e-09
sVhandsome
p3233
F2.3600243283705464e-07
sVvice-chairman
p3234
F9.535980285639649e-09
sVinferior
p3235
F2.88076046301934e-07
sVdemonstrated
p3236
F1.1807003625126854e-09
sVregularly
p3237
F5.6227469611294534e-09
sVrighteousness
p3238
F7.270595916732227e-10
sVexceptional
p3239
F2.4152908320717984e-07
sVfamiliar
p3240
F2.155477678478304e-08
sVdope
p3241
F0.0
sVcranky
p3242
F8.239086966792657e-09
sVlucky
p3243
F6.273977067033391e-08
sVmum
p3244
F3.2148953507015376e-09
sVlegitimate
p3245
F2.6791787935601843e-08
sVaforementioned
p3246
F6.71159338335966e-10
sVdistraught
p3247
F1.7524584256309714e-08
sVself-evident
p3248
F2.2335067925305096e-07
sVunjustified
p3249
F3.744818996131036e-08
sVdodgy
p3250
F3.674288191412075e-09
sVnearly
p3251
F2.7884157711224084e-07
sVfollowing
p3252
F0.0
sVcontemptible
p3253
F5.435413985915567e-10
sVwhilst
p3254
F4.987147541936935e-10
sVshy
p3255
F1.9447699058879642e-07
sVmarried
p3256
F2.990528077323673e-08
sVself-financing
p3257
F5.039929830212559e-08
sVaffluent
p3258
F8.547195779017733e-10
sVhollow
p3259
F8.23337898570392e-09
sVyellow
p3260
F1.2658697710358228e-09
sVstreamlined
p3261
F1.6209549507396347e-07
sVwish
p3262
F0.0
sVunfeasible
p3263
F7.631728173293997e-10
sVuniformed
p3264
F7.425283419329354e-09
sVtruer
p3265
F2.2351955875333204e-07
sVstrengthened
p3266
F3.2851701141559973e-06
sVuntrue
p3267
F5.940635432153914e-08
sVdeterminative
p3268
F0.00011962217863728483
sVacquired
p3269
F1.450689570638574e-13
sVcatastrophic
p3270
F1.5686962749887858e-11
sVhither
p3271
F1.1887973067316446e-10
sVheeded
p3272
F1.3447600512008124e-10
sVturbulent
p3273
F3.973236114513498e-09
sVreiterate
p3274
F2.5747146771227053e-10
sVmentioned
p3275
F1.064782882014673e-13
sVidentified
p3276
F1.8374276377801143e-14
sVaccused
p3277
F1.926771117572524e-10
sVenhanced
p3278
F1.3830263427004528e-06
sVoperated
p3279
F8.436825053995683e-11
sVhumane
p3280
F4.509566203951017e-09
sVcloser
p3281
F4.16689691259393e-07
sVdisjunct
p3282
F2.509914039982054e-10
sVbrittle
p3283
F1.119366187421911e-08
sVinsulting
p3284
F2.149956589434843e-08
sVflicka
p3285
F2.6365078293736503e-07
sVgenius
p3286
F1.6921802607122728e-07
sVsee-through
p3287
F6.326969594679754e-09
sVillusory
p3288
F9.563584536307843e-09
sVbelow
p3289
F1.330711430955422e-07
sVincreased
p3290
F5.20238272768683e-06
sVsuperb
p3291
F1.7744761664193447e-06
sVinitially
p3292
F2.169965291665555e-10
sVwritten
p3293
F9.64516362591802e-09
sVquickest
p3294
F4.896279041351994e-07
sVarguable
p3295
F8.656635754959297e-09
sVcorrectly
p3296
F7.270595916732227e-10
sVhorrible
p3297
F1.8701981955186785e-06
sVcrude
p3298
F3.075753772570231e-08
sVprogress
p3299
F1.8566936128144366e-06
sVsold
p3300
F0.0
sVpetrified
p3301
F1.0372458862991365e-08
sVcomparable
p3302
F2.910094918205179e-07
sVattention
p3303
F4.757393723666024e-09
sVexplosive
p3304
F8.683204811375651e-08
sVopening
p3305
F2.5736394544629252e-09
sVmissing
p3306
F7.258257119598551e-09
sVregretful
p3307
F3.600932914498958e-09
sVindiscriminate
p3308
F2.6130720100059063e-08
sVpre-established
p3309
F1.450689570638574e-13
sVkey
p3310
F0.0008686940976286169
sVfanta
p3311
F4.810389648937078e-08
sVprecious
p3312
F2.7500390668038165e-06
sVweary
p3313
F2.9114930914989528e-09
sVoptional
p3314
F1.1430269849102514e-09
sVproblem
p3315
F3.2148953507015376e-09
sVlegit
p3316
F1.9385765258057083e-07
sVundetermined
p3317
F4.165207708220735e-09
sVdiligent
p3318
F7.117911699639058e-09
sVretrievable
p3319
F5.67905210642484e-09
sVfreely
p3320
F2.3168907289283635e-09
sVold-timer
p3321
F6.294007853747924e-11
sVequal
p3322
F2.179375214102331e-06
sVfulfilled
p3323
F2.5747146771227053e-10
sVetc
p3324
F0.0
sVbusted
p3325
F1.884736718756146e-08
sVilliquid
p3326
F0.0
sVhigh-ranking
p3327
F0.0
sVlofty
p3328
F5.340715534091927e-09
sVglorious
p3329
F4.049248938252308e-07
sVotherwise
p3330
F2.0682984754366144e-06
sVstrongly
p3331
F1.5980022324666854e-08
sVadjusted
p3332
F5.955700657650014e-10
sVrelevant
p3333
F6.2390732244031694e-06
sVperiodic
p3334
F0.0
sVauthorised
p3335
F2.3012778590385594e-09
sVco-financed
p3336
F0.0
sVupfront
p3337
F5.260673818181634e-09
sVnarrower
p3338
F5.488404295357143e-07
sVsupreme
p3339
F2.610871475405972e-06
sVgrowin
p3340
F2.029965191423594e-09
sVinvisible
p3341
F2.594875628762984e-08
sVcrafted
p3342
F0.0
sVdisturbing
p3343
F1.6313775125956593e-07
sVrespect
p3344
F7.05642191055449e-09
sVwithdrawn
p3345
F1.5686962749887858e-11
sVflourishing
p3346
F2.4939514521364496e-09
sVrusty
p3347
F1.0849826458327775e-09
sVtremendous
p3348
F1.1298793686043433e-05
sVdecent
p3349
F1.322521485304459e-07
sVintimidating
p3350
F7.863829961426336e-08
sVdefenseless
p3351
F2.005456124358807e-09
sVdazzling
p3352
F5.805864044791886e-09
sVrestless
p3353
F3.773284203805423e-06
sVsocio-economically
p3354
F0.0
sVblatant
p3355
F5.279241157643505e-08
sVpreoccupied
p3356
F3.6898665315725504e-09
sViike
p3357
F1.0684202650655213e-09
sVah
p3358
F1.1887973067316446e-10
sVupbeat
p3359
F4.0757814045201965e-09
sVfreak
p3360
F8.099771607959011e-10
sVmagical
p3361
F3.445067367436276e-09
sVrecurring
p3362
F0.0
sVkilled
p3363
F1.29736523904933e-08
sVclosed
p3364
F8.436825053995683e-11
sVshaun
p3365
F0.0
sVfilthy
p3366
F7.928308895646109e-08
sVdeterminant
p3367
F0.00012519225947572814
sVhomosexual
p3368
F0.0
sVcontrolled
p3369
F1.705982980864082e-08
sVwanna
p3370
F4.7179881455704015e-09
sVsufficient
p3371
F8.127906508421012e-08
sVmeritorious
p3372
F2.0991089890324405e-08
sVdefunct
p3373
F0.0
sVpolicy
p3374
F5.8516107234868734e-08
sVfinished
p3375
F2.8071047118856195e-09
sVensuring
p3376
F2.058624299375635e-09
sVtense
p3377
F4.511814826617832e-08
sVpro-active
p3378
F8.300698654847348e-09
sVbull
p3379
F8.733707079431599e-10
sVimproved
p3380
F1.2081262380755935e-07
sVbygones
p3381
F1.8415492486031828e-09
sVintelligible
p3382
F7.985767958938849e-09
sVpresent
p3383
F5.838506399482633e-08
sVinconspicuous
p3384
F1.5063890985967395e-09
sVtroubled
p3385
F3.836155690781679e-08
sVwelcoming
p3386
F0.0
sVde-insured
p3387
F1.5686962749887858e-11
sVfearful
p3388
F2.3937107418186217e-08
sVplain
p3389
F4.637309022687463e-07
sVharder
p3390
F4.920538478995907e-06
sVvalue
p3391
F1.2152235835827542e-07
sVpretentious
p3392
F0.0
sVimrtant
p3393
F1.2996855289701054e-05
sVstunning
p3394
F2.8200731322882094e-07
sVwild
p3395
F1.4194938056019266e-08
sVadvisable
p3396
F8.072365910604413e-07
sVdeductible
p3397
F5.310402693853676e-10
sVfrustrating
p3398
F4.36332580321057e-08
sVat
p3399
F0.0
sVlikable
p3400
F1.5467512598992088e-10
sVconcerted
p3401
F3.40201859004647e-09
sVripe
p3402
F1.4733174037452461e-06
sVresident
p3403
F3.5256238284676198e-09
sVunworkable
p3404
F6.676195328535124e-09
sVrespected
p3405
F7.858400128406883e-08
sVoptimistic
p3406
F7.306118217754364e-09
sVraison
p3407
F0.0
sVlightweight
p3408
F3.0618918814957886e-08
sVwell-behaved
p3409
F4.227811452112321e-08
sVscanty
p3410
F1.8798885037175272e-08
sVco-chair
p3411
F0.0
sVgreater
p3412
F0.00026552279431479164
sVvice-president
p3413
F2.8607940856918947e-09
sVwatchful
p3414
F5.283868099981255e-09
sVadded
p3415
F0.0
sVjusticiable
p3416
F7.324660602695798e-09
sVmimi
p3417
F4.122130859609154e-09
sVcross
p3418
F2.379089997766683e-09
sVundisturbed
p3419
F1.4183641680504846e-09
sVfoxy
p3420
F1.1895627702332882e-08
sVadverse
p3421
F3.35073817754604e-08
sVstrange
p3422
F1.8197152041895207e-07
sVswift
p3423
F6.842397630109201e-07
sVmerciful
p3424
F2.7206444976921874e-07
sVgeographical
p3425
F5.380775623603091e-09
sVspeedier
p3426
F1.1314284879774887e-07
sVconfrontational
p3427
F7.795764289600866e-09
sVfinite
p3428
F4.824523244824171e-09
sVprivileged
p3429
F9.517657513152049e-09
sVdifficult
p3430
F1.157606209310623e-05
sVinjured
p3431
F2.9858443215301608e-09
sVconflicting
p3432
F3.06355033250695e-09
sVunimaginable
p3433
F5.292587384696839e-09
sVunconventional
p3434
F8.045983366008454e-12
sVselfish
p3435
F8.436825053995683e-11
sVeccentric
p3436
F8.239086966792657e-09
sVre-routed
p3437
F2.5099140399820573e-10
sVprimary
p3438
F0.00039237993001196175
sVfucked
p3439
F4.420463299426576e-08
sVimpeccable
p3440
F6.724519695669691e-08
sVtighter
p3441
F4.132190578177875e-07
sVdoubtful
p3442
F3.733104984939234e-08
sVretard
p3443
F4.45198619069231e-10
sVoff
p3444
F3.2305823134514256e-09
sVwarranted
p3445
F0.00012708430230829216
sVphat
p3446
F1.249330248351051e-08
sVwell
p3447
F1.8513708995554886e-06
sVsoutheastern
p3448
F2.880043277033631e-09
sVrife
p3449
F8.66437532063373e-08
sVinsurmountable
p3450
F1.1431967183284879e-08
sVtouching
p3451
F4.645714455039935e-09
sVjuicy
p3452
F4.751102338256255e-09
sVredeemable
p3453
F3.3905707682274324e-11
sVdressed
p3454
F3.5153437724982e-07
sVfirstly
p3455
F0.0
sVsalient
p3456
F3.802569758966977e-06
sVuser-friendly
p3457
F1.7898983039373899e-07
sVlatest
p3458
F2.6264939100002557e-07
sVridonc
p3459
F6.162698042371718e-09
sVtaller
p3460
F1.3782308876678886e-05
sVinoperable
p3461
F1.9357518749378685e-10
sVwell-treated
p3462
F0.0
sVenormously
p3463
F7.759689970917159e-08
sVless
p3464
F5.6827921725532565e-06
sVincreasingly
p3465
F4.7178841217910853e-07
sVaccurate
p3466
F2.2409104776109957e-05
sVdomestic
p3467
F3.916242995319489e-09
sVmistaken
p3468
F1.1694573600459305e-07
sVinterim
p3469
F4.892042887509447e-09
sVdistant
p3470
F1.232271044830525e-06
sVping-pong
p3471
F0.0
sVadvertised
p3472
F6.25700753231048e-10
sVminiscule
p3473
F2.7911660933148305e-08
sVexemplary
p3474
F4.108769725650906e-07
sVkeen
p3475
F4.770190528593331e-08
sVafflicted
p3476
F1.9737127384387785e-09
sVgenerous
p3477
F2.3977488550444146e-08
sVrapid
p3478
F6.842397630109201e-07
sVsublime
p3479
F9.29574136420982e-09
sVcinematography
p3480
F1.4812245158299692e-10
sVfar-reaching
p3481
F1.3712551896356105e-05
sVterrorized
p3482
F1.2658697710358228e-09
sVdrunk
p3483
F1.3522884243250408e-07
sVhandy
p3484
F2.2112531068507842e-05
sVflame-retardant
p3485
F0.0
sVattractive
p3486
F1.829891213566208e-07
sVwet
p3487
F6.406714025377969e-10
sVladdie
p3488
F0.0
sVunprecedented
p3489
F3.2057482568019657e-07
sVsmart
p3490
F1.1277094381744142e-07
sVdivided
p3491
F9.531689720895397e-09
sVinnocents
p3492
F6.649682428396925e-11
sVdefinitive
p3493
F3.0858629162001215e-08
sVample
p3494
F6.767272939553546e-08
sVtesty
p3495
F0.0
sVthicker
p3496
F1.1054026012539623e-06
sVlivid
p3497
F1.3921864723360461e-08
sVacceding
p3498
F0.0
sVhistoric
p3499
F1.0344092331760982e-07
sVfive
p3500
F2.6365078293736503e-07
sVunquestionable
p3501
F1.7069167380123748e-09
sVunseen
p3502
F2.2584863709649186e-08
sVdenser
p3503
F0.0
sVimmediately
p3504
F1.3192805748393117e-06
sVcondescending
p3505
F0.0
sVfools
p3506
F4.45198619069231e-10
sVprominent
p3507
F0.00011803339588475851
sVnewborn
p3508
F0.0
sVdisplaced
p3509
F5.019828079964115e-10
sVnecessary
p3510
F0.014413636429080445
sVhelpful
p3511
F2.5254307826576928e-05
sVlost
p3512
F3.458359698346092e-08
sVinquisitive
p3513
F9.20286361502504e-09
sVsafest
p3514
F2.2590609112249148e-08
sVvibrant
p3515
F9.06073629871061e-09
sVrealist
p3516
F6.957618095392974e-09
sVuser-defined
p3517
F1.901036473425985e-15
sVadmitted
p3518
F0.0
sVsized
p3519
F0.0
sVwarned
p3520
F1.275834127713038e-10
sVregulated
p3521
F7.174170964282042e-10
sVsoft
p3522
F3.063716794705712e-08
sVregardless
p3523
F0.0
sVitalian
p3524
F0.0
sVaccessible
p3525
F6.817263491784926e-08
sVfruitless
p3526
F1.2085726907843274e-07
sVclassical
p3527
F1.123098518944365e-07
sVstumpy
p3528
F0.0
sVforeseeable
p3529
F2.5257370641265056e-07
sVscared
p3530
F5.395188634095845e-08
sVflagrant
p3531
F1.1479234497847142e-07
sVholier
p3532
F3.0977177575794734e-09
sValive
p3533
F2.491837080930695e-08
sVfree-of-charge
p3534
F6.913837490285456e-10
sVwarmer
p3535
F1.0461888823583497e-06
sVabolitionist
p3536
F2.6365078293736503e-07
sVflush
p3537
F9.474496968777286e-09
sVproper
p3538
F4.813531136027522e-07
sVhome
p3539
F1.1887973067316446e-10
sVfranco
p3540
F1.397099460905012e-09
sVsupportive
p3541
F7.817695564246061e-09
sVwetter
p3542
F7.118571139308855e-10
sVlead
p3543
F5.155141958369036e-07
sVsufficiently
p3544
F7.698976035607871e-08
sVbroad
p3545
F5.205841321864097e-06
sVleveraged
p3546
F0.0
sVtraumatic
p3547
F7.81697904176173e-07
sVsnappy
p3548
F3.4559237384832694e-07
sVrewarding
p3549
F2.226519515072529e-08
sVeconomical
p3550
F4.898648785470269e-08
sVscrewed
p3551
F2.7182275787726555e-09
sVkiddo
p3552
F2.029965191423594e-09
sVblurry
p3553
F1.695134508454527e-08
sVperplexed
p3554
F8.239086966792657e-09
sVacross-the-board
p3555
F4.337811892353342e-09
sVinaccurate
p3556
F3.1314913235689023e-08
sVdesperate
p3557
F0.004996283888811873
sVslight
p3558
F6.854195650518664e-07
sVastounding
p3559
F1.9839362638637015e-07
sVself-sustainable
p3560
F1.4282119882994361e-09
sVcombative
p3561
F2.5747146771227053e-10
sVdisrespectful
p3562
F1.2050321833873263e-08
sVstellar
p3563
F1.113186171562037e-06
sVuptight
p3564
F5.116268047672543e-08
sVdistinctive
p3565
F1.3448573327518987e-06
sVprohibited
p3566
F8.239086966792657e-09
sValthough
p3567
F1.2212353202430178e-08
sVhospitable
p3568
F0.0
sVgandalf
p3569
F0.0
sVwell-informed
p3570
F9.730984057716122e-10
sVunchangeable
p3571
F5.396438981981471e-10
sVsimpler
p3572
F1.4535852857438982e-05
sVabout
p3573
F0.0
sVrare
p3574
F5.113473645048426e-07
sVunwelcome
p3575
F1.121739446127744e-09
sVfreedom
p3576
F5.310402693853676e-10
sVinterlinked
p3577
F0.0
sVsinister
p3578
F2.3626225159650657e-08
sVrecognized
p3579
F2.521907083235371e-09
sVcompatible
p3580
F1.2936564233233909e-08
sVwell-served
p3581
F0.0
sVrecognizes
p3582
F2.2815408703271088e-10
sVmulti-disciplinary
p3583
F0.0
sVpersuaded
p3584
F2.1335130589108567e-08
sVdistressed
p3585
F1.6652929268985223e-08
sVbaseless
p3586
F7.513240771385637e-08
sVequally
p3587
F1.5686173199212347e-08
sVown
p3588
F2.6475272481710617e-09
sVpolished
p3589
F4.464949159805664e-12
sVunsustainable
p3590
F2.11385378906038e-08
sVunfavourable
p3591
F1.7580533930166594e-08
sVpreviously
p3592
F1.064782882014673e-13
sVemotive
p3593
F1.455825161443389e-08
sVfunctional
p3594
F8.254795176577455e-10
sVsmarty
p3595
F0.0
sVlife-long
p3596
F4.281713594605608e-11
sVscandalous
p3597
F1.2316103583333957e-07
sVungrounded
p3598
F0.0
sVfemale
p3599
F2.6365078293736503e-07
sVlawful
p3600
F7.285717789452959e-08
sVscreened
p3601
F5.659623760711388e-10
sVpointless
p3602
F1.8592806043710802e-07
sVmere
p3603
F2.1586688431432e-07
sVsignificantly
p3604
F1.3334806888904975e-08
sVlasting
p3605
F2.252557177486137e-09
sVterminated
p3606
F4.7887909708821356e-08
sVwack
p3607
F2.4928283377697445e-09
sVadditional
p3608
F4.860451810882357e-06
sVself-explanatory
p3609
F1.4707284251678734e-07
sVpopulated
p3610
F3.471944466664888e-08
sVsecret
p3611
F8.250399364450827e-10
sVkidding
p3612
F0.0
sVinternationaux
p3613
F2.4705922773552787e-09
sVkorean
p3614
F1.5968528764986127e-08
sVmuch
p3615
F2.3696567957332493e-06
sVutopian
p3616
F2.6365078293736503e-07
sVrecommendable
p3617
F6.517246526466847e-10
sVbiggest
p3618
F0.00013259053446685906
sVtimed
p3619
F0.0
sVunequivocal
p3620
F7.411823324269036e-08
sVnaturally
p3621
F9.99825050822451e-10
sVrevised
p3622
F1.0397403620224518e-09
sVnorth
p3623
F1.1594162697290206e-08
sVforthwith
p3624
F3.114887020468752e-08
sVtreacherous
p3625
F6.453243292929947e-07
sVhazardous
p3626
F1.3931467428462475e-06
sVbut
p3627
F1.8318529803645262e-08
sVdesignated
p3628
F2.6365078293736525e-12
sVinsured
p3629
F4.810384618532978e-09
sVneutral
p3630
F6.406714025377969e-10
sVcontradictory
p3631
F3.06355033250695e-09
sVnut
p3632
F3.7047579683898733e-09
sVautomated
p3633
F2.6365078293736503e-07
sVremote
p3634
F1.279438169036016e-07
sVhighest
p3635
F0.00018426500442914309
sVillustrative
p3636
F1.2050029742410359e-08
sVpartially
p3637
F8.239086966792657e-09
sVstraightaway
p3638
F7.574522266917267e-09
sValso
p3639
F7.40032236985286e-08
sVwise
p3640
F3.9976001499273053e-07
sVevident
p3641
F2.144995346421345e-06
sVinstructive
p3642
F9.842104517710038e-07
sVdangerous
p3643
F4.199190383120779e-05
sVheavyset
p3644
F1.5980022324666854e-08
sVofficial
p3645
F7.30432699862349e-08
sVsmooth
p3646
F6.835931323095601e-07
sVall-encompassing
p3647
F1.1592583632747458e-08
sVplaced
p3648
F0.0
sVcruel
p3649
F1.1729763056634274e-08
sVdistribution
p3650
F0.0
sVbroader-based
p3651
F2.3074962487574447e-06
sVcordial
p3652
F1.4839382309146532e-09
sVnon-existent
p3653
F6.228753451557824e-09
sVsuccessfully
p3654
F1.8002468944490599e-09
sVhorrific
p3655
F7.35762535777022e-07
sVunaffordable
p3656
F2.135884855421475e-09
sVinadequate
p3657
F2.066819653956185e-07
sVuniversal
p3658
F2.5770501384602843e-07
sVmeaningless
p3659
F2.098799943500106e-07
sVscary
p3660
F3.700912620357848e-07
sVinter-connected
p3661
F1.1039123001511084e-11
sVwell-defined
p3662
F2.2176349324653113e-14
sVunsavory
p3663
F6.886882172806231e-09
sVeducation
p3664
F0.0
sVhappen
p3665
F0.0
sVdeeper
p3666
F9.040939990532577e-06
sVrenowned
p3667
F1.709974524948893e-09
sVcompared
p3668
F6.106176601215089e-09
sVrelaxing
p3669
F8.239086966792657e-09
sVagreed-upon
p3670
F2.3565152338389234e-09
sVincredible
p3671
F1.3806782663683955e-06
sVfortunate
p3672
F5.85078322403829e-08
sVdeadly
p3673
F3.119071396846072e-07
sVbaby-sitting
p3674
F2.6365078293736503e-07
sVoffensive
p3675
F9.449244060475165e-09
sVlately
p3676
F4.930130563530216e-09
sVsurreal
p3677
F1.161994299429233e-08
sVother
p3678
F0.00010192051917606652
sVonboard
p3679
F0.0
sVcrummy
p3680
F3.4171620690713763e-10
sVsick
p3681
F2.8603482504561485e-07
sVnon-self-executing
p3682
F1.9600408497347985e-07
sVpredominant
p3683
F6.6494521327925815e-06
sVreckless
p3684
F0.00013661809952004707
sVhorny
p3685
F5.390800628144242e-09
sVecstatic
p3686
F7.389908782782059e-08
sVinsupportable
p3687
F6.196069669410819e-10
sVinescapable
p3688
F8.192121299005576e-05
sVstay
p3689
F3.949336830831311e-07
sVecological
p3690
F5.032523369559134e-08
sVaffixed
p3691
F0.0
sVkinda
p3692
F0.0
sVpriced
p3693
F0.0
sVfriends
p3694
F8.239086966792657e-09
sVconstant
p3695
F3.1174148096812087e-08
sVtwo-fold
p3696
F6.155117731710846e-09
sVprevalent
p3697
F1.0944010227016467e-06
sVpersistent
p3698
F1.1015801853204467e-07
sVintentionally
p3699
F3.8862257230102396e-08
sVgrimmer
p3700
F6.188534877008252e-08
sVnascent
p3701
F1.1435969244300508e-09
sVunderstand
p3702
F1.1807003625126854e-09
sVunspeakable
p3703
F3.788274764185394e-09
sVrepresentative
p3704
F8.239086966792657e-09
s.