(dp0
Vreceived
p1
F0.06666666666666667
sVacknowledged
p2
F0.13333333333333333
sVuniversal
p3
F0.13333333333333333
sVgenerally
p4
F0.06666666666666667
sVrecognized
p5
F0.13333333333333333
sVrecognised
p6
F0.13333333333333333
sVusually
p7
F0.06666666666666667
sVinternational
p8
F0.06666666666666667
sVaccepted
p9
F0.06666666666666667
sVtypically
p10
F0.06666666666666667
sVacceptable
p11
F0.06666666666666667
s.