(dp0
Vreceivable
p1
F0.1111111111111111
sVinadmissible
p2
F0.1111111111111111
sVeligible
p3
F0.1111111111111111
sVacceptable
p4
F0.1111111111111111
sVmeritorious
p5
F0.1111111111111111
sVadmissible
p6
F0.2222222222222222
sVpermissible
p7
F0.1111111111111111
sVtolerable
p8
F0.1111111111111111
s.