(dp0
S'ionely'
p1
F0.0015625
sS'lonely'
p2
F0.00625
sS'sole'
p3
F0.003125
sS'single'
p4
F0.003125
sS'lonesome'
p5
F0.0046875
sS'only'
p6
F0.0046875
sS'own'
p7
F0.0015625
sS'alone'
p8
F0.00625
sS'more'
p9
F0.96875
s.