(dp0
S'revised'
p1
F0.011560693641618497
sS'altered'
p2
F0.011560693641618497
sS'amended'
p3
F0.005780346820809248
sS'unchanged'
p4
F0.005780346820809248
sS'changed'
p5
F0.011560693641618497
sS'modified'
p6
F0.011560693641618497
sS'to'
p7
F0.6242774566473989
sS'every'
p8
F0.3179190751445087
s.