(dp0
Vacknowledging
p1
F0.0625
sVuseful
p2
F0.0625
sVhelpful
p3
F0.0625
sVrecognising
p4
F0.0625
sVwelcome
p5
F0.0625
sVvaluable
p6
F0.0625
sVthankful
p7
F0.0625
sVrecognizing
p8
F0.0625
sVtreasured
p9
F0.0625
sVgrateful
p10
F0.0625
sVpopular
p11
F0.1875
sVinvaluable
p12
F0.0625
sVprecious
p13
F0.0625
sVhandy
p14
F0.0625
s.