(dp0
Vpervasive
p1
F0.05
sVinfrequent
p2
F0.05
sVcommonplace
p3
F0.1
sVrare
p4
F0.05
sVfair
p5
F0.05
sVprevalent
p6
F0.1
sVuncommon
p7
F0.05
sVrife
p8
F0.05
sVcommon
p9
F0.1
sVroutine
p10
F0.05
sVwidespread
p11
F0.1
sVextensive
p12
F0.05
sVfrequent
p13
F0.1
sVusual
p14
F0.1
s.