(dp0
Vbeautiful
p1
F0.025
sVcute
p2
F0.025
sVfantastic
p3
F0.025
sVfascinating
p4
F0.025
sVsweet
p5
F0.025
sVawesome
p6
F0.025
sVmarvelous
p7
F0.025
sVfine
p8
F0.025
sVlovelier
p9
F0.025
sVexciting
p10
F0.025
sVinteresting
p11
F0.075
sVappealing
p12
F0.025
sVterrific
p13
F0.025
sVwonderful
p14
F0.025
sVattractive
p15
F0.1
sVpretty
p16
F0.025
sVgorgeous
p17
F0.025
sVseductive
p18
F0.025
sVnice
p19
F0.025
sVcheaper
p20
F0.025
sVgood-looking
p21
F0.05
sVdreamy
p22
F0.05
sVsexy
p23
F0.05
sVcharming
p24
F0.05
sVhandsome
p25
F0.05
sVgreat
p26
F0.025
sVlovely
p27
F0.025
sViovely
p28
F0.025
sVdelightful
p29
F0.025
sVtempting
p30
F0.025
s.