(dp0
S'currently'
p1
F8.859357696567e-05
sS'pre-published'
p2
F4.4296788482835e-05
sS'being'
p3
F4.4296788482835e-05
sS'issued'
p4
F4.4296788482835e-05
sS'existing'
p5
F0.000132890365448505
sS'advertised'
p6
F4.4296788482835e-05
sS'responsive'
p7
F4.4296788482835e-05
sS'scarce'
p8
F4.4296788482835e-05
sS'abundant'
p9
F4.4296788482835e-05
sS'perfect'
p10
F4.4296788482835e-05
sS'forthwith'
p11
F4.4296788482835e-05
sS'guaranteed'
p12
F0.04753045404208195
sS'operational'
p13
F0.008593576965669989
sS'better'
p14
F4.4296788482835e-05
sS'permanent'
p15
F4.4296788482835e-05
sS'disclosed'
p16
F4.4296788482835e-05
sS'easy'
p17
F4.4296788482835e-05
sS'extensive'
p18
F8.859357696567e-05
sS'easier'
p19
F0.00017718715393134
sS'comercial'
p20
F4.4296788482835e-05
sS'presently'
p21
F4.4296788482835e-05
sS'straightforward'
p22
F4.4296788482835e-05
sS'foremost'
p23
F4.4296788482835e-05
sS'optimal'
p24
F4.4296788482835e-05
sS'immediately'
p25
F4.4296788482835e-05
sS'now'
p26
F4.4296788482835e-05
sS'infrequent'
p27
F4.4296788482835e-05
sS'scarcer'
p28
F4.4296788482835e-05
sS'audience'
p29
F4.4296788482835e-05
sS'common'
p30
F8.859357696567e-05
sS'sparse'
p31
F4.4296788482835e-05
sS'popular'
p32
F8.859357696567e-05
sS'prevailing'
p33
F0.000132890365448505
sS'accessible'
p34
F0.15676633444075305
sS'available'
p35
F0.00070874861572536
sS'scanty'
p36
F4.4296788482835e-05
sS'unpublished'
p37
F4.4296788482835e-05
sS'free-of-charge'
p38
F4.4296788482835e-05
sS'specified'
p39
F0.026400885935769655
sS'best'
p40
F4.4296788482835e-05
sS'unavailable'
p41
F0.000575858250276855
sS'freer'
p42
F4.4296788482835e-05
sS'marketed'
p43
F4.4296788482835e-05
sS'current'
p44
F8.859357696567e-05
sS'contained'
p45
F4.4296788482835e-05
sS'routine'
p46
F8.859357696567e-05
sS'unrestricted'
p47
F4.4296788482835e-05
sS'public'
p48
F4.4296788482835e-05
sS'announced'
p49
F4.4296788482835e-05
sS'affordable'
p50
F0.00017718715393134
sS'standing'
p51
F4.4296788482835e-05
sS'commercial'
p52
F4.4296788482835e-05
sS'free'
p53
F4.4296788482835e-05
sS'rarer'
p54
F4.4296788482835e-05
sS'simpler'
p55
F4.4296788482835e-05
sS'rare'
p56
F4.4296788482835e-05
sS'retrievable'
p57
F0.00022148394241417498
sS'freely'
p58
F4.4296788482835e-05
sS'underway'
p59
F4.4296788482835e-05
sS'usually'
p60
F4.4296788482835e-05
sS'complimentary'
p61
F4.4296788482835e-05
sS'finest'
p62
F4.4296788482835e-05
sS'tough'
p63
F4.4296788482835e-05
sS'state-run'
p64
F4.4296788482835e-05
sS'simple'
p65
F4.4296788482835e-05
sS'achievable'
p66
F4.4296788482835e-05
sS'open'
p67
F0.00017718715393134
sS'endemic'
p68
F4.4296788482835e-05
sS'multifocal'
p69
F4.4296788482835e-05
sS'plentiful'
p70
F4.4296788482835e-05
sS'few'
p71
F4.4296788482835e-05
sS'scant'
p72
F4.4296788482835e-05
sS'respendable'
p73
F0.00044296788482834997
sS'pervasive'
p74
F8.859357696567e-05
sS'uncommon'
p75
F4.4296788482835e-05
sS'released'
p76
F4.4296788482835e-05
sS'known'
p77
F4.4296788482835e-05
sS'improved'
p78
F4.4296788482835e-05
sS'extant'
p79
F4.4296788482835e-05
sS'general'
p80
F4.4296788482835e-05
sS'rampant'
p81
F8.859357696567e-05
sS'easiest'
p82
F4.4296788482835e-05
sS'present'
p83
F8.859357696567e-05
sS'straightaway'
p84
F4.4296788482835e-05
sS'publicly'
p85
F4.4296788482835e-05
sS'state-owned'
p86
F4.4296788482835e-05
sS'plain'
p87
F4.4296788482835e-05
sS'smooth'
p88
F4.4296788482835e-05
sS'ongoing'
p89
F4.4296788482835e-05
sS'of'
p90
F0.013732004429678849
sS'accessed'
p91
F0.00022148394241417498
sS'prompt'
p92
F4.4296788482835e-05
sS'gratuitous'
p93
F4.4296788482835e-05
sS'universal'
p94
F0.000132890365448505
sS'comfortable'
p95
F4.4296788482835e-05
sS'in'
p96
F0.7272646733111849
sS'ready'
p97
F4.4296788482835e-05
sS'intelligible'
p98
F4.4296788482835e-05
sS'greater'
p99
F4.4296788482835e-05
sS'fluent'
p100
F4.4296788482835e-05
sS'generic'
p101
F0.010808416389811738
sS'convenient'
p102
F4.4296788482835e-05
sS'high-availability'
p103
F4.4296788482835e-05
sS'reachable'
p104
F0.00022148394241417498
sS'orderable'
p105
F0.00017718715393134
sS'widespread'
p106
F0.000132890365448505
sS'preferable'
p107
F4.4296788482835e-05
sS'commonplace'
p108
F0.00017718715393134
sS'ubiquitous'
p109
F4.4296788482835e-05
sS'open-ended'
p110
F4.4296788482835e-05
sS'published'
p111
F4.4296788482835e-05
sS'immediate'
p112
F8.859357696567e-05
sS'opened'
p113
F4.4296788482835e-05
sS'happier'
p114
F4.4296788482835e-05
sS'prevalent'
p115
F0.00017718715393134
sS'attainable'
p116
F0.00022148394241417498
sS'rife'
p117
F8.859357696567e-05
sS'user-friendly'
p118
F4.4296788482835e-05
sS'normally'
p119
F4.4296788482835e-05
s.