(dp0
Vcurrently
p1
F0.009433962264150943
sVpre-published
p2
F0.0047169811320754715
sVbeing
p3
F0.0047169811320754715
sVissued
p4
F0.0047169811320754715
sVexisting
p5
F0.014150943396226415
sVadvertised
p6
F0.0047169811320754715
sVresponsive
p7
F0.0047169811320754715
sVscarce
p8
F0.0047169811320754715
sVabundant
p9
F0.0047169811320754715
sVperfect
p10
F0.0047169811320754715
sVforthwith
p11
F0.0047169811320754715
sVbetter
p12
F0.0047169811320754715
sVpermanent
p13
F0.0047169811320754715
sVdisclosed
p14
F0.0047169811320754715
sVeasy
p15
F0.0047169811320754715
sVextensive
p16
F0.009433962264150943
sVeasier
p17
F0.018867924528301886
sVcomercial
p18
F0.0047169811320754715
sVpresently
p19
F0.0047169811320754715
sVstraightforward
p20
F0.0047169811320754715
sVforemost
p21
F0.0047169811320754715
sVoptimal
p22
F0.0047169811320754715
sVimmediately
p23
F0.0047169811320754715
sVnow
p24
F0.0047169811320754715
sVinfrequent
p25
F0.0047169811320754715
sVscarcer
p26
F0.0047169811320754715
sVaudience
p27
F0.0047169811320754715
sVcommon
p28
F0.009433962264150943
sVsparse
p29
F0.0047169811320754715
sVpopular
p30
F0.009433962264150943
sVprevailing
p31
F0.014150943396226415
sVaccessible
p32
F0.05188679245283019
sVavailable
p33
F0.07547169811320754
sVscanty
p34
F0.0047169811320754715
sVunpublished
p35
F0.0047169811320754715
sVfree-of-charge
p36
F0.0047169811320754715
sVbest
p37
F0.0047169811320754715
sVunavailable
p38
F0.06132075471698113
sVfreer
p39
F0.0047169811320754715
sVmarketed
p40
F0.0047169811320754715
sVcurrent
p41
F0.009433962264150943
sVcontained
p42
F0.0047169811320754715
sVroutine
p43
F0.009433962264150943
sVunrestricted
p44
F0.0047169811320754715
sVpublic
p45
F0.0047169811320754715
sVannounced
p46
F0.0047169811320754715
sVaffordable
p47
F0.018867924528301886
sVstanding
p48
F0.0047169811320754715
sVcommercial
p49
F0.0047169811320754715
sVfree
p50
F0.0047169811320754715
sVrarer
p51
F0.0047169811320754715
sVsimpler
p52
F0.0047169811320754715
sVrare
p53
F0.0047169811320754715
sVretrievable
p54
F0.02358490566037736
sVfreely
p55
F0.0047169811320754715
sVunderway
p56
F0.0047169811320754715
sVusually
p57
F0.0047169811320754715
sVcomplimentary
p58
F0.0047169811320754715
sVfinest
p59
F0.0047169811320754715
sVtough
p60
F0.0047169811320754715
sVstate-run
p61
F0.0047169811320754715
sVsimple
p62
F0.0047169811320754715
sVachievable
p63
F0.0047169811320754715
sVopen
p64
F0.018867924528301886
sVendemic
p65
F0.0047169811320754715
sVmultifocal
p66
F0.0047169811320754715
sVplentiful
p67
F0.0047169811320754715
sVfew
p68
F0.0047169811320754715
sVscant
p69
F0.0047169811320754715
sVrespendable
p70
F0.04716981132075472
sVpervasive
p71
F0.009433962264150943
sVuncommon
p72
F0.0047169811320754715
sVreleased
p73
F0.0047169811320754715
sVknown
p74
F0.0047169811320754715
sVimproved
p75
F0.0047169811320754715
sVextant
p76
F0.0047169811320754715
sVgeneral
p77
F0.0047169811320754715
sVrampant
p78
F0.009433962264150943
sVeasiest
p79
F0.0047169811320754715
sVpresent
p80
F0.009433962264150943
sVstraightaway
p81
F0.0047169811320754715
sVpublicly
p82
F0.0047169811320754715
sVstate-owned
p83
F0.0047169811320754715
sVplain
p84
F0.0047169811320754715
sVsmooth
p85
F0.0047169811320754715
sVongoing
p86
F0.0047169811320754715
sVaccessed
p87
F0.02358490566037736
sVprompt
p88
F0.0047169811320754715
sVgratuitous
p89
F0.0047169811320754715
sVuniversal
p90
F0.014150943396226415
sVcomfortable
p91
F0.0047169811320754715
sVready
p92
F0.0047169811320754715
sVintelligible
p93
F0.0047169811320754715
sVgreater
p94
F0.0047169811320754715
sVfluent
p95
F0.0047169811320754715
sVconvenient
p96
F0.0047169811320754715
sVhigh-availability
p97
F0.0047169811320754715
sVreachable
p98
F0.02358490566037736
sVorderable
p99
F0.018867924528301886
sVwidespread
p100
F0.014150943396226415
sVpreferable
p101
F0.0047169811320754715
sVcommonplace
p102
F0.018867924528301886
sVubiquitous
p103
F0.0047169811320754715
sVopen-ended
p104
F0.0047169811320754715
sVpublished
p105
F0.0047169811320754715
sVimmediate
p106
F0.009433962264150943
sVopened
p107
F0.0047169811320754715
sVhappier
p108
F0.0047169811320754715
sVprevalent
p109
F0.018867924528301886
sVattainable
p110
F0.02358490566037736
sVrife
p111
F0.009433962264150943
sVuser-friendly
p112
F0.0047169811320754715
sVnormally
p113
F0.0047169811320754715
s.