(dp0
Vstraightaway
p1
F0.06666666666666667
sVright
p2
F0.06666666666666667
sVaround
p3
F0.06666666666666667
sVless
p4
F0.06666666666666667
sVfar
p5
F0.06666666666666667
sVaway
p6
F0.06666666666666667
sVimmediate
p7
F0.06666666666666667
sVfar-reaching
p8
F0.06666666666666667
sVforthwith
p9
F0.06666666666666667
sVdistant
p10
F0.13333333333333333
sVlong
p11
F0.06666666666666667
sVimmediately
p12
F0.06666666666666667
sVapart
p13
F0.06666666666666667
sVwait
p14
F0.06666666666666667
s.