(dp0
S'remarkable'
p1
F0.0015026296018031556
sS'lethal'
p2
F0.0007513148009015778
sS'perfect'
p3
F0.7317806160781367
sS'grotesque'
p4
F0.0007513148009015778
sS'pretty'
p5
F0.0007513148009015778
sS'righteous'
p6
F0.0007513148009015778
sS'spectacular'
p7
F0.0007513148009015778
sS'delirious'
p8
F0.0007513148009015778
sS'big'
p9
F0.0007513148009015778
sS'dreamy'
p10
F0.0007513148009015778
sS'vast'
p11
F0.0007513148009015778
sS'cool'
p12
F0.003756574004507889
sS'sensational'
p13
F0.003756574004507889
sS'magic'
p14
F0.0007513148009015778
sS'impressive'
p15
F0.0007513148009015778
sS'marvellous'
p16
F0.0015026296018031556
sS'delightful'
p17
F0.0007513148009015778
sS'shocking'
p18
F0.0007513148009015778
sS'exquisite'
p19
F0.003005259203606311
sS'insane'
p20
F0.0015026296018031556
sS'magnificent'
p21
F0.0015026296018031556
sS'demented'
p22
F0.0007513148009015778
sS'fabulous'
p23
F0.003756574004507889
sS'phenomenal'
p24
F0.003756574004507889
sS'slick'
p25
F0.0015026296018031556
sS'superb'
p26
F0.002253944402704733
sS'genius'
p27
F0.003005259203606311
sS'wondrous'
p28
F0.0007513148009015778
sS'hilarious'
p29
F0.003756574004507889
sS'whassup'
p30
F0.002253944402704733
sS'extraordinary'
p31
F0.0007513148009015778
sS'smokin'
p32
F0.003005259203606311
sS'exciting'
p33
F0.0007513148009015778
sS'super'
p34
F0.003005259203606311
sS'intense'
p35
F0.0007513148009015778
sS'scary'
p36
F0.0007513148009015778
sS'enormous'
p37
F0.0007513148009015778
sS'brilliant'
p38
F0.004507888805409466
sS'massive'
p39
F0.0007513148009015778
sS'mortal'
p40
F0.0007513148009015778
sS'priceless'
p41
F0.0007513148009015778
sS'shiny'
p42
F0.0015026296018031556
sS'glorious'
p43
F0.0015026296018031556
sS'fantastic'
p44
F0.004507888805409466
sS'striking'
p45
F0.0007513148009015778
sS'sweet'
p46
F0.003756574004507889
sS'rad'
p47
F0.0015026296018031556
sS'fancy'
p48
F0.0015026296018031556
sS'marvelous'
p49
F0.003005259203606311
sS'formidable'
p50
F0.0015026296018031556
sS'delusional'
p51
F0.0007513148009015778
sS'impressed'
p52
F0.0007513148009015778
sS'tremendous'
p53
F0.0015026296018031556
sS'top'
p54
F0.0007513148009015778
sS'classic'
p55
F0.0015026296018031556
sS'immense'
p56
F0.0007513148009015778
sS'wonderful'
p57
F0.004507888805409466
sS'gorgeous'
p58
F0.003005259203606311
sS'dynamite'
p59
F0.0015026296018031556
sS'lovely'
p60
F0.004507888805409466
sS'hysterical'
p61
F0.0007513148009015778
sS'wicked'
p62
F0.003756574004507889
sS'staggering'
p63
F0.0015026296018031556
sS'great'
p64
F0.003756574004507889
sS'overwhelming'
p65
F0.0015026296018031556
sS'fatal'
p66
F0.0007513148009015778
sS'unreal'
p67
F0.0007513148009015778
sS'neat'
p68
F0.003005259203606311
sS'fun'
p69
F0.002253944402704733
sS'gigantic'
p70
F0.0007513148009015778
sS'beautiful'
p71
F0.002253944402704733
sS'crazy'
p72
F0.0007513148009015778
sS'life-threatening'
p73
F0.0007513148009015778
sS'outstanding'
p74
F0.0015026296018031556
sS'awesome'
p75
F0.003756574004507889
sS'it'
p76
F0.10969196093163035
sS'briiliant'
p77
F0.0015026296018031556
sS'huge'
p78
F0.0007513148009015778
sS'incredible'
p79
F0.003756574004507889
sS'deadly'
p80
F0.0007513148009015778
sS'terrific'
p81
F0.004507888805409466
sS'amazing'
p82
F0.003005259203606311
sS'grand'
p83
F0.0007513148009015778
sS'nice'
p84
F0.003005259203606311
sS'unbelievable'
p85
F0.002253944402704733
sS'astounding'
p86
F0.0007513148009015778
sS'-lncredible'
p87
F0.0015026296018031556
sS'intimidating'
p88
F0.0007513148009015778
sS'mad'
p89
F0.0007513148009015778
sS'splendid'
p90
F0.0015026296018031556
sS'astonishing'
p91
F0.0015026296018031556
s.