(dp0
S'general'
p1
F7.468259895444362e-05
sS'wide-ranging'
p2
F7.468259895444362e-05
sS'diverse'
p3
F7.468259895444362e-05
sS'broader'
p4
F7.468259895444362e-05
sS'broad'
p5
F7.468259895444362e-05
sS'environmentally-friendly'
p6
F7.468259895444362e-05
sS'geographically'
p7
F7.468259895444362e-05
sS'eco-friendly'
p8
F7.468259895444362e-05
sS'geographical'
p9
F7.468259895444362e-05
sS'widespread'
p10
F7.468259895444362e-05
sS'integrated'
p11
F0.9982076176250934
sS'science-based'
p12
F7.468259895444362e-05
sS'across-the-board'
p13
F7.468259895444362e-05
sS'scientific'
p14
F7.468259895444362e-05
sS'broadest'
p15
F7.468259895444362e-05
sS'environmental'
p16
F7.468259895444362e-05
sS'ecological'
p17
F7.468259895444362e-05
sS'historic'
p18
F7.468259895444362e-05
sS'ecologically'
p19
F7.468259895444362e-05
sS'technical'
p20
F7.468259895444362e-05
sS'broad-based'
p21
F7.468259895444362e-05
sS'all-encompassing'
p22
F7.468259895444362e-05
sS'all-inclusive'
p23
F7.468259895444362e-05
sS'historical'
p24
F7.468259895444362e-05
sS'geographic'
p25
F7.468259895444362e-05
s.