(dp0
Vmajor
p1
F0.02631578947368421
sVsimple
p2
F0.02631578947368421
sVprimary
p3
F0.02631578947368421
sVminimum
p4
F0.02631578947368421
sVelementary
p5
F0.07894736842105263
sVall-important
p6
F0.02631578947368421
sVprincipal
p7
F0.02631578947368421
sVcrucial
p8
F0.05263157894736842
sVprincipale
p9
F0.02631578947368421
sVcritical
p10
F0.05263157894736842
sVimperative
p11
F0.02631578947368421
sVeasy
p12
F0.02631578947368421
sVbasic
p13
F0.05263157894736842
sVpivotal
p14
F0.05263157894736842
sVmain
p15
F0.02631578947368421
sVeasier
p16
F0.02631578947368421
sVparamount
p17
F0.02631578947368421
sVstraightforward
p18
F0.02631578947368421
sVvital
p19
F0.05263157894736842
sVinstrumental
p20
F0.05263157894736842
sVkey
p21
F0.05263157894736842
sVsimpler
p22
F0.05263157894736842
sVgreatest
p23
F0.02631578947368421
sVfundamental
p24
F0.05263157894736842
sVessential
p25
F0.05263157894736842
sVfirst
p26
F0.02631578947368421
s.