(dp0
Vbeneficial
p1
F0.06
sVuseful
p2
F0.06
sVworthwhile
p3
F0.04
sVdesirable
p4
F0.02
sVvaluable
p5
F0.08
sVtasty
p6
F0.02
sVcooperative
p7
F0.02
sVbest
p8
F0.04
sVprofitable
p9
F0.02
sVadvantageous
p10
F0.04
sVbetter
p11
F0.04
sVco-operative
p12
F0.02
sVpreferable
p13
F0.02
sVgood
p14
F0.02
sVokay
p15
F0.02
sVco-operation
p16
F0.02
sVcomplementary
p17
F0.02
sVcheaper
p18
F0.02
sVinstrumental
p19
F0.02
sVfavourable
p20
F0.02
sVecological
p21
F0.02
sVfavorable
p22
F0.02
sVwiser
p23
F0.02
sVhandy
p24
F0.04
sVuseable
p25
F0.02
sVhelpful
p26
F0.06
sVreciprocal
p27
F0.02
sVinstructive
p28
F0.04
sVco-operate
p29
F0.02
sVwell
p30
F0.02
sVgreen
p31
F0.02
sValright
p32
F0.02
sVinvaluable
p33
F0.04
sVadvisable
p34
F0.02
s.