(dp0
Vbeautiful
p1
F0.005813953488372093
sVheavy
p2
F0.011627906976744186
sVmajor
p3
F0.01744186046511628
sVsizeable
p4
F0.005813953488372093
sVlarge-scale
p5
F0.011627906976744186
sVcolossal
p6
F0.005813953488372093
sVsweet
p7
F0.011627906976744186
sVawesome
p8
F0.023255813953488372
sVstronger
p9
F0.005813953488372093
sVgeneral
p10
F0.011627906976744186
sVhigh
p11
F0.023255813953488372
sVsubstantial
p12
F0.011627906976744186
sVformidable
p13
F0.01744186046511628
sVwider
p14
F0.005813953488372093
sVfine
p15
F0.005813953488372093
sVstaggering
p16
F0.005813953488372093
sVhuge
p17
F0.03488372093023256
sVintense
p18
F0.005813953488372093
sVtremendous
p19
F0.01744186046511628
sVbroad
p20
F0.011627906976744186
sVgrave
p21
F0.005813953488372093
sVgrotesque
p22
F0.01744186046511628
sVattractive
p23
F0.005813953488372093
sVbigger
p24
F0.040697674418604654
sVterrific
p25
F0.023255813953488372
sVimmense
p26
F0.029069767441860465
sVwonderful
p27
F0.011627906976744186
sVprettier
p28
F0.005813953488372093
sVpretty
p29
F0.005813953488372093
sVgrand
p30
F0.01744186046511628
sVbiggest
p31
F0.01744186046511628
sVextensive
p32
F0.011627906976744186
sVlovely
p33
F0.01744186046511628
sVgreatest
p34
F0.011627906976744186
sVhigher
p35
F0.005813953488372093
sVmassive
p36
F0.023255813953488372
sVgrievous
p37
F0.005813953488372093
sVgreater
p38
F0.040697674418604654
sVgrown-up
p39
F0.005813953488372093
sVbig
p40
F0.040697674418604654
sVgorgeous
p41
F0.005813953488372093
sVoverweight
p42
F0.011627906976744186
sVenormous
p43
F0.029069767441860465
sVextraordinary
p44
F0.011627906976744186
sVimportant
p45
F0.011627906976744186
sVwidespread
p46
F0.005813953488372093
sVsignificant
p47
F0.01744186046511628
sVrobust
p48
F0.005813953488372093
sVstrong
p49
F0.011627906976744186
sVconsiderable
p50
F0.023255813953488372
sVvast
p51
F0.029069767441860465
sVhandsome
p52
F0.005813953488372093
sVfatter
p53
F0.005813953488372093
sVwide
p54
F0.011627906976744186
sVgreat
p55
F0.05232558139534884
sVlargest
p56
F0.005813953488372093
sVlarger
p57
F0.040697674418604654
sVfar-reaching
p58
F0.005813953488372093
sVterrible
p59
F0.005813953488372093
sVlarge
p60
F0.03488372093023256
sVdirty
p61
F0.011627906976744186
sVsevere
p62
F0.011627906976744186
sVcute
p63
F0.005813953488372093
sVimmeasurable
p64
F0.005813953488372093
sVwide-ranging
p65
F0.005813953488372093
sVphenomenal
p66
F0.005813953488372093
sVserious
p67
F0.005813953488372093
sVgigantic
p68
F0.01744186046511628
sVnice
p69
F0.005813953488372093
s.