(dp0
S'huge'
p1
F0.0004187604690117253
sS'taller'
p2
F0.0004187604690117253
sS'greater'
p3
F0.001256281407035176
sS'tremendous'
p4
F0.0004187604690117253
sS'larger'
p5
F0.0016750418760469012
sS'great'
p6
F0.0004187604690117253
sS'immense'
p7
F0.0004187604690117253
sS'massive'
p8
F0.0004187604690117253
sS'largest'
p9
F0.0008375209380234506
sS'biggest'
p10
F0.0008375209380234506
sS'enormous'
p11
F0.0004187604690117253
sS'highest'
p12
F0.0008375209380234506
sS'bigger'
p13
F0.001256281407035176
sS'wider'
p14
F0.0004187604690117253
sS'more'
p15
F0.9899497487437185
s.