(dp0
S'available'
p1
F0.9684684684684685
sS'vacant'
p2
F0.0045045045045045045
sS'unoccupied'
p3
F0.0045045045045045045
sS'hollow'
p4
F0.0045045045045045045
sS'bare'
p5
F0.0045045045045045045
sS'blank'
p6
F0.0045045045045045045
sS'white'
p7
F0.0045045045045045045
sS'empty'
p8
F0.0045045045045045045
s.