(dp0
Vdark
p1
F0.14285714285714285
sVgloomy
p2
F0.14285714285714285
sVbleak
p3
F0.14285714285714285
sVdire
p4
F0.14285714285714285
sVgrim
p5
F0.14285714285714285
sVsombre
p6
F0.14285714285714285
sVdarker
p7
F0.14285714285714285
s.