(dp0
S'calming'
p1
F0.003171247357293869
sS'quieter'
p2
F0.0021141649048625794
sS'quiet'
p3
F0.005285412262156448
sS'mild'
p4
F0.0010570824524312897
sS'calm'
p5
F0.004228329809725159
sS'peaceful'
p6
F0.0010570824524312897
sS'serene'
p7
F0.5348837209302325
sS'you'
p8
F0.4450317124735729
sS'cool'
p9
F0.003171247357293869
s.