(dp0
S'warm'
p1
F0.002288329519450801
sS'sure'
p2
F0.011441647597254004
sS'uncertain'
p3
F0.002288329519450801
sS'secure'
p4
F0.006864988558352402
sS'assured'
p5
F0.004576659038901602
sS'course'
p6
F0.004576659038901602
sS'safest'
p7
F0.002288329519450801
sS'certain'
p8
F0.013729977116704805
sS'reliable'
p9
F0.004576659038901602
sS'later'
p10
F0.3890160183066362
sS'definite'
p11
F0.006864988558352402
sS'clearer'
p12
F0.002288329519450801
sS'doubtful'
p13
F0.004576659038901602
sS'confident'
p14
F0.013729977116704805
sS'maintained'
p15
F0.002288329519450801
sS'right'
p16
F0.002288329519450801
sS'entirely'
p17
F0.39816933638443935
sS'true'
p18
F0.006864988558352402
sS'warmest'
p19
F0.002288329519450801
sS'as'
p20
F0.11670480549199085
sS'convinced'
p21
F0.002288329519450801
s.