(dp0
S'mental'
p1
F0.0007262164124909223
sS'though'
p2
F0.6601307189542484
sS'disabled'
p3
F0.0007262164124909223
sS'socio-economically'
p4
F0.0007262164124909223
sS'cost-effective'
p5
F0.0007262164124909223
sS'frustrated'
p6
F0.2251270878721859
sS'economically'
p7
F0.0007262164124909223
sS'best'
p8
F0.1111111111111111
s.