(dp0
Vcute
p1
F0.025
sVfantastic
p2
F0.025
sVsweet
p3
F0.1
sVawesome
p4
F0.025
sVfabulous
p5
F0.025
sVtasty
p6
F0.025
sVdelicious
p7
F0.025
sVterrific
p8
F0.025
sVamazing
p9
F0.025
sVwonderful
p10
F0.025
sVattractive
p11
F0.025
sVpretty
p12
F0.025
sVenchanting
p13
F0.05
sVlovely
p14
F0.1
sVadorable
p15
F0.05
sVnice
p16
F0.1
sVcharming
p17
F0.05
sVloverly
p18
F0.05
sVhandsome
p19
F0.05
sVmarvellous
p20
F0.025
sVscrumptious
p21
F0.025
sVdelightful
p22
F0.1
sVexquisite
p23
F0.025
s.