(dp0
S'set'
p1
F0.3774403470715835
sS'for'
p2
F0.175704989154013
sS'defined'
p3
F0.35357917570498915
sS'clear'
p4
F0.0021691973969631237
sS'clearer'
p5
F0.0021691973969631237
sS'this'
p6
F0.08893709327548807
s.