(dp0
S'flat'
p1
F0.22939236928874235
sS'shut'
p2
F0.1281205840791333
sS'locked'
p3
F0.0009420631182289214
sS'sealed'
p4
F0.5511069241639189
sS'just'
p5
F0.0004710315591144607
sS'definite'
p6
F0.0004710315591144607
sS'closed'
p7
F0.0009420631182289214
sS'immediately'
p8
F0.08761186999528968
sS'final'
p9
F0.0004710315591144607
sS'-just'
p10
F0.0004710315591144607
s.