(dp0
S'precise'
p1
F0.00040535062829347385
sS'nearest'
p2
F0.00040535062829347385
sS'almost'
p3
F0.0016214025131738954
sS'middle'
p4
F0.07417916497770571
sS'carefully'
p5
F0.00040535062829347385
sS'close'
p6
F0.0036481556546412645
sS'closer'
p7
F0.13862991487636805
sS'for'
p8
F0.15322253749493311
sS'away'
p9
F0.00040535062829347385
sS'tight'
p10
F0.11511957843534658
sS'virtually'
p11
F0.00040535062829347385
sS'adjacent'
p12
F0.25942440210782325
sS'around'
p13
F0.0012160518848804217
sS'closest'
p14
F0.0032428050263477908
sS'intimate'
p15
F0.10052695581678152
sS'very'
p16
F0.00040535062829347385
sS'exactly'
p17
F0.00040535062829347385
sS'nearly'
p18
F0.0012160518848804217
sS'intense'
p19
F0.00040535062829347385
sS'practically'
p20
F0.0012160518848804217
sS'of'
p21
F0.09485204702067289
sS'near'
p22
F0.0024321037697608433
sS'far'
p23
F0.04620997162545602
s.