(dp0
Vprecise
p1
F0.14285714285714285
sVpractical
p2
F0.14285714285714285
sVtangible
p3
F0.14285714285714285
sVdefinite
p4
F0.14285714285714285
sVspecific
p5
F0.14285714285714285
sVconcrete
p6
F0.07142857142857142
sVparticular
p7
F0.14285714285714285
sVreal
p8
F0.07142857142857142
s.