(dp0
S'off-the-record'
p1
F0.06153846153846154
sS'confidentiality'
p2
F0.015384615384615385
sS'confidential'
p3
F0.09230769230769231
sS'classified'
p4
F0.06153846153846154
sS'secret'
p5
F0.015384615384615385
sS'protected'
p6
F0.6615384615384615
sS'need-to-know'
p7
F0.06153846153846154
sS'anonymous'
p8
F0.015384615384615385
sS'privileged'
p9
F0.015384615384615385
s.