(dp0
Vunrelated
p1
F0.16666666666666666
sVintertwined
p2
F0.16666666666666666
sVinter-linked
p3
F0.16666666666666666
sVrelated
p4
F0.16666666666666666
sVinterrelated
p5
F0.16666666666666666
sVinter-related
p6
F0.16666666666666666
s.