(dp0
Vcredible
p1
F0.16666666666666666
sVimpressive
p2
F0.08333333333333333
sVpersuasive
p3
F0.16666666666666666
sVconvincing
p4
F0.25
sVcompelling
p5
F0.16666666666666666
sVconclusive
p6
F0.08333333333333333
sVunconvincing
p7
F0.08333333333333333
s.