(dp0
S'again'
p1
F0.008620689655172414
sS'newest'
p2
F0.008620689655172414
sS'established'
p3
F0.008620689655172414
sS'creation'
p4
F0.008620689655172414
sS'brand-new'
p5
F0.008620689655172414
sS'newer'
p6
F0.008620689655172414
sS'new'
p7
F0.008620689655172414
sS'found'
p8
F0.9310344827586207
sS'establishment'
p9
F0.008620689655172414
s.