(dp0
S'huge'
p1
F0.003048780487804878
sS'great'
p2
F0.003048780487804878
sS'deeper'
p3
F0.3719512195121951
sS'though'
p4
F0.5792682926829268
sS'tremendous'
p5
F0.003048780487804878
sS'profound'
p6
F0.006097560975609756
sS'enormous'
p7
F0.003048780487804878
sS'deep'
p8
F0.006097560975609756
sS'in-depth'
p9
F0.003048780487804878
sS'large'
p10
F0.003048780487804878
sS'massive'
p11
F0.003048780487804878
sS'formidable'
p12
F0.003048780487804878
sS'serious'
p13
F0.003048780487804878
sS'prodigious'
p14
F0.003048780487804878
sS'thorough'
p15
F0.006097560975609756
s.