(dp0
Vunsatisfactory
p1
F0.16666666666666666
sVlacking
p2
F0.16666666666666666
sVdeficient
p3
F0.16666666666666666
sVinadequate
p4
F0.16666666666666666
sVinsufficient
p5
F0.16666666666666666
sVsubstandard
p6
F0.16666666666666666
s.