(dp0
S'intended'
p1
F0.009523809523809525
sS'deliberate'
p2
F0.01904761904761905
sS'intentionally'
p3
F0.009523809523809525
sS'deliberately'
p4
F0.009523809523809525
sS'in'
p5
F0.9333333333333333
sS'intentional'
p6
F0.01904761904761905
s.