(dp0
Vco-dependent
p1
F0.07692307692307693
sVadditional
p2
F0.07692307692307693
sVcomplementary
p3
F0.07692307692307693
sVdependent
p4
F0.07692307692307693
sVinter-linked
p5
F0.07692307692307693
sVinterdependent
p6
F0.07692307692307693
sVinter-connected
p7
F0.07692307692307693
sVsupplementary
p8
F0.07692307692307693
sVinterrelated
p9
F0.07692307692307693
sVinter-related
p10
F0.07692307692307693
sVcomplimentary
p11
F0.07692307692307693
sVsupplemental
p12
F0.07692307692307693
sVinter-dependent
p13
F0.07692307692307693
s.