(dp0
S'complimentary'
p1
F0.004524886877828055
sS'co-dependent'
p2
F0.004524886877828055
sS'additional'
p3
F0.004524886877828055
sS'complementary'
p4
F0.004524886877828055
sS'dependent'
p5
F0.004524886877828055
sS'inter-linked'
p6
F0.004524886877828055
sS'interdependent'
p7
F0.004524886877828055
sS'inter-connected'
p8
F0.004524886877828055
sS'supplementary'
p9
F0.004524886877828055
sS'much'
p10
F0.9411764705882353
sS'inter-related'
p11
F0.004524886877828055
sS'interrelated'
p12
F0.004524886877828055
sS'supplemental'
p13
F0.004524886877828055
sS'inter-dependent'
p14
F0.004524886877828055
s.