(dp0
Vdistressing
p1
F0.0625
sVdreadful
p2
F0.0625
sVworse
p3
F0.0625
sVdepressed
p4
F0.0625
sVsad
p5
F0.125
sVdepressing
p6
F0.1875
sVdisappointing
p7
F0.0625
sVtragic
p8
F0.0625
sVhopeless
p9
F0.0625
sVmiserable
p10
F0.0625
sVdeplorable
p11
F0.0625
sVworst
p12
F0.0625
sVdisgraceful
p13
F0.0625
s.