(dp0
Vdisappointed
p1
F0.16666666666666666
sVregrettable
p2
F0.08333333333333333
sVmeagre
p3
F0.08333333333333333
sVdisappointing
p4
F0.25
sVsobering
p5
F0.16666666666666666
sVthin
p6
F0.08333333333333333
sVfrustrating
p7
F0.16666666666666666
s.