(dp0
Vpoor
p1
F0.15
sVunderprivileged
p2
F0.2
sVweaker
p3
F0.1
sVworse
p4
F0.05
sVsusceptible
p5
F0.05
sVpoorest
p6
F0.05
sVpoorer
p7
F0.05
sVdisadvantaged
p8
F0.25
sVvulnerable
p9
F0.05
sVweakest
p10
F0.05
s.