(dp0
S'distressing'
p1
F0.005050505050505051
sS'unexpected'
p2
F0.5959595959595959
sS'worse'
p3
F0.005050505050505051
sS'uncomfortable'
p4
F0.005050505050505051
sS'alarming'
p5
F0.005050505050505051
sS'troubling'
p6
F0.010101010101010102
sS'disquieting'
p7
F0.005050505050505051
sS'to'
p8
F0.30303030303030304
sS'sobering'
p9
F0.005050505050505051
sS'worst'
p10
F0.005050505050505051
sS'dire'
p11
F0.005050505050505051
sS'staggering'
p12
F0.005050505050505051
sS'disturbing'
p13
F0.015151515151515152
sS'shocking'
p14
F0.005050505050505051
sS'alarmed'
p15
F0.005050505050505051
sS'frightening'
p16
F0.005050505050505051
sS'worrying'
p17
F0.005050505050505051
sS'worrisome'
p18
F0.005050505050505051
sS'confusing'
p19
F0.005050505050505051
s.