(dp0
S'equivalent'
p1
F0.002531645569620253
sS'equal'
p2
F0.002531645569620253
sS'to'
p3
F0.589873417721519
sS'further'
p4
F0.39746835443037976
sS'mixed'
p5
F0.002531645569620253
sS'shared'
p6
F0.002531645569620253
sS'divided'
p7
F0.002531645569620253
s.