(dp0
Vridiculus
p1
F0.1111111111111111
sVchildish
p2
F0.1111111111111111
sVludicrous
p3
F0.1111111111111111
sVgrotesque
p4
F0.1111111111111111
sVpreposterous
p5
F0.1111111111111111
sVstupid
p6
F0.1111111111111111
sVpoppycock
p7
F0.1111111111111111
sVridiculous
p8
F0.1111111111111111
sVcheesy
p9
F0.1111111111111111
s.