(dp0
Vslower
p1
F0.06666666666666667
sVvibrant
p2
F0.13333333333333333
sVstronger
p3
F0.13333333333333333
sVdynamic
p4
F0.2
sVpro-active
p5
F0.13333333333333333
sVbuoyant
p6
F0.06666666666666667
sVaggressive
p7
F0.06666666666666667
sVproactive
p8
F0.2
s.