(dp0
Veducated
p1
F0.16666666666666666
sVknowledgeable
p2
F0.08333333333333333
sVbetter-educated
p3
F0.3333333333333333
sVinformed
p4
F0.08333333333333333
sVgraduate
p5
F0.08333333333333333
sVwell-educated
p6
F0.16666666666666666
sVwell-informed
p7
F0.08333333333333333
s.