(dp0
S'necessarily'
p1
F0.9562043795620438
sS'knowledgeable'
p2
F0.0036496350364963502
sS'better-educated'
p3
F0.014598540145985401
sS'informed'
p4
F0.0036496350364963502
sS'graduate'
p5
F0.0036496350364963502
sS'educated'
p6
F0.0072992700729927005
sS'well-educated'
p7
F0.0072992700729927005
sS'well-informed'
p8
F0.0036496350364963502
s.