(dp0
Voptimal
p1
F0.006666666666666667
sVbeneficial
p2
F0.006666666666666667
sVfinest
p3
F0.006666666666666667
sVuseful
p4
F0.013333333333333334
sVworthwhile
p5
F0.006666666666666667
sVnicer
p6
F0.013333333333333334
sVless
p7
F0.006666666666666667
sVhealthier
p8
F0.006666666666666667
sVawesome
p9
F0.006666666666666667
sVexcellent
p10
F0.006666666666666667
sVdesirable
p11
F0.006666666666666667
sVpotent
p12
F0.013333333333333334
sVstrongest
p13
F0.013333333333333334
sVgood
p14
F0.006666666666666667
sVenhanced
p15
F0.006666666666666667
sVformidable
p16
F0.006666666666666667
sVresponsive
p17
F0.013333333333333334
sVfruitful
p18
F0.013333333333333334
sVoptimum
p19
F0.006666666666666667
sVfairer
p20
F0.006666666666666667
sVbest
p21
F0.013333333333333334
sVincreased
p22
F0.006666666666666667
sVprofitable
p23
F0.006666666666666667
sVbetter
p24
F0.02
sVcost-efficient
p25
F0.006666666666666667
sVproductive
p26
F0.02666666666666667
sVgenuine
p27
F0.006666666666666667
sVefficacy
p28
F0.02666666666666667
sVefficient
p29
F0.08
sVmeaningful
p30
F0.02666666666666667
sVproficient
p31
F0.02
sVenforceable
p32
F0.006666666666666667
sVleast
p33
F0.006666666666666667
sVimprovement
p34
F0.006666666666666667
sVterrific
p35
F0.006666666666666667
sVbrighter
p36
F0.006666666666666667
sVideal
p37
F0.006666666666666667
sVwonderful
p38
F0.006666666666666667
sVeconomical
p39
F0.006666666666666667
sVsmarter
p40
F0.006666666666666667
sVcost-effective
p41
F0.02666666666666667
sVcost-effectively
p42
F0.006666666666666667
sVpreferable
p43
F0.006666666666666667
sVviable
p44
F0.013333333333333334
sVmore
p45
F0.013333333333333334
sVaffordable
p46
F0.006666666666666667
sVperfect
p47
F0.006666666666666667
sVfull
p48
F0.006666666666666667
sVinefficient
p49
F0.013333333333333334
sVefficacious
p50
F0.04666666666666667
sVsuperior
p51
F0.006666666666666667
sVsuccessful
p52
F0.04
sVpowerful
p53
F0.006666666666666667
sVclearer
p54
F0.006666666666666667
sVexecutory
p55
F0.006666666666666667
sVinstrumental
p56
F0.006666666666666667
sVfavourable
p57
F0.006666666666666667
sVlucrative
p58
F0.006666666666666667
sVwiser
p59
F0.006666666666666667
sVimproving
p60
F0.006666666666666667
sVhappier
p61
F0.006666666666666667
sVsafer
p62
F0.006666666666666667
sVhighest
p63
F0.006666666666666667
sVtrue
p64
F0.006666666666666667
sVsplendid
p65
F0.006666666666666667
sVeffectiveness
p66
F0.02666666666666667
sVimproved
p67
F0.013333333333333334
sVhelpful
p68
F0.006666666666666667
sVeffective
p69
F0.06666666666666667
sVbrilliant
p70
F0.006666666666666667
sVinexpensive
p71
F0.006666666666666667
sVstronger
p72
F0.013333333333333334
sVsuperb
p73
F0.006666666666666667
sVgreater
p74
F0.006666666666666667
sVfeasible
p75
F0.013333333333333334
sVeasier
p76
F0.006666666666666667
sVineffective
p77
F0.02
sVpracticable
p78
F0.013333333333333334
sVreal
p79
F0.006666666666666667
sVcost-effectiveness
p80
F0.006666666666666667
sVvalid
p81
F0.02666666666666667
s.