(dp0
Vgreat
p1
F0.047619047619047616
sVheart-warming
p2
F0.047619047619047616
sVreassuring
p3
F0.09523809523809523
sVchallenging
p4
F0.047619047619047616
sVheartening
p5
F0.047619047619047616
sVhopeful
p6
F0.047619047619047616
sVinspiring
p7
F0.09523809523809523
sVencouraging
p8
F0.19047619047619047
sVrewarding
p9
F0.047619047619047616
sVcomforting
p10
F0.047619047619047616
sVpromising
p11
F0.047619047619047616
sVsupportive
p12
F0.047619047619047616
sVpositive
p13
F0.047619047619047616
sVstimulating
p14
F0.047619047619047616
sVencouraged
p15
F0.09523809523809523
s.