(dp0
Vexecutable
p1
F0.0625
sVmandatory
p2
F0.0625
sVstraightforward
p3
F0.0625
sVjusticiable
p4
F0.0625
sVbinding
p5
F0.0625
sVenforceable
p6
F0.125
sVlegal
p7
F0.0625
sVdirect
p8
F0.0625
sVactionable
p9
F0.0625
sVover-the-air
p10
F0.0625
sVlawful
p11
F0.0625
sVlegally
p12
F0.0625
sVself-executing
p13
F0.0625
sVblunt
p14
F0.0625
sVexecutory
p15
F0.0625
s.