(dp0
Vpleasant
p1
F0.07692307692307693
sVgreat
p2
F0.038461538461538464
sVrefreshing
p3
F0.038461538461538464
sVnicer
p4
F0.07692307692307693
sVsweet
p5
F0.07692307692307693
sVawesome
p6
F0.07692307692307693
sVfantastic
p7
F0.038461538461538464
sVcomfortable
p8
F0.07692307692307693
sVenjoyable
p9
F0.038461538461538464
sVbygones
p10
F0.038461538461538464
sVdelightful
p11
F0.07692307692307693
sVcomforting
p12
F0.038461538461538464
sVnice
p13
F0.07692307692307693
sVagreeable
p14
F0.07692307692307693
sVlovely
p15
F0.07692307692307693
sVpleasurable
p16
F0.07692307692307693
s.