(dp0
Venvious
p1
F0.14285714285714285
sVinterestedin
p2
F0.14285714285714285
sVhungry
p3
F0.14285714285714285
sVanxious
p4
F0.14285714285714285
sVinterested
p5
F0.14285714285714285
sVwanna
p6
F0.14285714285714285
sVhorny
p7
F0.14285714285714285
s.