(dp0
Vrestless
p1
F0.01818181818181818
sVdelighted
p2
F0.03636363636363636
sVmarvelous
p3
F0.01818181818181818
sVgrateful
p4
F0.01818181818181818
sVaroused
p5
F0.05454545454545454
sVpleased
p6
F0.05454545454545454
sVspecial
p7
F0.01818181818181818
sVpsyched
p8
F0.03636363636363636
sVexciting
p9
F0.03636363636363636
sVoverjoyed
p10
F0.01818181818181818
sVtremendous
p11
F0.01818181818181818
sVoverwhelmed
p12
F0.01818181818181818
sVterrific
p13
F0.01818181818181818
sVamazing
p14
F0.01818181818181818
sVwonderful
p15
F0.01818181818181818
sVcontent
p16
F0.03636363636363636
sVexcited
p17
F0.14545454545454545
sVnice
p18
F0.03636363636363636
sVdispleased
p19
F0.01818181818181818
sVecstatic
p20
F0.03636363636363636
sVthrilled
p21
F0.03636363636363636
sVsatisfied
p22
F0.03636363636363636
sVextraordinary
p23
F0.01818181818181818
sVsexy
p24
F0.01818181818181818
sVoverwhelming
p25
F0.01818181818181818
sVyeah
p26
F0.01818181818181818
sVlovely
p27
F0.01818181818181818
sVmarvellous
p28
F0.01818181818181818
sVanxious
p29
F0.05454545454545454
sVenthusiastic
p30
F0.03636363636363636
sVimpatient
p31
F0.01818181818181818
sVkeen
p32
F0.01818181818181818
sVhappy
p33
F0.01818181818181818
s.