(dp0
S'gone'
p1
F0.00847457627118644
sS'subdued'
p2
F0.00847457627118644
sS'tired'
p3
F0.01694915254237288
sS'exhausted'
p4
F0.00847457627118644
sS'wrecked'
p5
F0.00847457627118644
sS'weary'
p6
F0.00847457627118644
sS'knackered'
p7
F0.00847457627118644
sS'before'
p8
F0.9322033898305084
s.