(dp0
S'experienced'
p1
F0.0013333333333333333
sS'pilot-tested'
p2
F0.0006666666666666666
sS'competence'
p3
F0.0006666666666666666
sS'jurisdictional'
p4
F0.0006666666666666666
sS'in'
p5
F0.9966666666666667
s.