(dp0
Vincorrect
p1
F0.12
sVfraudulent
p2
F0.08
sVerroneous
p3
F0.04
sVfalse
p4
F0.12
sVinaccurate
p5
F0.08
sVflawed
p6
F0.04
sVillusory
p7
F0.04
sVphony
p8
F0.04
sVwrong
p9
F0.08
sVuntrue
p10
F0.12
sVbogus
p11
F0.04
sVfake
p12
F0.12
sVcounterfeit
p13
F0.08
s.