(dp0
S'quicker'
p1
F0.000605143721633888
sS'smaller'
p2
F0.2653555219364599
sS'faster'
p3
F0.000605143721633888
sS'fast'
p4
F0.05143721633888049
sS'better'
p5
F0.1609682299546142
sS'quickest'
p6
F0.000605143721633888
sS'fastest'
p7
F0.000302571860816944
sS'quick'
p8
F0.000302571860816944
sS'with'
p9
F0.1951588502269289
sS'than'
p10
F0.2901664145234493
sS'really'
p11
F0.034493192133131616
s.