(dp0
S'beneficial'
p1
F0.010638297872340425
sS'everyone'
p2
F0.9361702127659575
sS'advantageous'
p3
F0.010638297872340425
sS'better'
p4
F0.010638297872340425
sS'favourable'
p5
F0.010638297872340425
sS'favorable'
p6
F0.010638297872340425
sS'conducive'
p7
F0.010638297872340425
s.