(dp0
S'limited'
p1
F0.0017241379310344827
sS'smaller'
p2
F0.0017241379310344827
sS'less'
p3
F0.005172413793103448
sS'scanty'
p4
F0.0034482758620689655
sS'some'
p5
F0.16551724137931034
sS'meagre'
p6
F0.005172413793103448
sS'least'
p7
F0.0017241379310344827
sS'sporadic'
p8
F0.0017241379310344827
sS'scarce'
p9
F0.006896551724137931
sS'rarely'
p10
F0.0017241379310344827
sS'any'
p11
F0.46379310344827585
sS'little'
p12
F0.010344827586206896
sS'insignificant'
p13
F0.0034482758620689655
sS'tiny'
p14
F0.0017241379310344827
sS'shorter'
p15
F0.0017241379310344827
sS'few'
p16
F0.008620689655172414
sS'much'
p17
F0.0017241379310344827
sS'low'
p18
F0.0017241379310344827
sS'scant'
p19
F0.005172413793103448
sS'several'
p20
F0.0017241379310344827
sS'minimal'
p21
F0.005172413793103448
sS'difficult'
p22
F0.0017241379310344827
sS'poor'
p23
F0.0017241379310344827
sS'slight'
p24
F0.005172413793103448
sS'very'
p25
F0.0017241379310344827
sS'weak'
p26
F0.0034482758620689655
sS'uncommon'
p27
F0.0034482758620689655
sS'modest'
p28
F0.0017241379310344827
sS'nearly'
p29
F0.0017241379310344827
sS'rarer'
p30
F0.0017241379310344827
sS'rare'
p31
F0.0034482758620689655
sS'irrelevant'
p32
F0.0017241379310344827
sS'infrequent'
p33
F0.0034482758620689655
sS'almost'
p34
F0.0017241379310344827
sS'short'
p35
F0.006896551724137931
sS'shortly'
p36
F0.005172413793103448
sS'practically'
p37
F0.0017241379310344827
sS'scarcer'
p38
F0.0017241379310344827
sS'virtually'
p39
F0.0017241379310344827
sS'seldom'
p40
F0.0017241379310344827
sS'inexpensive'
p41
F0.0017241379310344827
sS'unimportant'
p42
F0.005172413793103448
sS'fewer'
p43
F0.22241379310344828
sS'minor'
p44
F0.0017241379310344827
sS'sparse'
p45
F0.005172413793103448
sS'small'
p46
F0.0034482758620689655
sS'insufficient'
p47
F0.005172413793103448
sS'slightly'
p48
F0.0034482758620689655
s.