(dp0
S'firm'
p1
F0.0011441647597254005
sS'necessarily'
p2
F0.41189931350114417
sS'vigorous'
p3
F0.0011441647597254005
sS'steadfast'
p4
F0.0011441647597254005
sS'tougher'
p5
F0.0011441647597254005
sS'solid'
p6
F0.0011441647597254005
sS'resolute'
p7
F0.0011441647597254005
sS'stronger'
p8
F0.0011441647597254005
sS'firmer'
p9
F0.002288329519450801
sS'most'
p10
F0.057208237986270026
sS'strongest'
p11
F0.0011441647597254005
sS'definite'
p12
F0.0011441647597254005
sS'so'
p13
F0.5148741418764302
sS'tough'
p14
F0.0011441647597254005
sS'robust'
p15
F0.0011441647597254005
sS'strong'
p16
F0.0011441647597254005
s.