(dp0
Vfirm
p1
F0.07142857142857142
sVvigorous
p2
F0.07142857142857142
sVsteadfast
p3
F0.07142857142857142
sVtougher
p4
F0.07142857142857142
sVsolid
p5
F0.07142857142857142
sVresolute
p6
F0.07142857142857142
sVstronger
p7
F0.07142857142857142
sVfirmer
p8
F0.14285714285714285
sVstrongest
p9
F0.07142857142857142
sVdefinite
p10
F0.07142857142857142
sVtough
p11
F0.07142857142857142
sVrobust
p12
F0.07142857142857142
sVstrong
p13
F0.07142857142857142
s.