(dp0
Vleaner
p1
F0.05
sVflexibly
p2
F0.1
sVlimber
p3
F0.05
sVrelaxed
p4
F0.05
sVsmoother
p5
F0.05
sVinflexible
p6
F0.05
sVadaptable
p7
F0.1
sVflexibility
p8
F0.05
sVresponsive
p9
F0.1
sVflexible
p10
F0.25
sVslimmer
p11
F0.05
sVlooser
p12
F0.1
s.