(dp0
Vcrazy
p1
F0.038461538461538464
sVrubbish
p2
F0.038461538461538464
sVstupider
p3
F0.038461538461538464
sVunwise
p4
F0.038461538461538464
sVlame
p5
F0.038461538461538464
sVidiot
p6
F0.038461538461538464
sVsenseless
p7
F0.038461538461538464
sVstupid
p8
F0.07692307692307693
sVdumber
p9
F0.038461538461538464
sVridiculous
p10
F0.038461538461538464
sVignorant
p11
F0.038461538461538464
sVasinine
p12
F0.038461538461538464
sVfilthy
p13
F0.038461538461538464
sVbrainless
p14
F0.038461538461538464
sVunreasonable
p15
F0.038461538461538464
sVidiotic
p16
F0.07692307692307693
sVdaft
p17
F0.038461538461538464
sVsilly
p18
F0.07692307692307693
sVretarded
p19
F0.038461538461538464
sVdumb
p20
F0.038461538461538464
sVweird
p21
F0.038461538461538464
sVfoolish
p22
F0.07692307692307693
s.