(dp0
Vcorresponding
p1
F0.08333333333333333
sVresponsable
p2
F0.08333333333333333
sVirresponsible
p3
F0.08333333333333333
sVguilty
p4
F0.08333333333333333
sVappropriate
p5
F0.08333333333333333
sVaccountability
p6
F0.08333333333333333
sVanswerable
p7
F0.08333333333333333
sVaccountable
p8
F0.08333333333333333
sVwonderful
p9
F0.08333333333333333
sVresponsibility
p10
F0.08333333333333333
sVliable
p11
F0.08333333333333333
sVduty-bound
p12
F0.08333333333333333
s.