(dp0
Vgreat
p1
F0.058823529411764705
sVfabulous
p2
F0.058823529411764705
sVsplendid
p3
F0.058823529411764705
sVincredible
p4
F0.058823529411764705
sVtremendous
p5
F0.058823529411764705
sVawesome
p6
F0.058823529411764705
sVmagnificent
p7
F0.058823529411764705
sVfantastic
p8
F0.058823529411764705
sVterrific
p9
F0.058823529411764705
sVmarvelous
p10
F0.058823529411764705
sVwonderful
p11
F0.058823529411764705
sVformidable
p12
F0.058823529411764705
sVdynamite
p13
F0.058823529411764705
sVlovely
p14
F0.058823529411764705
sVmarvellous
p15
F0.058823529411764705
sVbrilliant
p16
F0.058823529411764705
sVbigger
p17
F0.058823529411764705
s.