(dp0
Vpoor
p1
F0.05555555555555555
sVunlucky
p2
F0.05555555555555555
sVunderprivileged
p3
F0.05555555555555555
sVdeprived
p4
F0.05555555555555555
sVpoorest
p5
F0.05555555555555555
sVdelighted
p6
F0.05555555555555555
sVlucky
p7
F0.1111111111111111
sVdisadvantaged
p8
F0.05555555555555555
sVluckier
p9
F0.1111111111111111
sVtragic
p10
F0.05555555555555555
sVunfortunate
p11
F0.05555555555555555
sVluck
p12
F0.05555555555555555
sVhelpless
p13
F0.05555555555555555
sVfortunate
p14
F0.05555555555555555
sVpowerless
p15
F0.05555555555555555
sVhappy
p16
F0.05555555555555555
s.