(dp0
Vsound
p1
F0.09090909090909091
sVunwarranted
p2
F0.09090909090909091
sVwell-founded
p3
F0.09090909090909091
sVsubstantiated
p4
F0.09090909090909091
sVinadmissible
p5
F0.09090909090909091
sVacceptable
p6
F0.09090909090909091
sVjustifiable
p7
F0.09090909090909091
sVfounded
p8
F0.09090909090909091
sVadmissible
p9
F0.09090909090909091
sVreasonable
p10
F0.09090909090909091
sVunfounded
p11
F0.09090909090909091
s.