(dp0
S'sound'
p1
F0.00303951367781155
sS'unwarranted'
p2
F0.00303951367781155
sS'well-founded'
p3
F0.00303951367781155
sS'substantiated'
p4
F0.00303951367781155
sS'inadmissible'
p5
F0.00303951367781155
sS'acceptable'
p6
F0.00303951367781155
sS'justifiable'
p7
F0.00303951367781155
sS'founded'
p8
F0.00303951367781155
sS'admissible'
p9
F0.00303951367781155
sS'a'
p10
F0.9665653495440729
sS'reasonable'
p11
F0.00303951367781155
sS'unfounded'
p12
F0.00303951367781155
s.