(dp0
Vopen
p1
F0.08823529411764706
sVgenuine
p2
F0.058823529411764705
sVfair
p3
F0.029411764705882353
sVstraightforward
p4
F0.08823529411764706
sVfrank
p5
F0.08823529411764706
sVsincere
p6
F0.058823529411764705
sVdishonest
p7
F0.058823529411764705
sVhonest
p8
F0.08823529411764706
sVkosher
p9
F0.058823529411764705
sVrespectable
p10
F0.058823529411764705
sVcandid
p11
F0.08823529411764706
sVupfront
p12
F0.058823529411764705
sVtruthful
p13
F0.058823529411764705
sVblunt
p14
F0.029411764705882353
sVstraight
p15
F0.029411764705882353
sVdecent
p16
F0.029411764705882353
sVfranco
p17
F0.029411764705882353
s.