(dp0
S'hairy'
p1
F0.0036900369003690036
sS'scary'
p2
F0.007380073800738007
sS'dreadful'
p3
F0.0036900369003690036
sS'freaky'
p4
F0.0036900369003690036
sS'awesome'
p5
F0.0036900369003690036
sS'terrible'
p6
F0.0036900369003690036
sS'creepy'
p7
F0.007380073800738007
sS'appalling'
p8
F0.0036900369003690036
sS'terrific'
p9
F0.0036900369003690036
sS'terrifying'
p10
F0.9372693726937269
sS'awful'
p11
F0.007380073800738007
sS'horrifying'
p12
F0.007380073800738007
sS'frightening'
p13
F0.0036900369003690036
sS'frightful'
p14
F0.0036900369003690036
s.