(dp0
S'distressing'
p1
F0.002785515320334262
sS'unsatisfactory'
p2
F0.002785515320334262
sS'disappointing'
p3
F0.005571030640668524
sS'time'
p4
F0.9805013927576601
sS'frustrating'
p5
F0.005571030640668524
sS'painful'
p6
F0.002785515320334262
s.