(dp0
S'full'
p1
F0.0015785319652722968
sS'complete'
p2
F0.0007892659826361484
sS'comprehensive'
p3
F0.0007892659826361484
sS'completed'
p4
F0.0003946329913180742
sS'overloaded'
p5
F0.4325177584846093
sS'overflowing'
p6
F0.08524072612470403
sS'thorough'
p7
F0.0011838989739542227
sS'tight'
p8
F0.0003946329913180742
sS'severe'
p9
F0.0003946329913180742
sS'lively'
p10
F0.0003946329913180742
sS'stuffed'
p11
F0.39936858721389107
sS'flush'
p12
F0.0003946329913180742
sS'fun'
p13
F0.0749802683504341
sS'exhaustive'
p14
F0.0007892659826361484
sS'extensive'
p15
F0.0003946329913180742
sS'tied'
p16
F0.0003946329913180742
s.