(dp0
Vfull
p1
F0.2
sVcomplete
p2
F0.1
sVcomprehensive
p3
F0.1
sVcompleted
p4
F0.05
sVthorough
p5
F0.15
sVtight
p6
F0.05
sVsevere
p7
F0.05
sVlively
p8
F0.05
sVflush
p9
F0.05
sVtied
p10
F0.05
sVexhaustive
p11
F0.1
sVextensive
p12
F0.05
s.