(dp0
Vbeautiful
p1
F0.02702702702702703
sVcute
p2
F0.05405405405405406
sVfantastic
p3
F0.02702702702702703
sVnicer
p4
F0.02702702702702703
sVsweet
p5
F0.05405405405405406
sVawesome
p6
F0.02702702702702703
sVfancy
p7
F0.02702702702702703
sVenjoyable
p8
F0.08108108108108109
sVmarvelous
p9
F0.02702702702702703
sVthoughtful
p10
F0.05405405405405406
sVfunny
p11
F0.08108108108108109
sVincredible
p12
F0.02702702702702703
sVsuperb
p13
F0.02702702702702703
sVterrific
p14
F0.02702702702702703
sVwonderful
p15
F0.02702702702702703
sVamusing
p16
F0.02702702702702703
sVhilarious
p17
F0.05405405405405406
sVlovely
p18
F0.05405405405405406
sVnice
p19
F0.05405405405405406
sVcool
p20
F0.05405405405405406
sVgreat
p21
F0.02702702702702703
sVbrilliant
p22
F0.02702702702702703
sVfun
p23
F0.05405405405405406
sVentertaining
p24
F0.05405405405405406
s.