(dp0
S'full'
p1
F0.004761904761904762
sS'functional'
p2
F0.004761904761904762
sS'operational'
p3
F0.009523809523809525
sS'elegant'
p4
F0.4857142857142857
sS'attractive'
p5
F0.47619047619047616
sS'workable'
p6
F0.009523809523809525
sS'functioning'
p7
F0.004761904761904762
sS'functionally'
p8
F0.004761904761904762
s.