(dp0
S'state-run'
p1
F0.003875968992248062
sS'though'
p2
F0.9728682170542635
sS'state-owned'
p3
F0.003875968992248062
sS'funded'
p4
F0.003875968992248062
sS'state-funded'
p5
F0.003875968992248062
sS'government-owned'
p6
F0.003875968992248062
sS'open'
p7
F0.003875968992248062
sS'public'
p8
F0.003875968992248062
s.