(dp0
Vbeautiful
p1
F0.04
sVfantastic
p2
F0.08
sVawesome
p3
F0.04
sVmagnificent
p4
F0.04
sVmarvelous
p5
F0.04
sVfabulous
p6
F0.04
sVdelicious
p7
F0.04
sVcherry
p8
F0.04
sVsuperb
p9
F0.04
sVterrific
p10
F0.04
sVamazing
p11
F0.04
sVwonderful
p12
F0.04
sVgorgeous
p13
F0.04
sVlovely
p14
F0.04
sVspectacular
p15
F0.04
sVmasterful
p16
F0.04
sVhandsome
p17
F0.04
sVgreat
p18
F0.04
sVsplendid
p19
F0.04
sVbrilliant
p20
F0.04
sVglorious
p21
F0.08
sVphenomenal
p22
F0.04
sVexquisite
p23
F0.04
s.