(dp0
Vavailable
p1
F0.08333333333333333
sVreadyto
p2
F0.08333333333333333
sV-ready
p3
F0.08333333333333333
sVgotta
p4
F0.08333333333333333
sVunprepared
p5
F0.08333333333333333
sVgonna
p6
F0.08333333333333333
sVprepared
p7
F0.08333333333333333
sVgo
p8
F0.16666666666666666
sVgoing
p9
F0.08333333333333333
sVdesperate
p10
F0.08333333333333333
sVready
p11
F0.08333333333333333
s.