(dp0
S'heavy'
p1
F0.025
sS'aggravated'
p2
F0.0125
sS'gravest'
p3
F0.025
sS'in'
p4
F0.55
sS'outrageous'
p5
F0.025
sS'seriously'
p6
F0.0125
sS'critical'
p7
F0.025
sS'grave'
p8
F0.025
sS'fatal'
p9
F0.0125
sS'grievous'
p10
F0.0125
sS'worse'
p11
F0.025
sS'very'
p12
F0.0125
sS'dramatic'
p13
F0.025
sS'worst'
p14
F0.0125
sS'dire'
p15
F0.025
sS'vast'
p16
F0.0125
sS'acute'
p17
F0.0125
sS'great'
p18
F0.0125
sS'dangerous'
p19
F0.025
sS'terrible'
p20
F0.0125
sS'large'
p21
F0.0125
sS'severe'
p22
F0.0375
sS'greatest'
p23
F0.0125
sS'serious'
p24
F0.0375
s.