(dp0
S'major'
p1
F0.0010559662090813093
sS'primary'
p2
F0.0010559662090813093
sS'majeure'
p3
F0.0010559662090813093
sS'2nd'
p4
F0.0010559662090813093
sS'second'
p5
F0.0010559662090813093
sS'wider'
p6
F0.0010559662090813093
sS'principal'
p7
F0.0010559662090813093
sS'widest'
p8
F0.0021119324181626186
sS'to'
p9
F0.7518479408658922
sS'only'
p10
F0.21752903907074975
sS'largest'
p11
F0.0021119324181626186
sS'biggest'
p12
F0.0010559662090813093
sS'main'
p13
F0.0010559662090813093
sS'higher'
p14
F0.0021119324181626186
sS'greater'
p15
F0.0021119324181626186
sS'most'
p16
F0.0010559662090813093
sS'highest'
p17
F0.0021119324181626186
sS'bigger'
p18
F0.0021119324181626186
sS'older'
p19
F0.0021119324181626186
sS'larger'
p20
F0.0021119324181626186
sS'stronger'
p21
F0.0010559662090813093
sS'greatest'
p22
F0.0021119324181626186
s.