(dp0
S'heavy'
p1
F0.00017179178835251675
sS'tough'
p2
F0.0017179178835251675
sS'challenging'
p3
F0.00017179178835251675
sS'tougher'
p4
F0.0005153753650575503
sS'problematic'
p5
F0.000687167153410067
sS'hard'
p6
F0.0025768768252877514
sS'sharp'
p7
F0.00017179178835251675
sS'uncomfortable'
p8
F0.0003435835767050335
sS'horrendous'
p9
F0.00017179178835251675
sS'miserable'
p10
F0.00017179178835251675
sS'cumbersome'
p11
F0.0003435835767050335
sS'trivial'
p12
F0.014086926644906373
sS'rough'
p13
F0.0008589589417625838
sS'dreadful'
p14
F0.00017179178835251675
sS'rock-hard'
p15
F0.0024050850369352343
sS'harsh'
p16
F0.001374334306820134
sS'awkward'
p17
F0.0008589589417625838
sS'bad'
p18
F0.00017179178835251675
sS'intense'
p19
F0.00017179178835251675
sS'intensive'
p20
F0.00017179178835251675
sS'complex'
p21
F0.00017179178835251675
sS'easy'
p22
F0.13142071808967531
sS'horrible'
p23
F0.00017179178835251675
sS'inconvenient'
p24
F0.00017179178835251675
sS'bitter'
p25
F0.00017179178835251675
sS'easier'
p26
F0.0003435835767050335
sS'painful'
p27
F0.022504724274179693
sS'difficult'
p28
F0.0022332932485827177
sS'hardworking'
p29
F0.0008589589417625838
sS'straightforward'
p30
F0.000687167153410067
sS'hardto'
p31
F0.00017179178835251675
sS'elusive'
p32
F0.0003435835767050335
sS'strong'
p33
F0.00017179178835251675
sS'considerable'
p34
F0.00017179178835251675
sS'tricky'
p35
F0.0005153753650575503
sS'great'
p36
F0.0003435835767050335
sS'impractical'
p37
F0.00017179178835251675
sS'stiff'
p38
F0.00017179178835251675
sS'harder'
p39
F0.713451297028002
sS'terrible'
p40
F0.00017179178835251675
sS'brutal'
p41
F0.00017179178835251675
sS'severe'
p42
F0.00017179178835251675
sS'so'
p43
F0.00017179178835251675
sS'hopeless'
p44
F0.09689056863081945
sS'arduous'
p45
F0.0008589589417625838
s.