(dp0
Vworse
p1
F0.15384615384615385
sVdangerous
p2
F0.3076923076923077
sVhazardous
p3
F0.07692307692307693
sVtreacherous
p4
F0.07692307692307693
sVharmful
p5
F0.07692307692307693
sVunsafe
p6
F0.07692307692307693
sVsafer
p7
F0.07692307692307693
sVperilous
p8
F0.07692307692307693
sVrisky
p9
F0.07692307692307693
s.