(dp0
Vfruitless
p1
F0.058823529411764705
sVworthless
p2
F0.058823529411764705
sVdefenseless
p3
F0.058823529411764705
sVsuperfluous
p4
F0.058823529411764705
sVdefenceless
p5
F0.058823529411764705
sVmeaningless
p6
F0.058823529411764705
sVextraneous
p7
F0.058823529411764705
sVunnecessary
p8
F0.058823529411764705
sVunhelpful
p9
F0.058823529411764705
sVharmless
p10
F0.058823529411764705
sVineffective
p11
F0.058823529411764705
sVhopeless
p12
F0.058823529411764705
sVfutile
p13
F0.058823529411764705
sVirrelevant
p14
F0.058823529411764705
sVpointless
p15
F0.058823529411764705
sVpowerless
p16
F0.058823529411764705
sVuseless
p17
F0.058823529411764705
s.