(dp0
Vafraid
p1
F0.0625
sVfearful
p2
F0.125
sVnervous
p3
F0.0625
sVconcerned
p4
F0.0625
sVupset
p5
F0.0625
sVworried
p6
F0.0625
sVanxious
p7
F0.0625
sVuneasy
p8
F0.0625
sVfrightening
p9
F0.125
sVlovely
p10
F0.0625
sVtroubled
p11
F0.0625
sVfrightened
p12
F0.125
sVscared
p13
F0.0625
s.