(dp0
S'stringent'
p1
F0.00019428793471925395
sS'excessive'
p2
F0.002525743151350301
sS'enormously'
p3
F0.00019428793471925395
sS'remarkable'
p4
F0.0007771517388770158
sS'reprehensible'
p5
F0.00019428793471925395
sS'excellent'
p6
F0.00019428793471925395
sS'unacceptable'
p7
F0.00019428793471925395
sS'far-reaching'
p8
F0.00019428793471925395
sS'wide-ranging'
p9
F0.00019428793471925395
sS'stoned'
p10
F0.00019428793471925395
sS'particularly'
p11
F0.00019428793471925395
sS'unique'
p12
F0.00019428793471925395
sS'grotesque'
p13
F0.00019428793471925395
sS'almighty'
p14
F0.00019428793471925395
sS'vast'
p15
F0.0005828638041577618
sS'rich'
p16
F0.00019428793471925395
sS'adequate'
p17
F0.00019428793471925395
sS'disproportionate'
p18
F0.0003885758694385079
sS'greater'
p19
F0.0005828638041577618
sS'exceptional'
p20
F0.009131532931804935
sS'very'
p21
F0.0005828638041577618
sS'big'
p22
F0.00019428793471925395
sS'grand'
p23
F0.0003885758694385079
sS'untenable'
p24
F0.00019428793471925395
sS'smug'
p25
F0.00019428793471925395
sS'proportionate'
p26
F0.00019428793471925395
sS'frightening'
p27
F0.00019428793471925395
sS'bigger'
p28
F0.0003885758694385079
sS'above'
p29
F0.00019428793471925395
sS'moderate'
p30
F0.00019428793471925395
sS'impressive'
p31
F0.00019428793471925395
sS'unexceptable'
p32
F0.00019428793471925395
sS'toasted'
p33
F0.00019428793471925395
sS'large'
p34
F0.0007771517388770158
sS'sufficiently'
p35
F0.00019428793471925395
sS'stupid'
p36
F0.00019428793471925395
sS'shocking'
p37
F0.0003885758694385079
sS'intolerable'
p38
F0.00019428793471925395
sS'heavy'
p39
F0.0003885758694385079
sS'upper'
p40
F0.0003885758694385079
sS'colossal'
p41
F0.0005828638041577618
sS'overwhelming'
p42
F0.0005828638041577618
sS'magnificent'
p43
F0.00019428793471925395
sS'relative'
p44
F0.00019428793471925395
sS'exorbitant'
p45
F0.0015543034777540316
sS'disturbing'
p46
F0.00019428793471925395
sS'two-fold'
p47
F0.00019428793471925395
sS'inappropriate'
p48
F0.00019428793471925395
sS'alarming'
p49
F0.0003885758694385079
sS'crucial'
p50
F0.00019428793471925395
sS'enough'
p51
F0.0003885758694385079
sS'all-powerful'
p52
F0.00019428793471925395
sS'hilarious'
p53
F0.0003885758694385079
sS'increasing'
p54
F0.00019428793471925395
sS'overly-high'
p55
F0.00019428793471925395
sS'extraordinary'
p56
F0.0003885758694385079
sS'dire'
p57
F0.00019428793471925395
sS'strong'
p58
F0.0005828638041577618
sS'intense'
p59
F0.0003885758694385079
sS'extreme'
p60
F0.0005828638041577618
sS'two-pronged'
p61
F0.00019428793471925395
sS'great'
p62
F0.0009714396735962696
sS'rare'
p63
F0.00019428793471925395
sS'larger'
p64
F0.0003885758694385079
sS'unreliable'
p65
F0.00019428793471925395
sS'burdensome'
p66
F0.00019428793471925395
sS'healthier'
p67
F0.0003885758694385079
sS'undesirable'
p68
F0.00019428793471925395
sS'major'
p69
F0.00019428793471925395
sS'tough'
p70
F0.00019428793471925395
sS'unsustainable'
p71
F0.00019428793471925395
sS'striking'
p72
F0.00019428793471925395
sS'crazy'
p73
F0.00019428793471925395
sS'improper'
p74
F0.00019428793471925395
sS'massive'
p75
F0.0005828638041577618
sS'formidable'
p76
F0.0007771517388770158
sS'expensive'
p77
F0.0005828638041577618
sS'unusual'
p78
F0.00019428793471925395
sS'inadmissible'
p79
F0.00019428793471925395
sS'ever-increasing'
p80
F0.00019428793471925395
sS'tremendous'
p81
F0.0007771517388770158
sS'specifically'
p82
F0.00019428793471925395
sS'immense'
p83
F0.0007771517388770158
sS'wonderful'
p84
F0.0003885758694385079
sS'lovely'
p85
F0.00019428793471925395
sS'unthinkable'
p86
F0.00019428793471925395
sS'indefensible'
p87
F0.00019428793471925395
sS'extensive'
p88
F0.00019428793471925395
sS'vigorous'
p89
F0.00019428793471925395
sS'staggering'
p90
F0.0005828638041577618
sS'sufficient'
p91
F0.00019428793471925395
sS'enormous'
p92
F0.0007771517388770158
sS'uncommon'
p93
F0.00019428793471925395
sS'dramatic'
p94
F0.00019428793471925395
sS'particular'
p95
F0.00019428793471925395
sS'wasted'
p96
F0.00019428793471925395
sS'prodigious'
p97
F0.0003885758694385079
sS'highest'
p98
F0.024480279774625996
sS'considerable'
p99
F0.0011657276083155237
sS'wide'
p100
F0.00019428793471925395
sS'objectionable'
p101
F0.00019428793471925395
sS'double'
p102
F0.00019428793471925395
sS'strongest'
p103
F0.0003885758694385079
sS'outrageous'
p104
F0.00019428793471925395
sS'growing'
p105
F0.00019428793471925395
sS'gigantic'
p106
F0.00019428793471925395
sS'unsatisfactory'
p107
F0.00019428793471925395
sS'supreme'
p108
F0.0003885758694385079
sS'sizeable'
p109
F0.00019428793471925395
sS'outstanding'
p110
F0.0003885758694385079
sS'awesome'
p111
F0.00019428793471925395
sS'general'
p112
F0.00019428793471925395
sS'high'
p113
F0.004080046629104332
sS'substantial'
p114
F0.0005828638041577618
sS'daunting'
p115
F0.00019428793471925395
sS'cumbersome'
p116
F0.00019428793471925395
sS'relatively'
p117
F0.00019428793471925395
sS'huge'
p118
F0.0007771517388770158
sS'twofold'
p119
F0.00019428793471925395
sS'elevated'
p120
F0.0011657276083155237
sS'terrific'
p121
F0.00019428793471925395
sS'tight'
p122
F0.00019428793471925395
sS'amazing'
p123
F0.00019428793471925395
sS'largest'
p124
F0.00019428793471925395
sS'widespread'
p125
F0.00019428793471925395
sS'insufferable'
p126
F0.00019428793471925395
sS'acceptable'
p127
F0.00019428793471925395
sS'higher'
p128
F0.912764717311055
sS'paramount'
p129
F0.00019428793471925395
sS'prohibitive'
p130
F0.0011657276083155237
sS'important'
p131
F0.00019428793471925395
sS'significant'
p132
F0.0003885758694385079
sS'serious'
p133
F0.00019428793471925395
sS'fierce'
p134
F0.0003885758694385079
sS'alarmed'
p135
F0.00019428793471925395
sS'extremely'
p136
F0.0003885758694385079
sS'especially'
p137
F0.00019428793471925395
sS'stronger'
p138
F0.00019428793471925395
sS'unreasonable'
p139
F0.0003885758694385079
sS'appalling'
p140
F0.00019428793471925395
sS'astonishing'
p141
F0.0003885758694385079
sS'severe'
p142
F0.0005828638041577618
sS'sobering'
p143
F0.00019428793471925395
sS'so'
p144
F0.00019428793471925395
sS'greatest'
p145
F0.0005828638041577618
sS'phenomenal'
p146
F0.0003885758694385079
sS'tall'
p147
F0.0005828638041577618
sS'impermissible'
p148
F0.00019428793471925395
s.