(dp0
Vfair
p1
F0.05154639175257732
sVsincere
p2
F0.041237113402061855
sVsincerely
p3
F0.010309278350515464
sVinsincere
p4
F0.010309278350515464
sVopen
p5
F0.030927835051546393
sVfairer
p6
F0.010309278350515464
sVgenuine
p7
F0.010309278350515464
sVfranco
p8
F0.010309278350515464
sVdecent
p9
F0.07216494845360824
sVhonorable
p10
F0.010309278350515464
sVblunt
p11
F0.041237113402061855
sVstraightforward
p12
F0.041237113402061855
sVfrank
p13
F0.061855670103092786
sVcandid
p14
F0.041237113402061855
sVupfront
p15
F0.030927835051546393
sVtrue
p16
F0.010309278350515464
sVlegit
p17
F0.041237113402061855
sVrespectable
p18
F0.07216494845360824
sVtruthful
p19
F0.07216494845360824
sVstraight
p20
F0.05154639175257732
sVdishonest
p21
F0.08247422680412371
sVhonest
p22
F0.08247422680412371
sVkosher
p23
F0.061855670103092786
sVloyal
p24
F0.030927835051546393
sVclean
p25
F0.020618556701030927
s.