(dp0
S'injured'
p1
F0.004098360655737705
sS'hurting'
p2
F0.004098360655737705
sS'naughty'
p3
F0.004098360655737705
sS'lousy'
p4
F0.004098360655737705
sS'hurtful'
p5
F0.004098360655737705
sS'hurt'
p6
F0.01639344262295082
sS'hurtin'
p7
F0.004098360655737705
sS'sore'
p8
F0.004098360655737705
sS'wrong'
p9
F0.004098360655737705
sS'hard-pressed'
p10
F0.004098360655737705
sS'in'
p11
F0.9385245901639344
sS'miserable'
p12
F0.004098360655737705
sS'crippled'
p13
F0.004098360655737705
s.