(dp0
S'tough'
p1
F0.00015728216420257942
sS'impracticable'
p2
F0.002201950298836112
sS'tougher'
p3
F0.00015728216420257942
sS'hard'
p4
F0.00015728216420257942
sS'unworkable'
p5
F0.0020446681346335325
sS'likely'
p6
F0.014784523435042466
sS'unlikely'
p7
F0.00031456432840515884
sS'impossible'
p8
F0.0018873859704309531
sS'miserable'
p9
F0.0017301038062283738
sS'unattainable'
p10
F0.0020446681346335325
sS'rough'
p11
F0.00015728216420257942
sS'unachievable'
p12
F0.0017301038062283738
sS'rock-hard'
p13
F0.00015728216420257942
sS'unavailable'
p14
F0.001100975149418056
sS'callous'
p15
F0.00015728216420257942
sS'obtainable'
p16
F0.0014155394778232148
sS'unable'
p17
F0.0020446681346335325
sS'infeasible'
p18
F0.0020446681346335325
sS'unthinkable'
p19
F0.00031456432840515884
sS'painful'
p20
F0.00015728216420257942
sS'hopeless'
p21
F0.0017301038062283738
sS'hardworking'
p22
F0.00015728216420257942
sS'rude'
p23
F0.00015728216420257942
sS'impulsive'
p24
F0.0012582573136206354
sS'untenable'
p25
F0.0009436929852154766
sS'elusive'
p26
F0.0009436929852154766
sS'inconceivable'
p27
F0.0006291286568103177
sS'with'
p28
F0.900912236552375
sS'harsh'
p29
F0.00015728216420257942
sS'tricky'
p30
F0.00015728216420257942
sS'hardto'
p31
F0.00015728216420257942
sS'impractical'
p32
F0.0020446681346335325
sS'stiff'
p33
F0.00015728216420257942
sS'insufferable'
p34
F0.0017301038062283738
sS'harder'
p35
F0.00015728216420257942
sS'feasible'
p36
F0.00031456432840515884
sS'bad'
p37
F0.00015728216420257942
sS'undesirable'
p38
F0.026737967914438502
sS'unfeasible'
p39
F0.0020446681346335325
sS'panicky'
p40
F0.0012582573136206354
sS'at'
p41
F0.023435042466184334
s.