(dp0
S'insane'
p1
F0.0005194805194805195
sS'breathtaking'
p2
F0.001038961038961039
sS'tough'
p3
F0.0005194805194805195
sS'remarkable'
p4
F0.0015584415584415584
sS'outstanding'
p5
F0.0015584415584415584
sS'awesome'
p6
F0.004675324675324675
sS'magnificent'
p7
F0.0005194805194805195
sS'fantastic'
p8
F0.0005194805194805195
sS'substantial'
p9
F0.0005194805194805195
sS'formidable'
p10
F0.001038961038961039
sS'daunting'
p11
F0.001038961038961039
sS'impressed'
p12
F0.003116883116883117
sS'incredible'
p13
F0.003116883116883117
sS'tremendous'
p14
F0.001038961038961039
sS'phenomenal'
p15
F0.0005194805194805195
sS'striking'
p16
F0.002077922077922078
sS'terrific'
p17
F0.0005194805194805195
sS'also'
p18
F0.06337662337662338
sS'amazing'
p19
F0.0025974025974025974
sS'wonderful'
p20
F0.0005194805194805195
sS'imperative'
p21
F0.0005194805194805195
sS'unbelievable'
p22
F0.0005194805194805195
sS'spectacular'
p23
F0.0036363636363636364
sS'scary'
p24
F0.0025974025974025974
sS'staggering'
p25
F0.001038961038961039
sS'astounding'
p26
F0.001038961038961039
sS'free'
p27
F0.028051948051948054
sS'dramatic'
p28
F0.001038961038961039
sS'intimidating'
p29
F0.002077922077922078
sS'excellent'
p30
F0.0005194805194805195
sS'overwhelming'
p31
F0.15376623376623377
sS'considerable'
p32
F0.0005194805194805195
sS'splendid'
p33
F0.0005194805194805195
sS'on'
p34
F0.046753246753246755
sS'first-rate'
p35
F0.0005194805194805195
sS'impressive'
p36
F0.0025974025974025974
sS'astonishing'
p37
F0.0005194805194805195
sS'unreal'
p38
F0.0005194805194805195
sS'though'
p39
F0.6602597402597402
sS'shocking'
p40
F0.0025974025974025974
s.