(dp0
S'available'
p1
F0.016198447931139653
sS'detailed'
p2
F0.00638788166322139
sS'poorest'
p3
F0.026042902165441053
sS'-ready'
p4
F1.6943983191568674e-05
sS'worse'
p5
F0.2054288522145786
sS'certified'
p6
F0.0009827510251109832
sS'perpetual'
p7
F0.0018977261174556914
sS'clearer'
p8
F0.0011183028906435325
sS'least'
p9
F0.011301636788776305
sS'prepared'
p10
F1.6943983191568674e-05
sS'large'
p11
F0.004913755125554915
sS'hurt'
p12
F0.0009658070419194144
sS'darker'
p13
F0.0008641431427700024
sS'bigger'
p14
F0.039072825239757365
sS'deepest'
p15
F0.00498153105832119
sS'ready'
p16
F1.6943983191568674e-05
sS'induced'
p17
F0.000779423226812159
sS'integrated'
p18
F0.6749466264529466
sS'shortest'
p19
F0.0033887966383137347
sS'worrying'
p20
F0.000677759327662747
s.