(dp0
Vunbelievable
p1
F0.1
sVincomprehensible
p2
F0.15
sVperplexing
p3
F0.1
sVpuzzling
p4
F0.1
sVincredible
p5
F0.1
sVinexplicable
p6
F0.1
sVunderstandable
p7
F0.1
sVunfathomable
p8
F0.1
sVinconceivable
p9
F0.05
sVunthinkable
p10
F0.1
s.