(dp0
S'conflicting'
p1
F0.004739336492890996
sS'though'
p2
F0.9715639810426541
sS'incompatible'
p3
F0.004739336492890996
sS'compatible'
p4
F0.004739336492890996
sS'irreconcilable'
p5
F0.004739336492890996
sS'inconsistent'
p6
F0.004739336492890996
sS'contradictory'
p7
F0.004739336492890996
s.