(dp0
Vworthless
p1
F0.16666666666666666
sVunable
p2
F0.16666666666666666
sVunfit
p3
F0.16666666666666666
sVincapable
p4
F0.16666666666666666
sVhelpless
p5
F0.16666666666666666
sVincompetent
p6
F0.16666666666666666
s.