(dp0
Vconflicting
p1
F0.16666666666666666
sVincompatible
p2
F0.16666666666666666
sVcompatible
p3
F0.16666666666666666
sVirreconcilable
p4
F0.16666666666666666
sVinconsistent
p5
F0.16666666666666666
sVcontradictory
p6
F0.16666666666666666
s.