(dp0
Vinsane
p1
F0.046357615894039736
sVfantastic
p2
F0.046357615894039736
sVremarkable
p3
F0.039735099337748346
sVsweet
p4
F0.013245033112582781
sVawesome
p5
F0.052980132450331126
sVcrazy
p6
F0.033112582781456956
sVreally
p7
F0.006622516556291391
sVastonishing
p8
F0.052980132450331126
sVoverwhelming
p9
F0.006622516556291391
sVincredible
p10
F0.046357615894039736
sVphenomenal
p11
F0.046357615894039736
sVterrific
p12
F0.046357615894039736
sVamazing
p13
F0.046357615894039736
sVwonderful
p14
F0.033112582781456956
sVlovely
p15
F0.013245033112582781
sVunthinkable
p16
F0.013245033112582781
sVunbelievable
p17
F0.052980132450331126
sVstaggering
p18
F0.046357615894039736
sVexactly
p19
F0.006622516556291391
sVastounding
p20
F0.052980132450331126
sVunheard-of
p21
F0.006622516556291391
sV-lncredible
p22
F0.046357615894039736
sVextraordinary
p23
F0.046357615894039736
sVexcellent
p24
F0.006622516556291391
sVinconceivable
p25
F0.013245033112582781
sVsuper
p26
F0.013245033112582781
sVcool
p27
F0.013245033112582781
sVgreat
p28
F0.019867549668874173
sVsurprising
p29
F0.013245033112582781
sVbrilliant
p30
F0.019867549668874173
sVappalling
p31
F0.013245033112582781
sVoutrageous
p32
F0.013245033112582781
sVunreal
p33
F0.039735099337748346
sVneat
p34
F0.013245033112582781
sVunimaginable
p35
F0.006622516556291391
sVshocking
p36
F0.013245033112582781
s.