(dp0
S'independent'
p1
F0.0033707865168539327
sS'self-employed'
p2
F0.0011235955056179776
sS'self-sustaining'
p3
F0.0011235955056179776
sS'better'
p4
F0.8921348314606742
sS'individual'
p5
F0.0011235955056179776
sS'before'
p6
F0.10112359550561797
s.