(dp0
S'particularly'
p1
F0.13783783783783785
sS'many'
p2
F0.17027027027027028
sS'fewer'
p3
F0.06351351351351352
sS'understand'
p4
F0.20405405405405405
sS'by'
p5
F0.422972972972973
sS'more'
p6
F0.0013513513513513514
s.