(dp0
S'innocents'
p1
F0.001037344398340249
sS'grievous'
p2
F0.001037344398340249
sS'naive'
p3
F0.001037344398340249
sS'guilty'
p4
F0.0031120331950207467
sS'blameless'
p5
F0.0031120331950207467
sS'gullible'
p6
F0.001037344398340249
sS'harmless'
p7
F0.002074688796680498
sS'severe'
p8
F0.001037344398340249
sS'laudable'
p9
F0.12655601659751037
sS'innocent'
p10
F0.004149377593360996
sS'serious'
p11
F0.001037344398340249
sS'unaware'
p12
F0.8547717842323651
s.