(dp0
Vinnocents
p1
F0.05555555555555555
sVgrievous
p2
F0.05555555555555555
sVnaive
p3
F0.05555555555555555
sVguilty
p4
F0.16666666666666666
sVblameless
p5
F0.16666666666666666
sVgullible
p6
F0.05555555555555555
sVharmless
p7
F0.1111111111111111
sVsevere
p8
F0.05555555555555555
sVinnocent
p9
F0.2222222222222222
sVserious
p10
F0.05555555555555555
s.