(dp0
Vunsatisfactory
p1
F0.16666666666666666
sVdeficient
p2
F0.16666666666666666
sVinadequate
p3
F0.16666666666666666
sVunder-funded
p4
F0.16666666666666666
sVinsufficient
p5
F0.16666666666666666
sVunderfunded
p6
F0.16666666666666666
s.