(dp0
Vco-dependent
p1
F0.14285714285714285
sVinter-linked
p2
F0.14285714285714285
sVinterdependent
p3
F0.14285714285714285
sVinterrelated
p4
F0.14285714285714285
sVinter-related
p5
F0.14285714285714285
sVintertwined
p6
F0.14285714285714285
sVinter-dependent
p7
F0.14285714285714285
s.