(dp0
S'heavy'
p1
F0.004
sS'excessive'
p2
F0.004
sS'violent'
p3
F0.512
sS'lively'
p4
F0.004
sS'tough'
p5
F0.004
sS'cold'
p6
F0.004
sS'rough'
p7
F0.004
sS'overwhelming'
p8
F0.376
sS'harsh'
p9
F0.004
sS'intensive'
p10
F0.004
sS'largest'
p11
F0.004
sS'unconscionable'
p12
F0.004
sS'disproportionate'
p13
F0.004
sS'fierce'
p14
F0.008
sS'highest'
p15
F0.004
sS'intense'
p16
F0.012
sS'stiff'
p17
F0.004
sS'exaggerated'
p18
F0.004
sS'stronger'
p19
F0.008
sS'strongest'
p20
F0.008
sS'severe'
p21
F0.008
sS'emotional'
p22
F0.012
s.