(dp0
Vinterdependent
p1
F0.16666666666666666
sVinterrelated
p2
F0.16666666666666666
sVco-dependent
p3
F0.3333333333333333
sVinter-related
p4
F0.16666666666666666
sVinter-dependent
p5
F0.16666666666666666
s.