(dp0
S'fantastic'
p1
F0.0001327844907714779
sS'relevant'
p2
F0.0002655689815429558
sS'useful'
p3
F0.00039835347231443366
sS'worthwhile'
p4
F0.0017261983800292125
sS'fascinating'
p5
F0.2108617713451069
sS'noteworthy'
p6
F0.001195060416943301
sS'sweet'
p7
F0.0001327844907714779
sS'awesome'
p8
F0.0001327844907714779
sS'valuable'
p9
F0.0006639224538573894
sS'marvelous'
p10
F0.0001327844907714779
sS'curious'
p11
F0.0001327844907714779
sS'bizarre'
p12
F0.00690479352011685
sS'odd'
p13
F0.0001327844907714779
sS'better'
p14
F0.0002655689815429558
sS'remarkable'
p15
F0.0001327844907714779
sS'advantageous'
p16
F0.001195060416943301
sS'interesting'
p17
F0.0017261983800292125
sS'slick'
p18
F0.0001327844907714779
sS'specifically'
p19
F0.02655689815429558
sS'superb'
p20
F0.0001327844907714779
sS'terrific'
p21
F0.0001327844907714779
sS'amazing'
p22
F0.0001327844907714779
sS'wonderful'
p23
F0.0001327844907714779
sS'compelling'
p24
F0.0001327844907714779
sS'attractive'
p25
F0.0017261983800292125
sS'exhilarating'
p26
F0.0001327844907714779
sS'lovely'
p27
F0.0001327844907714779
sS'interested'
p28
F0.0006639224538573894
sS'nice'
p29
F0.0002655689815429558
sS'notable'
p30
F0.0001327844907714779
sS'intriguing'
p31
F0.01513743194794848
sS'wrong'
p32
F0.0001327844907714779
sS'moving'
p33
F0.01938653565263577
sS'fancy'
p34
F0.0001327844907714779
sS'amusing'
p35
F0.09958836807860842
sS'exciting'
p36
F0.3326251493825521
sS'illustrative'
p37
F0.00039835347231443366
sS'cool'
p38
F0.0002655689815429558
sS'great'
p39
F0.0002655689815429558
sS'helpful'
p40
F0.0001327844907714779
sS'instructive'
p41
F0.001327844907714779
sS'brilliant'
p42
F0.0001327844907714779
sS'of'
p43
F0.05736290001327845
sS'strange'
p44
F0.0001327844907714779
sS'worth'
p45
F0.00039835347231443366
sS'informative'
p46
F0.001195060416943301
sS'appealing'
p47
F0.0001327844907714779
sS'neat'
p48
F0.0001327844907714779
sS'completely'
p49
F0.06413490904262382
sS'entertaining'
p50
F0.14871862966405525
sS'passionate'
p51
F0.0001327844907714779
sS'-lnteresting'
p52
F0.0014606293984862568
sS'valid'
p53
F0.0001327844907714779
s.