(dp0
Vunbearable
p1
F0.05
sVinconceivable
p2
F0.05
sVunsustainable
p3
F0.05
sVinadmissible
p4
F0.05
sVinsupportable
p5
F0.05
sVunthinkable
p6
F0.05
sVacceptable
p7
F0.05
sVreprehensible
p8
F0.05
sVunacceptable
p9
F0.05
sVappalling
p10
F0.05
sVoutrageous
p11
F0.05
sVuntenable
p12
F0.05
sVtenable
p13
F0.05
sVreasonable
p14
F0.05
sVdefensible
p15
F0.05
sVunconscionable
p16
F0.05
sVintolerable
p17
F0.1
sVjustifiable
p18
F0.05
sVindefensible
p19
F0.05
s.