(dp0
S'unbearable'
p1
F0.014925373134328358
sS'inconceivable'
p2
F0.014925373134328358
sS'unsustainable'
p3
F0.014925373134328358
sS'inadmissible'
p4
F0.014925373134328358
sS'insupportable'
p5
F0.014925373134328358
sS'unthinkable'
p6
F0.014925373134328358
sS'acceptable'
p7
F0.014925373134328358
sS'reprehensible'
p8
F0.014925373134328358
sS'unacceptable'
p9
F0.014925373134328358
sS'appalling'
p10
F0.014925373134328358
sS'outrageous'
p11
F0.014925373134328358
sS'untenable'
p12
F0.014925373134328358
sS'tenable'
p13
F0.014925373134328358
sS'reasonable'
p14
F0.014925373134328358
sS'defensible'
p15
F0.014925373134328358
sS'unconscionable'
p16
F0.014925373134328358
sS'intolerable'
p17
F0.029850746268656716
sS'justifiable'
p18
F0.014925373134328358
sS'indefensible'
p19
F0.014925373134328358
sS'for'
p20
F0.7014925373134329
s.