(dp0
S'unwarranted'
p1
F0.010526315789473684
sS'well-founded'
p2
F0.010526315789473684
sS'justifiable'
p3
F0.06315789473684211
sS'unjustified'
p4
F0.010526315789473684
sS'legitimate'
p5
F0.031578947368421054
sS'defensible'
p6
F0.010526315789473684
sS'justified'
p7
F0.07368421052631578
sS'documented'
p8
F0.7894736842105263
s.