(dp0
S'on'
p1
F0.3
sS'kind'
p2
F0.0034482758620689655
sS'for'
p3
F0.6862068965517242
sS'sweet'
p4
F0.0034482758620689655
sS'wonderful'
p5
F0.0034482758620689655
sS'lovely'
p6
F0.0034482758620689655
s.