(dp0
S'genuine'
p1
F0.007692307692307693
sS'fair'
p2
F0.015384615384615385
sS'straight'
p3
F0.007692307692307693
sS'justifiable'
p4
F0.023076923076923078
sS'desirable'
p5
F0.007692307692307693
sS'obligatory'
p6
F0.7846153846153846
sS'valid'
p7
F0.007692307692307693
sS'legitimate'
p8
F0.038461538461538464
sS'clean'
p9
F0.007692307692307693
sS'lawful'
p10
F0.03076923076923077
sS'well-founded'
p11
F0.015384615384615385
sS'okay'
p12
F0.007692307692307693
sS'justified'
p13
F0.007692307692307693
sS'legit'
p14
F0.03076923076923077
sS'cool'
p15
F0.007692307692307693
s.