(dp0
S'slight'
p1
F0.030534351145038167
sS'light'
p2
F0.015267175572519083
sS'relative'
p3
F0.007633587786259542
sS'mild'
p4
F0.007633587786259542
sS'lighter'
p5
F0.030534351145038167
sS'lightweight'
p6
F0.030534351145038167
sS'before'
p7
F0.8778625954198473
s.