(dp0
S'gone'
p1
F0.009615384615384616
sS'lost'
p2
F0.009615384615384616
sS'missing'
p3
F0.009615384615384616
sS'spoilt'
p4
F0.009615384615384616
sS'confused'
p5
F0.028846153846153848
sS'too'
p6
F0.9038461538461539
sS'losin'
p7
F0.009615384615384616
sS'wasted'
p8
F0.009615384615384616
sS'helpless'
p9
F0.009615384615384616
s.