(dp0
S'cute'
p1
F0.003940886699507389
sS'fantastic'
p2
F0.005911330049261084
sS'enjoyable'
p3
F0.0009852216748768472
sS'bright'
p4
F0.0019704433497536944
sS'dainty'
p5
F0.0009852216748768472
sS'superb'
p6
F0.006896551724137931
sS'lovelier'
p7
F0.0009852216748768472
sS'overwhelmed'
p8
F0.0009852216748768472
sS'perfect'
p9
F0.002955665024630542
sS'ridonc'
p10
F0.0009852216748768472
sS'yummy'
p11
F0.0009852216748768472
sS'cherry'
p12
F0.0019704433497536944
sS'attractive'
p13
F0.0009852216748768472
sS'pretty'
p14
F0.002955665024630542
sS'fanta'
p15
F0.0009852216748768472
sS'pleasurable'
p16
F0.0009852216748768472
sS'good'
p17
F0.0009852216748768472
sS'spectacular'
p18
F0.0049261083743842365
sS'sunny'
p19
F0.0019704433497536944
sS'fat'
p20
F0.0009852216748768472
sS'cool'
p21
F0.0009852216748768472
sS'marvellous'
p22
F0.0049261083743842365
sS'iovely'
p23
F0.003940886699507389
sS'delightful'
p24
F0.003940886699507389
sS'exquisite'
p25
F0.003940886699507389
sS'magnificent'
p26
F0.005911330049261084
sS'fabulous'
p27
F0.005911330049261084
sS'comforting'
p28
F0.0009852216748768472
sS'a-okay'
p29
F0.0019704433497536944
sS'phenomenal'
p30
F0.0019704433497536944
sS'slick'
p31
F0.0009852216748768472
sS'jolly'
p32
F0.0009852216748768472
sS'whassup'
p33
F0.0009852216748768472
sS'darling'
p34
F0.0019704433497536944
sS'adorable'
p35
F0.002955665024630542
sS'loveable'
p36
F0.0019704433497536944
sS'masterful'
p37
F0.0019704433497536944
sS'loverly'
p38
F0.002955665024630542
sS'good-looking'
p39
F0.002955665024630542
sS'smokin'
p40
F0.0009852216748768472
sS'om-mazing'
p41
F0.0019704433497536944
sS'sexy'
p42
F0.0009852216748768472
sS'precious'
p43
F0.0019704433497536944
sS'exciting'
p44
F0.0009852216748768472
sS'super'
p45
F0.0019704433497536944
sS'pleasant'
p46
F0.0009852216748768472
sS'great'
p47
F0.002955665024630542
sS'brilliant'
p48
F0.0049261083743842365
sS'good-iooking'
p49
F0.0019704433497536944
sS'flawless'
p50
F0.0019704433497536944
sS'glorious'
p51
F0.003940886699507389
sS'breathtaking'
p52
F0.002955665024630542
sS'sweet'
p53
F0.003940886699507389
sS'delighted'
p54
F0.0009852216748768472
sS'fancy'
p55
F0.0009852216748768472
sS'lovable'
p56
F0.0019704433497536944
sS'marvelous'
p57
F0.0049261083743842365
sS'delicious'
p58
F0.002955665024630542
sS'formidable'
p59
F0.0009852216748768472
sS'tremendous'
p60
F0.0009852216748768472
sS'comfy'
p61
F0.0009852216748768472
sS'wonderful'
p62
F0.006896551724137931
sS'prettier'
p63
F0.0019704433497536944
sS'wonderfui'
p64
F0.0019704433497536944
sS'gorgeous'
p65
F0.17142857142857143
sS'agreeable'
p66
F0.0009852216748768472
sS'lovely'
p67
F0.006896551724137931
sS'ravishing'
p68
F0.002955665024630542
sS'happy'
p69
F0.0009852216748768472
sS'that'
p70
F0.5862068965517241
sS'charming'
p71
F0.003940886699507389
sS'dynamite'
p72
F0.0009852216748768472
sS'handsome'
p73
F0.003940886699507389
sS'groovy'
p74
F0.0019704433497536944
sS'scrumptious'
p75
F0.0009852216748768472
sS'gratifying'
p76
F0.0009852216748768472
sS'ugly'
p77
F0.0019704433497536944
sS'stunning'
p78
F0.002955665024630542
sS'neat'
p79
F0.0019704433497536944
sS'sweeter'
p80
F0.0019704433497536944
sS'sublime'
p81
F0.0009852216748768472
sS'beautiful'
p82
F0.005911330049261084
sS'beautifui'
p83
F0.0019704433497536944
sS'nicer'
p84
F0.0019704433497536944
sS'awesome'
p85
F0.003940886699507389
sS'comfortable'
p86
F0.0009852216748768472
sS'tasty'
p87
F0.0009852216748768472
sS'incredible'
p88
F0.003940886699507389
sS'belle'
p89
F0.0019704433497536944
sS'terrific'
p90
F0.005911330049261084
sS'amazing'
p91
F0.005911330049261084
sS'nice'
p92
F0.003940886699507389
sS'purty'
p93
F0.0019704433497536944
sS'impeccable'
p94
F0.0019704433497536944
sS'enchanting'
p95
F0.0009852216748768472
sS'refreshing'
p96
F0.0009852216748768472
sS'splendid'
p97
F0.005911330049261084
sS'fine'
p98
F0.003940886699507389
s.