(dp0
S'beautiful'
p1
F0.016666666666666666
sS'breathtaking'
p2
F0.016666666666666666
sS'splendid'
p3
F0.016666666666666666
sS'spectacular'
p4
F0.016666666666666666
sS'glorious'
p5
F0.016666666666666666
sS'brilliant'
p6
F0.016666666666666666
sS'awesome'
p7
F0.016666666666666666
sS'magnificent'
p8
F0.016666666666666666
sS'fantastic'
p9
F0.016666666666666666
sS'superb'
p10
F0.016666666666666666
sS'terrific'
p11
F0.016666666666666666
sS'marvelous'
p12
F0.016666666666666666
sS'stunning'
p13
F0.016666666666666666
sS'fabulous'
p14
F0.016666666666666666
sS'exquisite'
p15
F0.016666666666666666
sS'gorgeous'
p16
F0.016666666666666666
sS'wonderful'
p17
F0.016666666666666666
sS'lovely'
p18
F0.016666666666666666
sS'amazing'
p19
F0.016666666666666666
sS'marvellous'
p20
F0.016666666666666666
sS'restored'
p21
F0.6666666666666666
s.