(dp0
Vall
p1
F0.01818181818181818
sVmanifold
p2
F0.01818181818181818
sVsignificant
p3
F0.03636363636363636
sVsubstantial
p4
F0.03636363636363636
sVtremendous
p5
F0.01818181818181818
sVinnumerable
p6
F0.03636363636363636
sVimmense
p7
F0.01818181818181818
sVmuch
p8
F0.07272727272727272
sVextensive
p9
F0.01818181818181818
sVseveral
p10
F0.03636363636363636
sVnumerous
p11
F0.14545454545454545
sVconsiderably
p12
F0.01818181818181818
sVmultiple
p13
F0.05454545454545454
sVvery
p14
F0.05454545454545454
sVenormous
p15
F0.01818181818181818
sVmost
p16
F0.01818181818181818
sVplenty
p17
F0.01818181818181818
sVconsiderable
p18
F0.09090909090909091
sVvast
p19
F0.01818181818181818
sVcountless
p20
F0.03636363636363636
sVgreat
p21
F0.03636363636363636
sVmany
p22
F0.10909090909090909
sVlarge
p23
F0.05454545454545454
sVso
p24
F0.01818181818181818
s.