(dp0
Vbeautiful
p1
F0.046875
sVfantastic
p2
F0.0625
sVoutstanding
p3
F0.015625
sVawesome
p4
F0.046875
sVmagnificent
p5
F0.046875
sVmarvelous
p6
F0.03125
sVfabulous
p7
F0.046875
sVincredible
p8
F0.015625
sVtremendous
p9
F0.015625
sVstunning
p10
F0.03125
sVsuperb
p11
F0.015625
sVterrific
p12
F0.0625
sVamazing
p13
F0.0625
sVwonderful
p14
F0.0625
sVwondrous
p15
F0.046875
sVwonderfui
p16
F0.046875
sVlovely
p17
F0.046875
sVextraordinary
p18
F0.015625
sVdreamy
p19
F0.046875
sVsplendid
p20
F0.046875
sVmarvellous
p21
F0.046875
sVbrilliant
p22
F0.046875
sVdelightful
p23
F0.046875
sVglorious
p24
F0.046875
s.