(dp0
S'sensible'
p1
F0.01
sS'useful'
p2
F0.01
sS'helpful'
p3
F0.02
sS'interesting'
p4
F0.01
sS'stronger'
p5
F0.01
sS'valuable'
p6
F0.02
sS'better'
p7
F0.01
sS'useless'
p8
F0.01
sS'significant'
p9
F0.02
sS'largest'
p10
F0.01
sS'invaluable'
p11
F0.01
sS'meaningful'
p12
F0.01
sS'handy'
p13
F0.01
sS'before'
p14
F0.84
s.