(dp0
Vsensible
p1
F0.0625
sVuseful
p2
F0.0625
sVhelpful
p3
F0.125
sVinteresting
p4
F0.0625
sVstronger
p5
F0.0625
sVvaluable
p6
F0.125
sVbetter
p7
F0.0625
sVuseless
p8
F0.0625
sVsignificant
p9
F0.125
sVlargest
p10
F0.0625
sVinvaluable
p11
F0.0625
sVmeaningful
p12
F0.0625
sVhandy
p13
F0.0625
s.