(dp0
Vup-to-date
p1
F0.09090909090909091
sVmodernizing
p2
F0.09090909090909091
sVmodern
p3
F0.18181818181818182
sVcontemporary
p4
F0.18181818181818182
sVmodernized
p5
F0.18181818181818182
sVnewer
p6
F0.09090909090909091
sVfirst
p7
F0.09090909090909091
sVlatest
p8
F0.09090909090909091
s.