(dp0
S'-ready'
p1
F0.0029585798816568047
sS'like'
p2
F0.12130177514792899
sS'less'
p3
F0.12130177514792899
sS'prepared'
p4
F0.0029585798816568047
sS'enough'
p5
F0.35502958579881655
sS'willing'
p6
F0.0029585798816568047
sS'through'
p7
F0.11834319526627218
sS'ready'
p8
F0.0029585798816568047
sS'immediately'
p9
F0.27218934911242604
s.