(dp0
S'limited'
p1
F0.00546448087431694
sS'smaller'
p2
F0.00546448087431694
sS'for'
p3
F0.9234972677595629
sS'insignificant'
p4
F0.00546448087431694
sS'shallow'
p5
F0.00546448087431694
sS'narrower'
p6
F0.01092896174863388
sS'tiny'
p7
F0.00546448087431694
sS'tight'
p8
F0.01092896174863388
sS'slender'
p9
F0.00546448087431694
sS'small'
p10
F0.00546448087431694
sS'narrow'
p11
F0.01092896174863388
sS'minimal'
p12
F0.00546448087431694
s.