(dp0
S'indispensible'
p1
F0.0028957528957528956
sS'necessary'
p2
F0.1920849420849421
sS'indispensable'
p3
F0.004826254826254826
sS'required'
p4
F0.5299227799227799
sS'crucial'
p5
F0.003861003861003861
sS'time-sensitive'
p6
F0.0009652509652509653
sS'instrumental'
p7
F0.0028957528957528956
sS'urgent'
p8
F0.0019305019305019305
sS'important'
p9
F0.0009652509652509653
sS'imperative'
p10
F0.003861003861003861
sS'critical'
p11
F0.0028957528957528956
sS'desperate'
p12
F0.0009652509652509653
sS'prerequisite'
p13
F0.0019305019305019305
sS'invaluable'
p14
F0.0009652509652509653
sS'vital'
p15
F0.003861003861003861
sS'essential'
p16
F0.003861003861003861
sS'today'
p17
F0.16023166023166024
sS'listed'
p18
F0.08108108108108109
s.