(dp0
Vbad
p1
F0.05
sVterrible
p2
F0.05
sVharmful
p3
F0.05
sVadverse
p4
F0.15
sVsevere
p5
F0.05
sVdisastrous
p6
F0.1
sVdetrimental
p7
F0.1
sVnegative
p8
F0.25
sVdire
p9
F0.1
sVserious
p10
F0.05
sVdamaging
p11
F0.05
s.