(dp0
Vunimportant
p1
F0.09090909090909091
sVinsignificant
p2
F0.09090909090909091
sVmarginal
p3
F0.09090909090909091
sVincidental
p4
F0.09090909090909091
sVimmaterial
p5
F0.09090909090909091
sVtrivial
p6
F0.09090909090909091
sVnegligeable
p7
F0.09090909090909091
sVinconsiderable
p8
F0.09090909090909091
sVnegligible
p9
F0.09090909090909091
sVminuscule
p10
F0.09090909090909091
sVminimal
p11
F0.09090909090909091
s.