(dp0
S'taller'
p1
F0.06866077498300475
sS'newest'
p2
F0.0006798096532970768
sS'elsewhere'
p3
F0.0006798096532970768
sS'working'
p4
F0.1549966009517335
sS'as'
p5
F0.2991162474507138
sS'else'
p6
F0.0006798096532970768
sS'someplace'
p7
F0.0006798096532970768
sS'enough'
p8
F0.10333106730115568
sS'brand-new'
p9
F0.002719238613188307
sS'new'
p10
F0.004078857919782461
sS'bigger'
p11
F0.14276002719238612
sS'higher'
p12
F0.22161794697484705
s.