(dp0
S'customary'
p1
F0.00012736419792396358
sS'abnormal'
p2
F0.00025472839584792715
sS'logical'
p3
F0.00012736419792396358
sS'proper'
p4
F0.00012736419792396358
sS'fine'
p5
F0.00012736419792396358
sS'yet'
p6
F0.9925491944214482
sS'unusual'
p7
F0.00012736419792396358
sS'unavoidable'
p8
F0.00012736419792396358
sS'current'
p9
F6.368209896198179e-05
sS'fitting'
p10
F0.00025472839584792715
sS'routine'
p11
F0.0005094567916958543
sS'ordinary'
p12
F0.0006368209896198179
sS'unremarkable'
p13
F6.368209896198179e-05
sS'commonplace'
p14
F6.368209896198179e-05
sS'okay'
p15
F0.00012736419792396358
sS'normal'
p16
F0.0004457746927338725
sS'acceptable'
p17
F6.368209896198179e-05
sS'standard'
p18
F0.0005731388906578361
sS'regular'
p19
F0.0005094567916958543
sS'understandable'
p20
F0.0005094567916958543
sS'above-board'
p21
F0.0003820925937718907
sS'ok'
p22
F0.00012736419792396358
sS'natural'
p23
F0.00019104629688594535
sS'prevalent'
p24
F6.368209896198179e-05
sS'fluent'
p25
F6.368209896198179e-05
sS'disturbed'
p26
F0.00012736419792396358
sS'reasonable'
p27
F0.00012736419792396358
sS'alright'
p28
F0.00012736419792396358
sS'weird'
p29
F0.00012736419792396358
sS'usual'
p30
F0.0006368209896198179
sS'typical'
p31
F0.0006368209896198179
s.