(dp0
S'committed'
p1
F0.0519674031014882
sS'herein'
p2
F1.839554092088078e-05
sS'softer'
p3
F0.0027593311381321167
sS'done'
p4
F0.011901914975809863
sS'daily'
p5
F0.004856422803112525
sS'hereto'
p6
F1.839554092088078e-05
sS'ready'
p7
F1.839554092088078e-05
sS'slimmer'
p8
F0.00189474071485072
sS'linked'
p9
F0.0016555986828792702
sS'best'
p10
F1.839554092088078e-05
sS'even'
p11
F1.839554092088078e-05
sS'late'
p12
F1.839554092088078e-05
sS'accepted'
p13
F0.019260131344162174
sS'built'
p14
F0.005481871194422472
sS'there'
p15
F1.839554092088078e-05
sS'young'
p16
F0.001582016519195747
sS'better'
p17
F1.839554092088078e-05
sS'exempt'
p18
F0.0009381725869649197
sS'more'
p19
F0.8269715420981953
sS'non'
p20
F0.03136439727010173
sS'good'
p21
F1.839554092088078e-05
sS'around'
p22
F1.839554092088078e-05
sS'hereby'
p23
F1.839554092088078e-05
sS'here'
p24
F1.839554092088078e-05
sS'prepared'
p25
F1.839554092088078e-05
sS'explained'
p26
F0.004801236180349883
sS'-ready'
p27
F1.839554092088078e-05
sS'now'
p28
F1.839554092088078e-05
sS'lower'
p29
F0.02244255992347455
sS'off'
p30
F0.0008094038005187542
sS'well'
p31
F1.839554092088078e-05
sS'redundant'
p32
F0.0012876878644616544
sS'american'
p33
F0.009731241147145932
s.