(dp0
Vabhorrent
p1
F0.15384615384615385
sVrude
p2
F0.15384615384615385
sVodious
p3
F0.15384615384615385
sVheinous
p4
F0.15384615384615385
sVdespicable
p5
F0.15384615384615385
sVhorrible
p6
F0.07692307692307693
sVawful
p7
F0.07692307692307693
sVobnoxious
p8
F0.07692307692307693
s.