(dp0
S'infrequent'
p1
F0.0028328611898017
sS'commonplace'
p2
F0.0056657223796034
sS'natural'
p3
F0.0028328611898017
sS'naturalistic'
p4
F0.0028328611898017
sS'prevalent'
p5
F0.0056657223796034
sS'recurrent'
p6
F0.0028328611898017
sS'every'
p7
F0.9575070821529745
sS'common'
p8
F0.0056657223796034
sS'inherent'
p9
F0.0028328611898017
sS'spontaneous'
p10
F0.0028328611898017
sS'casual'
p11
F0.0028328611898017
sS'frequent'
p12
F0.0028328611898017
sS'naturally'
p13
F0.0028328611898017
s.