(dp0
S'crazy'
p1
F0.0009319664492078285
sS'remarkable'
p2
F0.001863932898415657
sS'striking'
p3
F0.0009319664492078285
sS'spooky'
p4
F0.0027958993476234857
sS'as'
p5
F0.32805219012115566
sS'ironic'
p6
F0.001863932898415657
sS'curious'
p7
F0.003727865796831314
sS'bizarre'
p8
F0.33923578751164957
sS'odd'
p9
F0.005591798695246971
sS'confusing'
p10
F0.001863932898415657
sS'funny'
p11
F0.001863932898415657
sS'unusual'
p12
F0.0027958993476234857
sS'awkward'
p13
F0.003727865796831314
sS'eerie'
p14
F0.001863932898415657
sS'wierd'
p15
F0.0009319664492078285
sS'amazing'
p16
F0.0009319664492078285
sS'strange'
p17
F0.005591798695246971
sS'mysterious'
p18
F0.0027958993476234857
sS'freaky'
p19
F0.001863932898415657
sS'singular'
p20
F0.0009319664492078285
sS'sketchy'
p21
F0.0027958993476234857
sS'uncommon'
p22
F0.001863932898415657
sS'extraordinary'
p23
F0.0009319664492078285
sS'peculiar'
p24
F0.004659832246039142
sS'intriguing'
p25
F0.0027958993476234857
sS'rare'
p26
F0.001863932898415657
sS'noticeable'
p27
F0.0009319664492078285
sS'surprising'
p28
F0.001863932898415657
sS'stranger'
p29
F0.0027958993476234857
sS'creepy'
p30
F0.0027958993476234857
sS'astonishing'
p31
F0.0009319664492078285
sS'bad'
p32
F0.25629077353215285
sS'uncanny'
p33
F0.001863932898415657
sS'weird'
p34
F0.004659832246039142
sS'weirder'
p35
F0.0027958993476234857
s.