(dp0
Vbeautiful
p1
F0.011111111111111112
sVright
p2
F0.011111111111111112
sVbeautifui
p3
F0.011111111111111112
sVnessessary
p4
F0.011111111111111112
sVawesome
p5
F0.022222222222222223
sVmarvelous
p6
F0.011111111111111112
sVtasty
p7
F0.011111111111111112
sVhorrendous
p8
F0.011111111111111112
sVa-okay
p9
F0.022222222222222223
sVfine
p10
F0.03333333333333333
sVbest
p11
F0.011111111111111112
sVbetter
p12
F0.011111111111111112
sVincredible
p13
F0.011111111111111112
sVsaved
p14
F0.011111111111111112
sVdisgusting
p15
F0.011111111111111112
sVfast
p16
F0.011111111111111112
sVterrific
p17
F0.022222222222222223
sVamazing
p18
F0.011111111111111112
sVwonderful
p19
F0.022222222222222223
sVokey-dokey
p20
F0.011111111111111112
sVpretty
p21
F0.011111111111111112
sVgorgeous
p22
F0.011111111111111112
sVokey
p23
F0.011111111111111112
sVsorry
p24
F0.011111111111111112
sVlovely
p25
F0.022222222222222223
sVcorrect
p26
F0.011111111111111112
sVwicked
p27
F0.011111111111111112
sVgood
p28
F0.011111111111111112
sVokay
p29
F0.07777777777777778
sVbad-looking
p30
F0.011111111111111112
sVsorr
p31
F0.011111111111111112
sVnormal
p32
F0.011111111111111112
sVhorrible
p33
F0.022222222222222223
sVagreement
p34
F0.011111111111111112
sVwell-done
p35
F0.03333333333333333
sVproperly
p36
F0.011111111111111112
sVs-sorry
p37
F0.011111111111111112
sVrigght
p38
F0.011111111111111112
sVawful
p39
F0.011111111111111112
sVnecessary
p40
F0.011111111111111112
sVnasty
p41
F0.011111111111111112
sVgreat
p42
F0.011111111111111112
sVhorrifying
p43
F0.011111111111111112
sVok
p44
F0.1
sVallright
p45
F0.03333333333333333
sVdreadful
p46
F0.011111111111111112
sVwell
p47
F0.011111111111111112
sVterrible
p48
F0.011111111111111112
sVoutrageous
p49
F0.011111111111111112
sVbad
p50
F0.011111111111111112
sVdirty
p51
F0.011111111111111112
sValright
p52
F0.07777777777777778
sVnice
p53
F0.022222222222222223
sVwell-received
p54
F0.03333333333333333
sVtypical
p55
F0.011111111111111112
s.