(dp0
Vyearly
p1
F0.02702702702702703
sVtwelve
p2
F0.02702702702702703
sVold
p3
F0.24324324324324326
sVten
p4
F0.02702702702702703
sVover
p5
F0.02702702702702703
sVelderly
p6
F0.02702702702702703
sVfifty
p7
F0.02702702702702703
sVdisabled
p8
F0.02702702702702703
sVthirteen
p9
F0.02702702702702703
sVmonthly
p10
F0.02702702702702703
sVtwenty
p11
F0.02702702702702703
sV15-year-old
p12
F0.02702702702702703
sVeleven
p13
F0.02702702702702703
sVwonderful
p14
F0.02702702702702703
sVold-timer
p15
F0.05405405405405406
sVfourteen
p16
F0.02702702702702703
sVnineteen
p17
F0.02702702702702703
sVsixteen
p18
F0.02702702702702703
sVfifteen
p19
F0.02702702702702703
sVolder
p20
F0.1891891891891892
sV19
p21
F0.02702702702702703
sVsix-year
p22
F0.02702702702702703
s.