(dp0
S'available'
p1
F0.9785276073619632
sS'across-the-board'
p2
F0.0015337423312883436
sS'full'
p3
F0.0015337423312883436
sS'all-round'
p4
F0.0015337423312883436
sS'fully'
p5
F0.0015337423312883436
sS'functional'
p6
F0.0015337423312883436
sS'operational'
p7
F0.003067484662576687
sS'ideal'
p8
F0.0015337423312883436
sS'comprehensively'
p9
F0.0015337423312883436
sS'comprehensive'
p10
F0.0015337423312883436
sS'optimal'
p11
F0.0015337423312883436
sS'functioning'
p12
F0.0015337423312883436
sS'all-out'
p13
F0.0015337423312883436
sS'operative'
p14
F0.0015337423312883436
s.