(dp0
Vopposed
p1
F0.16666666666666666
sVopposite
p2
F0.16666666666666666
sVanti-constitutional
p3
F0.16666666666666666
sVcontrary
p4
F0.16666666666666666
sVinconsistent
p5
F0.16666666666666666
sVotherwise
p6
F0.16666666666666666
s.