(dp0
S'inadmissible'
p1
F0.006329113924050633
sS'scandalous'
p2
F0.0189873417721519
sS'disgusting'
p3
F0.006329113924050633
sS'obscene'
p4
F0.006329113924050633
sS'unacceptable'
p5
F0.006329113924050633
sS'outrageous'
p6
F0.012658227848101266
sS'shameful'
p7
F0.012658227848101266
sS'shocking'
p8
F0.006329113924050633
sS'appalling'
p9
F0.006329113924050633
sS'by'
p10
F0.9050632911392406
sS'disgraceful'
p11
F0.012658227848101266
s.