(dp0
Vbeautiful
p1
F0.04
sVcute
p2
F0.04
sVnicer
p3
F0.04
sVsweet
p4
F0.04
sVmagnificent
p5
F0.04
sVbright
p6
F0.04
sVfine
p7
F0.04
sVout
p8
F0.04
sVperfect
p9
F0.04
sVoutside
p10
F0.04
sVwonderful
p11
F0.04
sVattractive
p12
F0.04
sVpretty
p13
F0.04
sVgorgeous
p14
F0.04
sVcool
p15
F0.04
sVadmirable
p16
F0.04
sVnice
p17
F0.04
sVgood-looking
p18
F0.04
sVpurty
p19
F0.04
sVsexy
p20
F0.04
sVhandsome
p21
F0.04
sVgreat
p22
F0.04
sVlovely
p23
F0.04
sVugly
p24
F0.04
sVsweeter
p25
F0.04
s.