(dp0
Vunsolved
p1
F0.022222222222222223
sVfinest
p2
F0.022222222222222223
sVremarkable
p3
F0.044444444444444446
sVoutstanding
p4
F0.1111111111111111
sVmagnificent
p5
F0.06666666666666667
sVopen
p6
F0.022222222222222223
sVbest
p7
F0.022222222222222223
sVnoteworthy
p8
F0.022222222222222223
sVsuperb
p9
F0.022222222222222223
sVbetter
p10
F0.022222222222222223
sVwonderful
p11
F0.044444444444444446
sVadmirable
p12
F0.022222222222222223
sVpending
p13
F0.022222222222222223
sVexceptional
p14
F0.022222222222222223
sVnotable
p15
F0.022222222222222223
sVextraordinary
p16
F0.022222222222222223
sVunresolved
p17
F0.022222222222222223
sVexcellent
p18
F0.1111111111111111
sVunique
p19
F0.022222222222222223
sVconspicuous
p20
F0.022222222222222223
sVprominent
p21
F0.022222222222222223
sVfirst-rate
p22
F0.06666666666666667
sVimpressive
p23
F0.022222222222222223
sVnoticeable
p24
F0.022222222222222223
sVbrilliant
p25
F0.022222222222222223
sVsplendid
p26
F0.044444444444444446
sVmarvellous
p27
F0.022222222222222223
sVdramatic
p28
F0.022222222222222223
sVobvious
p29
F0.022222222222222223
sVcommendable
p30
F0.022222222222222223
s.