(dp0
Vproprietary
p1
F0.1111111111111111
sVstate-run
p2
F0.1111111111111111
sVstate-owned
p3
F0.1111111111111111
sVcollective
p4
F0.1111111111111111
sVco-ownership
p5
F0.1111111111111111
sVgovernment-owned
p6
F0.1111111111111111
sVprivate
p7
F0.1111111111111111
sVopen
p8
F0.1111111111111111
sVpublic
p9
F0.1111111111111111
s.