(dp0
S'life-long'
p1
F0.01694915254237288
sS'perpetual'
p2
F0.01694915254237288
sS'constant'
p3
F0.01694915254237288
sS'effective'
p4
F0.847457627118644
sS'continuous'
p5
F0.01694915254237288
sS'ongoing'
p6
F0.01694915254237288
sS'stable'
p7
F0.01694915254237288
sS'permanently'
p8
F0.01694915254237288
sS'on-going'
p9
F0.01694915254237288
sS'lifelong'
p10
F0.01694915254237288
s.