(dp0
Vsatisfactory
p1
F0.02
sVblessed
p2
F0.04
sVgrateful
p3
F0.04
sVpleased
p4
F0.06
sVpsyched
p5
F0.02
sVpositive
p6
F0.02
sVcelebrated
p7
F0.02
sVfortunate
p8
F0.02
sVcontent
p9
F0.02
sVwonderful
p10
F0.04
sVglad
p11
F0.02
sVlovely
p12
F0.06
sVexcited
p13
F0.04
sVnice
p14
F0.06
sVconsiderably
p15
F0.02
sVdispleased
p16
F0.02
sVecstatic
p17
F0.06
sVthrilled
p18
F0.02
sVwelcome
p19
F0.02
sVlucky
p20
F0.02
sVdelighted
p21
F0.06
sVpleasant
p22
F0.04
sVhappiest
p23
F0.02
sVpissed
p24
F0.02
sVcomplacent
p25
F0.02
sVgreat
p26
F0.02
sVhappier
p27
F0.04
sVhelpful
p28
F0.02
sV-good
p29
F0.02
sVproud
p30
F0.02
sVhappy
p31
F0.08
s.