(dp0
S'less'
p1
F4.156707887353216e-05
sS'supported'
p2
F0.006609165540891614
sS'desirable'
p3
F2.078353943676608e-05
sS'wide-ranging'
p4
F4.156707887353216e-05
sS'broader'
p5
F4.156707887353216e-05
sS'tenable'
p6
F4.156707887353216e-05
sS'perfect'
p7
F2.078353943676608e-05
sS'short-sighted'
p8
F2.078353943676608e-05
sS'widest'
p9
F6.235061831029825e-05
sS'better'
p10
F2.078353943676608e-05
sS'brighter'
p11
F2.078353943676608e-05
sS'easy'
p12
F2.078353943676608e-05
sS'workable'
p13
F2.078353943676608e-05
sS'happened'
p14
F2.078353943676608e-05
sS'maximal'
p15
F2.078353943676608e-05
sS'good'
p16
F2.078353943676608e-05
sS'worse'
p17
F2.078353943676608e-05
sS'broadest'
p18
F6.235061831029825e-05
sS'possible'
p19
F0.0005611555647926842
sS'possibly'
p20
F0.0001247012366205965
sS'worst'
p21
F2.078353943676608e-05
sS'permissible'
p22
F0.00016626831549412864
sS'manageable'
p23
F4.156707887353216e-05
sS'allowable'
p24
F2.078353943676608e-05
sS'enjoyable'
p25
F0.0011846617478956667
sS'insufferable'
p26
F6.235061831029825e-05
sS'large'
p27
F4.156707887353216e-05
sS'realistic'
p28
F0.004738646991582667
sS'unfeasible'
p29
F6.235061831029825e-05
sS'unachievable'
p30
F6.235061831029825e-05
sS'maximum'
p31
F6.235061831029825e-05
sS'plausible'
p32
F0.00016626831549412864
sS'strongest'
p33
F4.156707887353216e-05
sS'miserable'
p34
F2.078353943676608e-05
sS'optimum'
p35
F2.078353943676608e-05
sS'best'
p36
F2.078353943676608e-05
sS'really'
p37
F0.01267795905642731
sS'probable'
p38
F8.313415774706432e-05
sS'broad'
p39
F4.156707887353216e-05
sS'brief'
p40
F4.156707887353216e-05
sS'unable'
p41
F2.078353943676608e-05
sS'above'
p42
F2.078353943676608e-05
sS'viable'
p43
F2.078353943676608e-05
sS'available'
p44
F4.156707887353216e-05
sS'full'
p45
F2.078353943676608e-05
sS'strong'
p46
F2.078353943676608e-05
sS'intense'
p47
F2.078353943676608e-05
sS'broad-based'
p48
F4.156707887353216e-05
sS'larger'
p49
F6.235061831029825e-05
sS'terrible'
p50
F2.078353943676608e-05
sS'feasible'
p51
F0.01878831965083654
sS'practical'
p52
F0.08184557830198483
sS'keen'
p53
F2.078353943676608e-05
sS'practicable'
p54
F0.0004156707887353216
sS'suitable'
p55
F2.078353943676608e-05
sS'powerful'
p56
F2.078353943676608e-05
sS'infeasible'
p57
F6.235061831029825e-05
sS'undesirable'
p58
F2.078353943676608e-05
sS'achievable'
p59
F0.00018705185493089472
sS'wider'
p60
F4.156707887353216e-05
sS'impossible'
p61
F0.0002286189338044269
sS'unattainable'
p62
F6.235061831029825e-05
sS'technically'
p63
F2.078353943676608e-05
sS'least'
p64
F2.078353943676608e-05
sS'quickly'
p65
F2.078353943676608e-05
sS'obtainable'
p66
F2.078353943676608e-05
sS'low'
p67
F2.078353943676608e-05
sS'conceivable'
p68
F0.00027018601267795906
sS'perfectly'
p69
F2.078353943676608e-05
sS'unthinkable'
p70
F2.078353943676608e-05
sS'lowest'
p71
F2.078353943676608e-05
sS'attainable'
p72
F0.0002078353943676608
sS'highest'
p73
F6.235061831029825e-05
sS'wide'
p74
F2.078353943676608e-05
sS'impractical'
p75
F4.156707887353216e-05
sS'this'
p76
F0.0011015275901486022
sS'likely'
p77
F0.5327028993037515
sS'lesser'
p78
F2.078353943676608e-05
sS'advisable'
p79
F2.078353943676608e-05
sS'broader-based'
p80
F6.235061831029825e-05
sS'impracticable'
p81
F8.313415774706432e-05
sS'unworkable'
p82
F2.078353943676608e-05
sS'it'
p83
F0.06634105788215733
sS'high'
p84
F2.078353943676608e-05
sS'minimum'
p85
F2.078353943676608e-05
sS'greater'
p86
F4.156707887353216e-05
sS'able'
p87
F8.313415774706432e-05
sS'shorter'
p88
F2.078353943676608e-05
sS'ideal'
p89
F2.078353943676608e-05
sS'potential'
p90
F0.0001247012366205965
sS'largest'
p91
F4.156707887353216e-05
sS'optimal'
p92
F4.156707887353216e-05
sS'widespread'
p93
F4.156707887353216e-05
sS'relatively'
p94
F0.0029096955211472516
sS'preferable'
p95
F2.078353943676608e-05
sS'higher'
p96
F2.078353943676608e-05
sS'closest'
p97
F2.078353943676608e-05
sS'though'
p98
F0.2658214693962382
sS'max'
p99
F2.078353943676608e-05
sS'earlier'
p100
F2.078353943676608e-05
sS'most'
p101
F2.078353943676608e-05
sS'unavailable'
p102
F2.078353943676608e-05
sS'lower'
p103
F2.078353943676608e-05
sS'short'
p104
F4.156707887353216e-05
sS'happening'
p105
F2.078353943676608e-05
sS'stronger'
p106
F4.156707887353216e-05
sS'greatest'
p107
F2.078353943676608e-05
s.