(dp0
S'better'
p1
F0.00023223409196470042
sS'meaningful'
p2
F0.00023223409196470042
sS'impractical'
p3
F0.00023223409196470042
sS'pragmatic'
p4
F0.00023223409196470042
sS'convenient'
p5
F0.00046446818392940084
sS'workable'
p6
F0.00023223409196470042
sS'definite'
p7
F0.00023223409196470042
sS'possible'
p8
F0.9470506270320483
sS'attainable'
p9
F0.00023223409196470042
sS'feasible'
p10
F0.04784022294472828
sS'practical'
p11
F0.00023223409196470042
sS'concrete'
p12
F0.00046446818392940084
sS'practicable'
p13
F0.00046446818392940084
sS'particular'
p14
F0.00023223409196470042
sS'specific'
p15
F0.00046446818392940084
sS'hands-on'
p16
F0.00023223409196470042
sS'handy'
p17
F0.00023223409196470042
sS'best'
p18
F0.00023223409196470042
sS'tangible'
p19
F0.00046446818392940084
s.