(dp0
S'precise'
p1
F0.001483679525222552
sS'closer'
p2
F0.0004945598417408506
sS'particular'
p3
F0.0004945598417408506
sS'sharper'
p4
F0.0004945598417408506
sS'concise'
p5
F0.0009891196834817012
sS'accurate'
p6
F0.9851632047477745
sS'apparent'
p7
F0.0004945598417408506
sS'definite'
p8
F0.001483679525222552
sS'clearer'
p9
F0.0009891196834817012
sS'specifically'
p10
F0.0004945598417408506
sS'specific'
p11
F0.001483679525222552
sS'clarify'
p12
F0.0004945598417408506
sS'obvious'
p13
F0.0004945598417408506
sS'pretty'
p14
F0.0004945598417408506
sS'specified'
p15
F0.0009891196834817012
sS'identify'
p16
F0.0004945598417408506
sS'exact'
p17
F0.001483679525222552
sS'clear'
p18
F0.0009891196834817012
sS'specify'
p19
F0.0004945598417408506
s.