(dp0
Vbeautiful
p1
F0.041666666666666664
sVwonderful
p2
F0.041666666666666664
sVfantastic
p3
F0.041666666666666664
sVsplendid
p4
F0.041666666666666664
sVmarvellous
p5
F0.041666666666666664
sVawesome
p6
F0.041666666666666664
sVmagnificent
p7
F0.041666666666666664
sVvaluable
p8
F0.08333333333333333
sVterrific
p9
F0.041666666666666664
sVmarvelous
p10
F0.041666666666666664
sVdelightful
p11
F0.041666666666666664
sVfabulous
p12
F0.041666666666666664
sVwondrous
p13
F0.041666666666666664
sVwonderfui
p14
F0.041666666666666664
sVinvaluable
p15
F0.125
sVprecious
p16
F0.125
sVlovely
p17
F0.041666666666666664
sVbrilliant
p18
F0.041666666666666664
sVglorious
p19
F0.041666666666666664
s.