(dp0
Vokay
p1
F0.0625
sVfair
p2
F0.0625
sVunprofessional
p3
F0.0625
sVvocational
p4
F0.125
sVclean
p5
F0.0625
sVprofessional
p6
F0.25
sVoccupational
p7
F0.125
sVspecialized
p8
F0.0625
sVstraight
p9
F0.0625
sVlegit
p10
F0.0625
sVcool
p11
F0.0625
s.