(dp0
Vdeeper
p1
F0.2
sVprofound
p2
F0.13333333333333333
sVin-depth
p3
F0.13333333333333333
sVdeep
p4
F0.13333333333333333
sVunderlying
p5
F0.06666666666666667
sVthorough
p6
F0.13333333333333333
sVdeepest
p7
F0.13333333333333333
sVunlikely
p8
F0.06666666666666667
s.