(dp0
Vevident
p1
F0.14285714285714285
sVapparent
p2
F0.14285714285714285
sVmanifest
p3
F0.14285714285714285
sVvisible
p4
F0.14285714285714285
sVobvious
p5
F0.14285714285714285
sVself-evident
p6
F0.14285714285714285
sVconspicuous
p7
F0.14285714285714285
s.