(dp0
Vavailable
p1
F0.13333333333333333
sVopened
p2
F0.06666666666666667
sVopening
p3
F0.06666666666666667
sVopen-minded
p4
F0.06666666666666667
sVunlocked
p5
F0.06666666666666667
sVopening-up
p6
F0.06666666666666667
sVopen
p7
F0.13333333333333333
sVpublic
p8
F0.3333333333333333
sVopen-ended
p9
F0.06666666666666667
s.