(dp0
S'questionable'
p1
F0.00211864406779661
sS'problematic'
p2
F0.00211864406779661
sS'doubtful'
p3
F0.00211864406779661
sS'fundamental'
p4
F0.3686440677966102
sS'really'
p5
F0.6228813559322034
sS'debatable'
p6
F0.00211864406779661
s.