(dp0
Vquicker
p1
F0.075
sVprompt
p2
F0.025
sVslower
p3
F0.025
sVquickly
p4
F0.025
sVrapid
p5
F0.025
sVbrief
p6
F0.025
sVfast
p7
F0.05
sVtimelier
p8
F0.025
sVshorter
p9
F0.025
sVquickest
p10
F0.025
sVexpeditious
p11
F0.025
sVearlier
p12
F0.025
sVpromptly
p13
F0.025
sVfastest
p14
F0.05
sVswift
p15
F0.025
sVfaster
p16
F0.15
sVexponential
p17
F0.025
sVaccelerating
p18
F0.025
sVaccelerated
p19
F0.075
sVspeedier
p20
F0.075
sVspeedy
p21
F0.05
sVexpedient
p22
F0.025
sVquick
p23
F0.05
sVswifter
p24
F0.05
s.