(dp0
Vinfrequent
p1
F0.09375
sVunusual
p2
F0.109375
sVrare
p3
F0.15625
sVremarkable
p4
F0.015625
sVexceptional
p5
F0.015625
sVscarcer
p6
F0.03125
sVseldom
p7
F0.046875
sVrarest
p8
F0.015625
sVuncommon
p9
F0.09375
sVmeagre
p10
F0.015625
sVfew
p11
F0.046875
sVstrange
p12
F0.015625
sVsparse
p13
F0.078125
sVrarer
p14
F0.078125
sVscant
p15
F0.03125
sVscarce
p16
F0.078125
sVextraordinary
p17
F0.015625
sVrarely
p18
F0.015625
sVodd
p19
F0.015625
sVbizarre
p20
F0.015625
sVminimal
p21
F0.015625
s.