(dp0
S'worthwhile'
p1
F0.002109704641350211
sS'fair'
p2
F0.010548523206751054
sS'dishonest'
p3
F0.002109704641350211
sS'consistent'
p4
F0.35443037974683544
sS'above-board'
p5
F0.002109704641350211
sS'unfair'
p6
F0.002109704641350211
sS'logical'
p7
F0.010548523206751054
sS'proportionate'
p8
F0.008438818565400843
sS'plausible'
p9
F0.008438818565400843
sS'respectable'
p10
F0.002109704641350211
sS'appropriate'
p11
F0.002109704641350211
sS'unwise'
p12
F0.004219409282700422
sS'unjustified'
p13
F0.002109704641350211
sS'honest'
p14
F0.002109704641350211
sS'fairer'
p15
F0.002109704641350211
sS'best'
p16
F0.002109704641350211
sS'opportune'
p17
F0.002109704641350211
sS'sensible'
p18
F0.016877637130801686
sS'manageable'
p19
F0.012658227848101266
sS'well-founded'
p20
F0.002109704641350211
sS'reasonnable'
p21
F0.010548523206751054
sS'fit'
p22
F0.002109704641350211
sS'decent'
p23
F0.002109704641350211
sS'justifiable'
p24
F0.004219409282700422
sS'better'
p25
F0.002109704641350211
sS'fitting'
p26
F0.002109704641350211
sS'rational'
p27
F0.010548523206751054
sS'judicious'
p28
F0.008438818565400843
sS'justified'
p29
F0.006329113924050633
sS'worth'
p30
F0.002109704641350211
sS'smart'
p31
F0.002109704641350211
sS'affordable'
p32
F0.002109704641350211
sS'good'
p33
F0.004219409282700422
sS'normal'
p34
F0.002109704641350211
sS'cheaper'
p35
F0.39662447257383965
sS'legitimate'
p36
F0.006329113924050633
sS'wiser'
p37
F0.002109704641350211
sS'natural'
p38
F0.002109704641350211
sS'prudent'
p39
F0.002109704641350211
sS'ordinary'
p40
F0.002109704641350211
sS'standard'
p41
F0.002109704641350211
sS'sound'
p42
F0.006329113924050633
sS'wise'
p43
F0.012658227848101266
sS'reasonably'
p44
F0.002109704641350211
sS'well'
p45
F0.002109704641350211
sS'unreasonable'
p46
F0.012658227848101266
sS'feasible'
p47
F0.002109704641350211
sS'kosher'
p48
F0.002109704641350211
sS'sane'
p49
F0.010548523206751054
sS'reasonable'
p50
F0.012658227848101266
sS'expedient'
p51
F0.002109704641350211
sS'advisable'
p52
F0.004219409282700422
sS'usual'
p53
F0.002109704641350211
sS'typical'
p54
F0.002109704641350211
s.