(dp0
Vconstant
p1
F0.16666666666666666
sVunabated
p2
F0.16666666666666666
sVconsistent
p3
F0.16666666666666666
sVcontinuous
p4
F0.16666666666666666
sVsteady
p5
F0.16666666666666666
sVpersistent
p6
F0.16666666666666666
s.