(dp0
Vsupportive
p1
F0.0625
sVco-dependent
p2
F0.0625
sVadditional
p3
F0.0625
sVcomplementary
p4
F0.0625
sVinter-dependent
p5
F0.0625
sVreinforcing
p6
F0.0625
sVinterdependent
p7
F0.0625
sVsupplementary
p8
F0.0625
sVinterrelated
p9
F0.0625
sVsupplemental
p10
F0.0625
sVinter-related
p11
F0.0625
sVcomplements
p12
F0.0625
sVsynergistic
p13
F0.0625
sVcomplimentary
p14
F0.0625
sVsolidarity
p15
F0.0625
sVinteractive
p16
F0.0625
s.