(dp0
Vmajor
p1
F0.015625
sVrelevant
p2
F0.03125
sVparticularly
p3
F0.015625
sVsignificant
p4
F0.015625
sVstrongest
p5
F0.015625
sVleast
p6
F0.015625
sVresponsive
p7
F0.015625
sVuseful
p8
F0.015625
sVprincipal
p9
F0.015625
sVmeaningful
p10
F0.046875
sVcrucial
p11
F0.03125
sVspecifically
p12
F0.015625
sVcurrent
p13
F0.015625
sVnecessary
p14
F0.015625
sVvital
p15
F0.03125
sVimperative
p16
F0.015625
sVlargest
p17
F0.015625
sVmain
p18
F0.015625
sVgreatest
p19
F0.015625
sVparamount
p20
F0.0625
sVgreater
p21
F0.03125
sVhelpful
p22
F0.015625
sVlarger
p23
F0.015625
sVimportant
p24
F0.046875
sVkey
p25
F0.015625
sVparticular
p26
F0.015625
sVclinically
p27
F0.015625
sVappropriate
p28
F0.078125
sVhighest
p29
F0.015625
sVirrelevant
p30
F0.046875
sVvalid
p31
F0.015625
sVapposite
p32
F0.015625
sVpertinent
p33
F0.046875
sVespecially
p34
F0.015625
sVunrealistic
p35
F0.015625
sVrequired
p36
F0.015625
sVstronger
p37
F0.015625
sVapplicable
p38
F0.0625
sVrealistic
p39
F0.015625
sVcritical
p40
F0.015625
sVleading
p41
F0.015625
sVessential
p42
F0.015625
s.