(dp0
Vearlier
p1
F0.1111111111111111
sVformerly
p2
F0.1111111111111111
sVpreviously
p3
F0.1111111111111111
sVofficial
p4
F0.1111111111111111
sVprior
p5
F0.1111111111111111
sVabove
p6
F0.1111111111111111
sVformal
p7
F0.1111111111111111
sVprevious
p8
F0.1111111111111111
sVbefore
p9
F0.1111111111111111
s.