(dp0
S'representativeness'
p1
F0.010526315789473684
sS'broad-based'
p2
F0.005263157894736842
sS'representative'
p3
F0.015789473684210527
sS'a'
p4
F0.4842105263157895
sS'comprehensive'
p5
F0.4842105263157895
s.