(dp0
S'resident'
p1
F0.011494252873563218
sS'medical'
p2
F0.9425287356321839
sS'legal'
p3
F0.011494252873563218
sS'legitimate'
p4
F0.011494252873563218
sS'lawful'
p5
F0.011494252873563218
sS'legally'
p6
F0.011494252873563218
s.