(dp0
Vswearing
p1
F0.05555555555555555
sVinsensitive
p2
F0.1111111111111111
sVrude
p3
F0.16666666666666666
sVdisrespectful
p4
F0.05555555555555555
sVnude
p5
F0.05555555555555555
sVimpolite
p6
F0.05555555555555555
sVbrutal
p7
F0.05555555555555555
sVdisgusting
p8
F0.05555555555555555
sVdirty
p9
F0.05555555555555555
sVhorrible
p10
F0.05555555555555555
sVcrude
p11
F0.1111111111111111
sVinsolent
p12
F0.05555555555555555
sVcrass
p13
F0.05555555555555555
sVinsulting
p14
F0.05555555555555555
s.