(dp0
S'on'
p1
F0.16381028298126743
sS'very'
p2
F0.20565962534874452
sS'relative'
p3
F0.00039856516540454366
sS'safe'
p4
F0.0039856516540454365
sS'unsafe'
p5
F0.00039856516540454366
sS'environmentally-friendly'
p6
F0.00039856516540454366
sS'late'
p7
F0.178158628935831
sS'environmental'
p8
F0.00039856516540454366
sS'ecological'
p9
F0.00039856516540454366
sS'green'
p10
F0.00039856516540454366
sS'eco-friendly'
p11
F0.00039856516540454366
sS'ecologically'
p12
F0.00039856516540454366
sS'safer'
p13
F0.4451972897568752
s.