(dp0
Vsafe
p1
F0.45454545454545453
sVunsafe
p2
F0.045454545454545456
sVenvironmentally-friendly
p3
F0.045454545454545456
sVrelative
p4
F0.045454545454545456
sVenvironmental
p5
F0.045454545454545456
sVecological
p6
F0.045454545454545456
sVgreen
p7
F0.045454545454545456
sVeco-friendly
p8
F0.045454545454545456
sVecologically
p9
F0.045454545454545456
sVsafer
p10
F0.18181818181818182
s.