(dp0
Vcrazy
p1
F0.07142857142857142
sVembarrassing
p2
F0.07142857142857142
sVpathetic
p3
F0.07142857142857142
sVcheesy
p4
F0.07142857142857142
sVludicrous
p5
F0.07142857142857142
sVgrotesque
p6
F0.07142857142857142
sVnonsense
p7
F0.07142857142857142
sVpreposterous
p8
F0.07142857142857142
sVstupid
p9
F0.07142857142857142
sVpoppycock
p10
F0.07142857142857142
sVridiculous
p11
F0.07142857142857142
sVfoolish
p12
F0.07142857142857142
sVlaughable
p13
F0.07142857142857142
sVabsurd
p14
F0.07142857142857142
s.