(dp0
S'poor'
p1
F0.0014367816091954023
sS'unsatisfactory'
p2
F0.008620689655172414
sS'satisfactory'
p3
F0.010057471264367816
sS'satisfying'
p4
F0.007183908045977011
sS'splendid'
p5
F0.0014367816091954023
sS'outstanding'
p6
F0.0014367816091954023
sS'successful'
p7
F0.0028735632183908046
sS'decent'
p8
F0.0014367816091954023
sS'desirable'
p9
F0.0028735632183908046
sS'satisfied'
p10
F0.0014367816091954023
sS'better'
p11
F0.0028735632183908046
sS'as'
p12
F0.9425287356321839
sS'excellent'
p13
F0.0028735632183908046
sS'disappointing'
p14
F0.0014367816091954023
sS'gratifying'
p15
F0.0014367816091954023
sS'adequate'
p16
F0.0028735632183908046
sS'strong'
p17
F0.0028735632183908046
sS'best'
p18
F0.0014367816091954023
sS'ideal'
p19
F0.0028735632183908046
s.