(dp0
S'satisfactory'
p1
F0.006289308176100629
sS'for'
p2
F0.16352201257861634
sS'very'
p3
F0.5345911949685535
sS'satisfied'
p4
F0.018867924528301886
sS'met'
p5
F0.015723270440251572
sS'pleased'
p6
F0.009433962264150943
sS'happy'
p7
F0.25157232704402516
s.