(dp0
Vpoor
p1
F0.025
sVunsatisfactory
p2
F0.15
sVsatisfactory
p3
F0.175
sVsatisfying
p4
F0.125
sVsplendid
p5
F0.025
sVoutstanding
p6
F0.025
sVsuccessful
p7
F0.05
sVdecent
p8
F0.025
sVdesirable
p9
F0.05
sVsatisfied
p10
F0.025
sVbetter
p11
F0.05
sVideal
p12
F0.05
sVexcellent
p13
F0.05
sVdisappointing
p14
F0.025
sVgratifying
p15
F0.025
sVadequate
p16
F0.05
sVstrong
p17
F0.05
sVbest
p18
F0.025
s.