(dp0
Vpanicked
p1
F0.015384615384615385
sVspooky
p2
F0.046153846153846156
sVscared
p3
F0.06153846153846154
sVfrightened
p4
F0.03076923076923077
sVdreadful
p5
F0.03076923076923077
sVafraid
p6
F0.015384615384615385
sVterrific
p7
F0.06153846153846154
sVterrifying
p8
F0.06153846153846154
sVfreaky
p9
F0.046153846153846156
sVawesome
p10
F0.046153846153846156
sVhairy
p11
F0.046153846153846156
sVpetrified
p12
F0.015384615384615385
sVawful
p13
F0.046153846153846156
sVfrightening
p14
F0.06153846153846154
sVscary
p15
F0.09230769230769231
sVfearful
p16
F0.015384615384615385
sVshy
p17
F0.015384615384615385
sVterrible
p18
F0.046153846153846156
sVcreepy
p19
F0.09230769230769231
sVworried
p20
F0.06153846153846154
sVfrightful
p21
F0.03076923076923077
sVhorrifying
p22
F0.03076923076923077
sVpanicky
p23
F0.03076923076923077
s.