(dp0
Vafraid
p1
F0.04
sVscary
p2
F0.1
sVpanicked
p3
F0.06
sVanymore
p4
F0.02
sVfearful
p5
F0.06
sVshy
p6
F0.02
sVterrorized
p7
F0.02
sVupset
p8
F0.02
sVyellow
p9
F0.02
sVworried
p10
F0.04
sVfrightening
p11
F0.1
sVnervous
p12
F0.04
sVbrave
p13
F0.02
sVcreepy
p14
F0.04
sVsacred
p15
F0.02
sVterrified
p16
F0.04
sVfurious
p17
F0.04
sVfrightened
p18
F0.12
sVfreaky
p19
F0.04
sVscared
p20
F0.12
sVterrifying
p21
F0.02
s.