(dp0
S'a'
p1
F0.29023605150214593
sS'that'
p2
F0.0971030042918455
sS'old-fashioned'
p3
F0.000536480686695279
sS'fewer'
p4
F0.10354077253218884
sS'middle'
p5
F0.4050429184549356
sS'know'
p6
F0.05042918454935622
sS'go'
p7
F0.053111587982832616
s.