(dp0
Vsurer
p1
F0.09375
sVsure
p2
F0.09375
sVsecure
p3
F0.15625
sVassured
p4
F0.0625
sVcourse
p5
F0.03125
sVsafest
p6
F0.0625
sVinsecure
p7
F0.03125
sVsafe
p8
F0.0625
sVimpenetrable
p9
F0.03125
sVprecarious
p10
F0.03125
sVclearer
p11
F0.03125
sVinsured
p12
F0.03125
sVensuring
p13
F0.03125
sVensure
p14
F0.03125
sVsurrounded
p15
F0.03125
sVsecurity
p16
F0.0625
sVsafer
p17
F0.09375
sVsecured
p18
F0.03125
s.