(dp0
Vprecise
p1
F0.16666666666666666
sVchecked
p2
F0.16666666666666666
sVchosen
p3
F0.16666666666666666
sVaccurate
p4
F0.16666666666666666
sVselected
p5
F0.16666666666666666
sVspecific
p6
F0.16666666666666666
s.