(dp0
Vself-governing
p1
F0.07142857142857142
sVself-governed
p2
F0.07142857142857142
sVself-employed
p3
F0.07142857142857142
sVself-sustainable
p4
F0.07142857142857142
sVself-financing
p5
F0.07142857142857142
sVself-sustaining
p6
F0.07142857142857142
sVself-supporting
p7
F0.07142857142857142
sVself-contained
p8
F0.07142857142857142
sVindependent
p9
F0.07142857142857142
sVself-sufficient
p10
F0.07142857142857142
sVself-sustained
p11
F0.07142857142857142
sVautonomous
p12
F0.07142857142857142
sVstand-alone
p13
F0.07142857142857142
sVself-reliant
p14
F0.07142857142857142
s.