(dp0
S'precise'
p1
F0.005847953216374269
sS'strong'
p2
F0.005847953216374269
sS'broad'
p3
F0.935672514619883
sS'powerful'
p4
F0.005847953216374269
sS'intense'
p5
F0.005847953216374269
sS'specific'
p6
F0.005847953216374269
sS'significant'
p7
F0.005847953216374269
sS'robust'
p8
F0.005847953216374269
sS'fierce'
p9
F0.005847953216374269
sS'sharp'
p10
F0.005847953216374269
sS'lovely'
p11
F0.005847953216374269
sS'considerable'
p12
F0.005847953216374269
s.