(dp0
S'huge'
p1
F0.9502762430939227
sS'enormous'
p2
F0.0055248618784530384
sS'sizeable'
p3
F0.0055248618784530384
sS'tremendous'
p4
F0.0055248618784530384
sS'great'
p5
F0.0055248618784530384
sS'large'
p6
F0.0055248618784530384
sS'substantial'
p7
F0.0055248618784530384
sS'appreciable'
p8
F0.0055248618784530384
sS'significant'
p9
F0.0055248618784530384
sS'considerable'
p10
F0.0055248618784530384
s.