(dp0
S'specialised'
p1
F0.00392156862745098
sS'experienced'
p2
F0.00392156862745098
sS'proficient'
p3
F0.00392156862745098
sS'knowledgeable'
p4
F0.00784313725490196
sS'skilled'
p5
F0.011764705882352941
sS'competent'
p6
F0.00392156862745098
sS'qualified'
p7
F0.9450980392156862
sS'unqualified'
p8
F0.00392156862745098
sS'technological'
p9
F0.00392156862745098
sS'high-tech'
p10
F0.00392156862745098
sS'specialized'
p11
F0.00392156862745098
sS'low-skilled'
p12
F0.00392156862745098
s.