(dp0
S'limited'
p1
F0.00011185682326621924
sS'less'
p2
F0.0003355704697986577
sS'cheap'
p3
F0.00011185682326621924
sS'mild'
p4
F0.00011185682326621924
sS'miniscule'
p5
F0.00022371364653243848
sS'scarce'
p6
F0.0005592841163310962
sS'trivial'
p7
F0.00022371364653243848
sS'before'
p8
F0.004921700223713647
sS'slow'
p9
F0.00011185682326621924
sS'nominal'
p10
F0.00022371364653243848
sS'microscopic'
p11
F0.039373601789709174
sS'insubstantial'
p12
F0.00011185682326621924
sS'girlie'
p13
F0.00022371364653243848
sS'inferior'
p14
F0.00011185682326621924
sS'very'
p15
F0.00011185682326621924
sS'unimportant'
p16
F0.00011185682326621924
sS'every'
p17
F0.006263982102908278
sS'feeble'
p18
F0.00011185682326621924
sS'minute'
p19
F0.09496644295302013
sS'infrequent'
p20
F0.00011185682326621924
sS'fewer'
p21
F0.0003355704697986577
sS'micro'
p22
F0.021476510067114093
sS'sparse'
p23
F0.00022371364653243848
sS'small'
p24
F0.0011185682326621924
sS'soft'
p25
F0.00011185682326621924
sS'reduced'
p26
F0.00011185682326621924
sS'smaller'
p27
F0.23064876957494407
sS'insignificant'
p28
F0.0005592841163310962
sS'tepid'
p29
F0.00011185682326621924
sS'iittle'
p30
F0.00011185682326621924
sS'relative'
p31
F0.00011185682326621924
sS'individual'
p32
F0.04082774049217002
sS'girl'
p33
F0.00011185682326621924
sS'small-scale'
p34
F0.0003355704697986577
sS'minuscule'
p35
F0.02785234899328859
sS'brief'
p36
F0.00011185682326621924
sS'smallest'
p37
F0.0003355704697986577
sS'moderate'
p38
F0.00022371364653243848
sS'sluggish'
p39
F0.00022371364653243848
sS'minimal'
p40
F0.00044742729306487697
sS'slight'
p41
F0.0005592841163310962
sS'weak'
p42
F0.0005592841163310962
sS'inconsiderable'
p43
F0.00011185682326621924
sS'rarer'
p44
F0.00011185682326621924
sS'thready'
p45
F0.00011185682326621924
sS'rare'
p46
F0.00011185682326621924
sS'slender'
p47
F0.00011185682326621924
sS'insufficient'
p48
F0.00011185682326621924
sS'narrow'
p49
F0.00022371364653243848
sS'slightly'
p50
F0.00011185682326621924
sS'simple'
p51
F0.00011185682326621924
sS'marginal'
p52
F0.0003355704697986577
sS'primary'
p53
F0.00011185682326621924
sS'pointless'
p54
F0.00011185682326621924
sS'little'
p55
F0.0011185682326621924
sS'faint'
p56
F0.00022371364653243848
sS'tiny'
p57
F0.32170022371364654
sS'few'
p58
F0.00044742729306487697
sS'missy'
p59
F0.00011185682326621924
sS'low'
p60
F0.0008948545861297539
sS'scant'
p61
F0.00011185682326621924
sS'minor'
p62
F0.0005592841163310962
sS'lowest'
p63
F0.00011185682326621924
sS'apparent'
p64
F0.00011185682326621924
sS'lower'
p65
F0.00022371364653243848
sS'depressed'
p66
F0.00011185682326621924
sS'lesser'
p67
F0.0003355704697986577
sS'thin'
p68
F0.00011185682326621924
sS'weaker'
p69
F0.00011185682326621924
sS'slim'
p70
F0.00022371364653243848
sS'meaningless'
p71
F0.00022371364653243848
sS'meagre'
p72
F0.00044742729306487697
sS'minimum'
p73
F0.00011185682326621924
sS'lightweight'
p74
F0.00011185682326621924
sS'relatively'
p75
F0.00011185682326621924
sS'meager'
p76
F0.00011185682326621924
sS'shorter'
p77
F0.00022371364653243848
sS'tight'
p78
F0.00011185682326621924
sS'lenient'
p79
F0.00011185682326621924
sS'poor'
p80
F0.00022371364653243848
sS'shallow'
p81
F0.00022371364653243848
sS'petite'
p82
F0.00011185682326621924
sS'modest'
p83
F0.0003355704697986577
sS'kid'
p84
F0.00011185682326621924
sS'a'
p85
F0.19272930648769576
sS'younger'
p86
F0.00011185682326621924
sS'short'
p87
F0.0003355704697986577
sS'shortly'
p88
F0.00022371364653243848
sS'light'
p89
F0.00011185682326621924
sS'negligible'
p90
F0.00044742729306487697
sS'restricted'
p91
F0.00022371364653243848
sS'skinny'
p92
F0.00011185682326621924
s.