(dp0
Vflaccid
p1
F0.07142857142857142
sVslow
p2
F0.07142857142857142
sVeasy
p3
F0.07142857142857142
sVsweet
p4
F0.21428571428571427
sVsmooth
p5
F0.14285714285714285
sVpleasant
p6
F0.07142857142857142
sVgentle
p7
F0.07142857142857142
sVsweeter
p8
F0.07142857142857142
sVfresh
p9
F0.07142857142857142
sVlovely
p10
F0.07142857142857142
sVsoft
p11
F0.07142857142857142
s.