(dp0
S'great'
p1
F0.017543859649122806
sS'first-rate'
p2
F0.017543859649122806
sS'splendid'
p3
F0.017543859649122806
sS'remarkable'
p4
F0.017543859649122806
sS'outstanding'
p5
F0.017543859649122806
sS'tremendous'
p6
F0.017543859649122806
sS'magnificent'
p7
F0.017543859649122806
sS'fantastic'
p8
F0.017543859649122806
sS'extraordinary'
p9
F0.017543859649122806
sS'amazing'
p10
F0.017543859649122806
sS'wonderful'
p11
F0.017543859649122806
sS'excellent'
p12
F0.03508771929824561
sS'marvellous'
p13
F0.017543859649122806
sS'to'
p14
F0.7543859649122807
s.