(dp0
Vflat
p1
F0.1
sVconstant
p2
F0.1
sVstronger
p3
F0.025
sVunchanged
p4
F0.025
sVsteady
p5
F0.225
sVself-sustaining
p6
F0.025
sVfirmer
p7
F0.025
sVstagnant
p8
F0.075
sVstable
p9
F0.325
sVstatic
p10
F0.075
s.