(dp0
S'working'
p1
F0.20095693779904306
sS'started'
p2
F0.004784688995215311
sS'prepared'
p3
F0.004784688995215311
sS'willing'
p4
F0.004784688995215311
sS'every'
p5
F0.7799043062200957
sS'ready'
p6
F0.004784688995215311
s.