(dp0
S'identical'
p1
F0.06725146198830409
sS'several'
p2
F0.1476608187134503
sS'hour'
p3
F0.11257309941520467
sS'exposed'
p4
F0.1286549707602339
sS'involved'
p5
F0.4766081871345029
sS'better'
p6
F0.0014619883040935672
sS'supportive'
p7
F0.06286549707602339
sS'best'
p8
F0.0014619883040935672
sS'higher'
p9
F0.0014619883040935672
s.