(dp0
Vleaner
p1
F0.03125
sVmere
p2
F0.0625
sVlighter
p3
F0.03125
sVstraightforward
p4
F0.125
sVsimple
p5
F0.1875
sVplain
p6
F0.09375
sVeasiest
p7
F0.03125
sVsimplistic
p8
F0.03125
sVeasier
p9
F0.0625
sVsimply
p10
F0.03125
sVeasy
p11
F0.09375
sVsimplest
p12
F0.03125
sVsimplified
p13
F0.03125
sVuncomplicated
p14
F0.03125
sVsingle-ranked
p15
F0.03125
sVsimpler
p16
F0.09375
s.