(dp0
Vperfect
p1
F0.0625
sVstrengthened
p2
F0.0625
sVhighest
p3
F0.125
sVgreater
p4
F0.125
sVtougher
p5
F0.125
sVstronger
p6
F0.125
sVpowerful
p7
F0.125
sVstrongest
p8
F0.0625
sVgreatest
p9
F0.0625
sVlargest
p10
F0.0625
sVstrong
p11
F0.0625
s.