(dp0
Vbeautiful
p1
F0.025
sVbreathtaking
p2
F0.05
sVremarkable
p3
F0.025
sVoutstanding
p4
F0.025
sVawesome
p5
F0.025
sVmagnificent
p6
F0.025
sVfantastic
p7
F0.025
sVmarvelous
p8
F0.025
sVfabulous
p9
F0.025
sVincredible
p10
F0.025
sVnoteworthy
p11
F0.025
sVdazzling
p12
F0.025
sVsuperb
p13
F0.025
sVterrific
p14
F0.025
sVamazing
p15
F0.025
sVwonderful
p16
F0.05
sVpretty
p17
F0.025
sVgorgeous
p18
F0.025
sVlovely
p19
F0.025
sVadorable
p20
F0.025
sVravishing
p21
F0.025
sVunbelievable
p22
F0.025
sVnotable
p23
F0.025
sVstunning
p24
F0.05
sVcharming
p25
F0.025
sVdramatic
p26
F0.025
sVexcellent
p27
F0.025
sVexciting
p28
F0.025
sVimpressive
p29
F0.025
sVnoticeable
p30
F0.025
sVbrilliant
p31
F0.05
sVadmirable
p32
F0.025
sVmarvellous
p33
F0.05
sVdelightful
p34
F0.025
sVcommendable
p35
F0.025
s.