(dp0
Vfinest
p1
F0.045454545454545456
sVoptimum
p2
F0.045454545454545456
sVnicer
p3
F0.045454545454545456
sVfit
p4
F0.045454545454545456
sVconvenient
p5
F0.045454545454545456
sVdesirable
p6
F0.045454545454545456
sVclearer
p7
F0.045454545454545456
sVbetter
p8
F0.09090909090909091
sVbrighter
p9
F0.045454545454545456
sVfitting
p10
F0.045454545454545456
sVmieux
p11
F0.045454545454545456
sVproper
p12
F0.045454545454545456
sVoptimal
p13
F0.045454545454545456
sVappropriate
p14
F0.09090909090909091
sVsuitable
p15
F0.045454545454545456
sVpreferable
p16
F0.045454545454545456
sVfriendly
p17
F0.045454545454545456
sVbest
p18
F0.09090909090909091
sVideal
p19
F0.045454545454545456
s.