(dp0
S'considerably'
p1
F0.002777777777777778
sS'impenetrable'
p2
F0.55
sS'foreverything'
p3
F0.002777777777777778
sS'thin'
p4
F0.4388888888888889
sS'thick'
p5
F0.002777777777777778
sS'jam-packed'
p6
F0.002777777777777778
s.