(dp0
S'scary'
p1
F0.0006954102920723226
sS'crazy'
p2
F0.0006954102920723226
sS'everyone'
p3
F0.16411682892906815
sS'of'
p4
F0.1995827538247566
sS'stir-crazy'
p5
F0.0006954102920723226
sS'many'
p6
F0.4951321279554937
sS'hysterical'
p7
F0.0006954102920723226
sS'over'
p8
F0.1383866481223922
s.