(dp0
S'tenacious'
p1
F0.0001677289500167729
sS'costly'
p2
F0.0001677289500167729
sS'challenging'
p3
F0.0008386447500838644
sS'tougher'
p4
F0.133679973163368
sS'problematic'
p5
F0.0003354579000335458
sS'elusive'
p6
F0.0001677289500167729
sS'hardworking'
p7
F0.0008386447500838644
sS'miserable'
p8
F0.0001677289500167729
sS'tough'
p9
F0.0011741026501174102
sS'cumbersome'
p10
F0.0003354579000335458
sS'frightened'
p11
F0.0001677289500167729
sS'cold'
p12
F0.0001677289500167729
sS'expensive'
p13
F0.0001677289500167729
sS'really'
p14
F0.0001677289500167729
sS'rough'
p15
F0.0008386447500838644
sS'stressful'
p16
F0.0001677289500167729
sS'harsh'
p17
F0.0008386447500838644
sS'awkward'
p18
F0.0003354579000335458
sS'choosy'
p19
F0.0001677289500167729
sS'callous'
p20
F0.0003354579000335458
sS'bad'
p21
F0.0003354579000335458
sS'easy'
p22
F0.0001677289500167729
sS'resolute'
p23
F0.0001677289500167729
sS'painful'
p24
F0.0003354579000335458
sS'difficult'
p25
F0.0010063737001006373
sS'firm'
p26
F0.0001677289500167729
sS'hard'
p27
F0.0008386447500838644
sS'rude'
p28
F0.0006709158000670916
sS'impossible'
p29
F0.8401543106340155
sS'executory'
p30
F0.0001677289500167729
sS'uneasy'
p31
F0.0003354579000335458
sS'dire'
p32
F0.0001677289500167729
sS'awful'
p33
F0.0003354579000335458
sS'robust'
p34
F0.0001677289500167729
sS'strong'
p35
F0.0001677289500167729
sS'finicky'
p36
F0.0001677289500167729
sS'grim'
p37
F0.0001677289500167729
sS'picky'
p38
F0.0001677289500167729
sS'tricky'
p39
F0.0008386447500838644
sS'scary'
p40
F0.0001677289500167729
sS'hardto'
p41
F0.0003354579000335458
sS'rugged'
p42
F0.0003354579000335458
sS'steadfast'
p43
F0.0001677289500167729
sS'shitty'
p44
F0.0005031868500503186
sS'shy'
p45
F0.0001677289500167729
sS'stiff'
p46
F0.0006709158000670916
sS'harder'
p47
F0.0008386447500838644
sS'persistent'
p48
F0.0001677289500167729
sS'brutal'
p49
F0.007044615900704461
sS'frightening'
p50
F0.0001677289500167729
sS'reaily'
p51
F0.0001677289500167729
sS'nervous'
p52
F0.0001677289500167729
sS'impractical'
p53
F0.0003354579000335458
sS'arduous'
p54
F0.0006709158000670916
sS'fussy'
p55
F0.0003354579000335458
s.