(dp0
S'evident'
p1
F0.003246753246753247
sS'though'
p2
F0.39285714285714285
sS'clear'
p3
F0.003246753246753247
sS'clearer'
p4
F0.006493506493506494
sS'seamless'
p5
F0.00974025974025974
sS'transparency'
p6
F0.012987012987012988
sS'see-through'
p7
F0.003246753246753247
sS'active'
p8
F0.538961038961039
sS'non-transparent'
p9
F0.003246753246753247
sS'open'
p10
F0.003246753246753247
sS'clearest'
p11
F0.003246753246753247
sS'transparent'
p12
F0.01948051948051948
s.