(dp0
S'additional'
p1
F0.000881057268722467
sS'armed'
p2
F0.12422907488986784
sS'complex'
p3
F0.04757709251101322
sS'twice'
p4
F0.000881057268722467
sS'qualified'
p5
F0.775330396475771
sS'other'
p6
F0.000881057268722467
sS'others'
p7
F0.000881057268722467
sS'alternative'
p8
F0.000881057268722467
sS'occupied'
p9
F0.048458149779735685
s.