(dp0
Vintact
p1
F0.14285714285714285
sVunabated
p2
F0.14285714285714285
sVunchanged
p3
F0.14285714285714285
sVsteady
p4
F0.14285714285714285
sVstatic
p5
F0.14285714285714285
sVunaltered
p6
F0.14285714285714285
sVunaffected
p7
F0.14285714285714285
s.