(dp0
S'comprende'
p1
F0.008695652173913044
sS'necessary'
p2
F0.40869565217391307
sS'normal'
p3
F0.008695652173913044
sS'desirable'
p4
F0.3565217391304348
sS'clearer'
p5
F0.008695652173913044
sS'understood'
p6
F0.008695652173913044
sS'understandable'
p7
F0.06956521739130435
sS'easy'
p8
F0.008695652173913044
sS'above-board'
p9
F0.008695652173913044
sS'comprehensible'
p10
F0.06086956521739131
sS'obvious'
p11
F0.008695652173913044
sS'user-friendly'
p12
F0.008695652173913044
sS'intelligible'
p13
F0.017391304347826087
sS'ordinary'
p14
F0.008695652173913044
sS'typical'
p15
F0.008695652173913044
s.