(dp0
S'astonishing'
p1
F0.6661002548853017
sS'stunning'
p2
F0.19201359388275277
sS'unexpected'
p3
F0.0016992353440951572
sS'surprising'
p4
F0.0008496176720475786
sS'mistaken'
p5
F0.1393372982158029
s.