(dp0
S'troublesome'
p1
F0.009174311926605505
sS'reprehensible'
p2
F0.0061162079510703364
sS'sad'
p3
F0.01529051987767584
sS'disappointing'
p4
F0.009174311926605505
sS'miserable'
p5
F0.0061162079510703364
sS'annoying'
p6
F0.009174311926605505
sS'distressing'
p7
F0.012232415902140673
sS'dreadful'
p8
F0.009174311926605505
sS'unhappy'
p9
F0.0061162079510703364
sS'lamentable'
p10
F0.01529051987767584
sS'unlucky'
p11
F0.0061162079510703364
sS'rotten'
p12
F0.0030581039755351682
sS'tragic'
p13
F0.0030581039755351682
sS'unfortunate'
p14
F0.01834862385321101
sS'pitiful'
p15
F0.012232415902140673
sS'fatal'
p16
F0.6850152905198776
sS'disgraceful'
p17
F0.01529051987767584
sS'hopeless'
p18
F0.0061162079510703364
sS'lonely'
p19
F0.0030581039755351682
sS'pathetic'
p20
F0.012232415902140673
sS'regrettable'
p21
F0.01834862385321101
sS'regretful'
p22
F0.009174311926605505
sS'depressing'
p23
F0.0030581039755351682
sS'disastrous'
p24
F0.0030581039755351682
sS'dismal'
p25
F0.009174311926605505
sS'shameful'
p26
F0.009174311926605505
sS'dire'
p27
F0.009174311926605505
sS'awful'
p28
F0.0061162079510703364
sS'sorry'
p29
F0.0030581039755351682
sS'grim'
p30
F0.0030581039755351682
sS'moody'
p31
F0.0030581039755351682
sS'depressed'
p32
F0.0030581039755351682
sS'devastating'
p33
F0.0030581039755351682
sS'upset'
p34
F0.0030581039755351682
sS'terrible'
p35
F0.0061162079510703364
sS'lousy'
p36
F0.0061162079510703364
sS'bad'
p37
F0.0030581039755351682
sS'gloomy'
p38
F0.0030581039755351682
sS'undesirable'
p39
F0.009174311926605505
sS'heartbroken'
p40
F0.0030581039755351682
sS'unappy'
p41
F0.0061162079510703364
sS'deplorable'
p42
F0.01529051987767584
s.