(dp0
S'undetermined'
p1
F0.010526315789473684
sS'alien'
p2
F0.010526315789473684
sS'unidentified'
p3
F0.010526315789473684
sS'uncertain'
p4
F0.021052631578947368
sS'unknown'
p5
F0.05263157894736842
sS'unspecified'
p6
F0.010526315789473684
sS'strangers'
p7
F0.010526315789473684
sS'impossible'
p8
F0.8631578947368421
sS'obscure'
p9
F0.010526315789473684
s.