(dp0
Vundetermined
p1
F0.07692307692307693
sValien
p2
F0.07692307692307693
sVunidentified
p3
F0.07692307692307693
sVuncertain
p4
F0.15384615384615385
sVunknown
p5
F0.38461538461538464
sVunspecified
p6
F0.07692307692307693
sVstrangers
p7
F0.07692307692307693
sVobscure
p8
F0.07692307692307693
s.