(dp0
S'questionable'
p1
F0.014285714285714285
sS'insignificant'
p2
F0.02857142857142857
sS'doubtful'
p3
F0.04285714285714286
sS'improbable'
p4
F0.02857142857142857
sS'likely'
p5
F0.8
sS'unlikely'
p6
F0.05714285714285714
sS'implausible'
p7
F0.02857142857142857
s.