(dp0
Vghastly
p1
F0.023255813953488372
sVuncomfortable
p2
F0.06976744186046512
sVhorrendous
p3
F0.023255813953488372
sVmiserable
p4
F0.023255813953488372
sVannoying
p5
F0.06976744186046512
sVdreadful
p6
F0.023255813953488372
sVobnoxious
p7
F0.06976744186046512
sVhorrid
p8
F0.023255813953488372
sVdisgusting
p9
F0.023255813953488372
sVunpleasant
p10
F0.06976744186046512
sVhorrible
p11
F0.023255813953488372
sVhideous
p12
F0.023255813953488372
sVrude
p13
F0.06976744186046512
sVunattractive
p14
F0.023255813953488372
sVawful
p15
F0.09302325581395349
sVgruesome
p16
F0.023255813953488372
sVnasty
p17
F0.09302325581395349
sVfrightening
p18
F0.023255813953488372
sVdisagreeable
p19
F0.06976744186046512
sVterrible
p20
F0.023255813953488372
sVcreepy
p21
F0.023255813953488372
sVugly
p22
F0.09302325581395349
s.