(dp0
S'unforeseeable'
p1
F0.0136986301369863
sS'unforeseen'
p2
F0.0136986301369863
sS'dangerous'
p3
F0.9315068493150684
sS'unpredictable'
p4
F0.0136986301369863
sS'volatile'
p5
F0.0136986301369863
sS'very'
p6
F0.0136986301369863
s.