(dp0
S'crazy'
p1
F0.8930232558139535
sS'uncertain'
p2
F0.004651162790697674
sS'destabilizing'
p3
F0.009302325581395349
sS'fragile'
p4
F0.013953488372093023
sS'precarious'
p5
F0.004651162790697674
sS'volatile'
p6
F0.018604651162790697
sS'stable'
p7
F0.004651162790697674
sS'unstable'
p8
F0.023255813953488372
sS'troubled'
p9
F0.013953488372093023
sS'unsteady'
p10
F0.013953488372093023
s.