(dp0
S'closer'
p1
F0.6689104571070758
sS'equipped'
p2
F0.02786474639949906
sS'unresolved'
p3
F0.00015654351909830932
sS'furious'
p4
F0.00015654351909830932
sS'fair'
p5
F0.00015654351909830932
sS'respectable'
p6
F0.00015654351909830932
sS'decent'
p7
F0.00015654351909830932
sS'straight'
p8
F0.00015654351909830932
sS'responsible'
p9
F0.09314339386349405
sS'dishonest'
p10
F0.00015654351909830932
sS'kosher'
p11
F0.00015654351909830932
sS'also'
p12
F0.1596743894802755
sS'between'
p13
F0.021289918597370068
sS'prouder'
p14
F0.006418284283030683
sS'comin'
p15
F0.00015654351909830932
sS'intact'
p16
F0.02113337507827176
sS'truthful'
p17
F0.00015654351909830932
s.