(dp0
S'available'
p1
F0.00011325028312570782
sS'sure'
p2
F0.04609286523216308
sS'unavailable'
p3
F0.00011325028312570782
sS'any'
p4
F0.8429218573046433
sS'everything'
p5
F0.009626274065685165
sS'much'
p6
F0.07587768969422423
sS'understand'
p7
F0.020385050962627407
sS'orderable'
p8
F0.00011325028312570782
sS'reachable'
p9
F0.00011325028312570782
sS'respendable'
p10
F0.00011325028312570782
sS'transparent'
p11
F0.004530011325028313
s.