(dp0
Vcustomary
p1
F0.030303030303030304
sVutilized
p2
F0.030303030303030304
sVused
p3
F0.06060606060606061
sVfluent
p4
F0.030303030303030304
sVcurrent
p5
F0.030303030303030304
sVroutine
p6
F0.030303030303030304
sVwidespread
p7
F0.09090909090909091
sVpervasive
p8
F0.06060606060606061
sVcommonplace
p9
F0.06060606060606061
sVubiquitous
p10
F0.030303030303030304
sVmainstream
p11
F0.030303030303030304
sVuncommon
p12
F0.06060606060606061
sVstandard
p13
F0.030303030303030304
sVrampant
p14
F0.030303030303030304
sVinfrequent
p15
F0.030303030303030304
sVprevalent
p16
F0.09090909090909091
sVrife
p17
F0.030303030303030304
sVcommon
p18
F0.12121212121212122
sVpopular
p19
F0.030303030303030304
sVusual
p20
F0.030303030303030304
sVfrequent
p21
F0.030303030303030304
sVtypical
p22
F0.030303030303030304
s.