(dp0
S'beneficial'
p1
F0.00027028070581875747
sS'relevant'
p2
F0.003629483763851886
sS'useful'
p3
F0.000424726823429476
sS'worthwhile'
p4
F0.0003088922352214371
sS'worthy'
p5
F3.861152940267964e-05
sS'desirable'
p6
F3.861152940267964e-05
sS'valuable'
p7
F0.003552260705046527
sS'appropriate'
p8
F3.861152940267964e-05
sS'substantial'
p9
F3.861152940267964e-05
sS'fine'
p10
F3.861152940267964e-05
sS'best'
p11
F3.861152940267964e-05
sS'opportune'
p12
F3.861152940267964e-05
sS'profitable'
p13
F3.861152940267964e-05
sS'better'
p14
F3.861152940267964e-05
sS'salutary'
p15
F3.861152940267964e-05
sS'advantageous'
p16
F0.00015444611761071856
sS'interesting'
p17
F3.861152940267964e-05
sS'crucial'
p18
F3.861152940267964e-05
sS'fruitful'
p19
F7.722305880535928e-05
sS'unhelpful'
p20
F3.861152940267964e-05
sS'ideal'
p21
F0.00011583458820803892
sS'wonderful'
p22
F7.722305880535928e-05
sS'imperative'
p23
F3.861152940267964e-05
sS'useless'
p24
F0.00015444611761071856
sS'workable'
p25
F3.861152940267964e-05
sS'wise'
p26
F3.861152940267964e-05
sS'preferable'
p27
F3.861152940267964e-05
sS'convenient'
p28
F0.0001930576470133982
sS'nice'
p29
F3.861152940267964e-05
sS'usable'
p30
F0.0001930576470133982
sS'terrific'
p31
F3.861152940267964e-05
sS'sensible'
p32
F3.861152940267964e-05
sS'successful'
p33
F3.861152940267964e-05
sS'magnificent'
p34
F3.861152940267964e-05
sS'productive'
p35
F3.861152940267964e-05
sS'vital'
p36
F3.861152940267964e-05
sS'instrumental'
p37
F0.00023166917641607784
sS'important'
p38
F7.722305880535928e-05
sS'significant'
p39
F3.861152940267964e-05
sS'excellent'
p40
F7.722305880535928e-05
sS'pertinent'
p41
F7.722305880535928e-05
sS'precious'
p42
F7.722305880535928e-05
sS'meaningful'
p43
F0.00027028070581875747
sS'handy'
p44
F0.00023166917641607784
sS'splendid'
p45
F3.861152940267964e-05
sS'great'
p46
F3.861152940267964e-05
sS'first-rate'
p47
F3.861152940267964e-05
sS'necessary'
p48
F0.9050542491988107
sS'helpful'
p49
F0.000424726823429476
sS'effective'
p50
F3.861152940267964e-05
sS'instructive'
p51
F0.00023166917641607784
sS'as'
p52
F0.07911502374609058
sS'trustworthy'
p53
F0.0031661454110197304
sS'informative'
p54
F3.861152940267964e-05
sS'practicable'
p55
F3.861152940267964e-05
sS'reasonable'
p56
F3.861152940267964e-05
sS'positive'
p57
F3.861152940267964e-05
sS'invaluable'
p58
F0.00027028070581875747
sS'advisable'
p59
F0.00011583458820803892
sS'useable'
p60
F0.00011583458820803892
sS'essential'
p61
F3.861152940267964e-05
s.