(dp0
Vbeneficial
p1
F0.0125
sVfinest
p2
F0.0125
sVuseful
p3
F0.05
sVworthwhile
p4
F0.05
sVoutstanding
p5
F0.0125
sVheaviest
p6
F0.0125
sVvaluable
p7
F0.0875
sVwonderful
p8
F0.0125
sVfirst-class
p9
F0.0125
sVinestimable
p10
F0.025
sVexpensive
p11
F0.0125
sVinteresting
p12
F0.0125
sVsuperb
p13
F0.0125
sVterrific
p14
F0.025
sVvital
p15
F0.0125
sVuseless
p16
F0.0125
sVlargest
p17
F0.0125
sVcritical
p18
F0.0125
sVimmeasurable
p19
F0.025
sVexcellent
p20
F0.025
sVparamount
p21
F0.0125
sVgreater
p22
F0.0125
sVincalculable
p23
F0.025
sVinstrumental
p24
F0.025
sVimportant
p25
F0.025
sVsignificant
p26
F0.025
sVworthy
p27
F0.05
sVprecious
p28
F0.05
sVhighest
p29
F0.0125
sVmeaningful
p30
F0.0125
sVbigger
p31
F0.0125
sVgreat
p32
F0.025
sVhelpful
p33
F0.05
sVbrilliant
p34
F0.025
sVequal
p35
F0.0125
sVvalue
p36
F0.0125
sVgreatest
p37
F0.0125
sVinvaluable
p38
F0.1
sVadvisable
p39
F0.0125
sVpriceless
p40
F0.025
sVessential
p41
F0.0125
s.