(dp0
Vstrengthened
p1
F0.0625
sVweaker
p2
F0.0625
sVvigorous
p3
F0.0625
sVefficient
p4
F0.0625
sVbuoyant
p5
F0.0625
sVstepped-up
p6
F0.0625
sVstronger
p7
F0.125
sVstrongest
p8
F0.125
sVstrengthening
p9
F0.0625
sVresilient
p10
F0.0625
sVrobust
p11
F0.0625
sVstrong
p12
F0.125
sVproactive
p13
F0.0625
s.