(dp0
Vseminal
p1
F0.021052631578947368
sVmajor
p2
F0.010526315789473684
sVsignificant
p3
F0.010526315789473684
sVabsolutely
p4
F0.010526315789473684
sVintegral
p5
F0.010526315789473684
sVprimary
p6
F0.010526315789473684
sVurgent
p7
F0.010526315789473684
sVsubstantial
p8
F0.010526315789473684
sVdesperate
p9
F0.010526315789473684
sVabsolute
p10
F0.021052631578947368
sVindispensible
p11
F0.010526315789473684
sVconclusive
p12
F0.021052631578947368
sVindispensable
p13
F0.031578947368421054
sVunavoidable
p14
F0.010526315789473684
sVcrucial
p15
F0.06315789473684211
sVvital
p16
F0.06315789473684211
sVpivotal
p17
F0.042105263157894736
sVinalienable
p18
F0.010526315789473684
sVbasic
p19
F0.021052631578947368
sVimperative
p20
F0.031578947368421054
sVdecisive
p21
F0.031578947368421054
sVprincipal
p22
F0.010526315789473684
sVprerequisite
p23
F0.010526315789473684
sVgreatest
p24
F0.010526315789473684
sVparamount
p25
F0.06315789473684211
sVgreater
p26
F0.010526315789473684
sVinconclusive
p27
F0.010526315789473684
sVlargest
p28
F0.021052631578947368
sVinstrumental
p29
F0.031578947368421054
sVprimordial
p30
F0.010526315789473684
sVimportant
p31
F0.042105263157894736
sVkey
p32
F0.031578947368421054
sVcentral
p33
F0.010526315789473684
sVinevitable
p34
F0.010526315789473684
sVbigger
p35
F0.010526315789473684
sVprominent
p36
F0.010526315789473684
sVmain
p37
F0.010526315789473684
sVnecessary
p38
F0.010526315789473684
sVlarger
p39
F0.010526315789473684
sVindisputable
p40
F0.010526315789473684
sVcardinal
p41
F0.021052631578947368
sVcritical
p42
F0.07368421052631578
sVfundamental
p43
F0.031578947368421054
sVinvaluable
p44
F0.010526315789473684
sVunfettered
p45
F0.010526315789473684
sVessential
p46
F0.05263157894736842
s.