(dp0
S'unsatisfactory'
p1
F0.0034071550255536627
sS'weaker'
p2
F0.3373083475298126
sS'insignificant'
p3
F0.0034071550255536627
sS'inadequate'
p4
F0.0034071550255536627
sS'awesome'
p5
F0.0017035775127768314
sS'shaky'
p6
F0.0017035775127768314
sS'precarious'
p7
F0.0017035775127768314
sS'meagre'
p8
F0.0034071550255536627
sS'mild'
p9
F0.0034071550255536627
sS'smaller'
p10
F0.0017035775127768314
sS'tenuous'
p11
F0.0017035775127768314
sS'lightweight'
p12
F0.0034071550255536627
sS'lacklustre'
p13
F0.0017035775127768314
sS'destitute'
p14
F0.0017035775127768314
sS'vulnerable'
p15
F0.0017035775127768314
sS'slow'
p16
F0.0017035775127768314
sS'phenomenal'
p17
F0.0017035775127768314
sS'lowest'
p18
F0.0017035775127768314
sS'faint'
p19
F0.0034071550255536627
sS'terrific'
p20
F0.0017035775127768314
sS'wonderful'
p21
F0.0017035775127768314
sS'low'
p22
F0.015332197614991482
sS'frail'
p23
F0.0017035775127768314
sS'lovely'
p24
F0.0017035775127768314
sS'sweet'
p25
F0.0017035775127768314
sS'indigent'
p26
F0.0017035775127768314
sS'wicked'
p27
F0.0017035775127768314
sS'poor'
p28
F0.0068143100511073255
sS'slim'
p29
F0.0017035775127768314
sS'questionable'
p30
F0.0017035775127768314
sS'slight'
p31
F0.008517887563884156
sS'shallow'
p32
F0.0017035775127768314
sS'weak'
p33
F0.015332197614991482
sS'great'
p34
F0.0017035775127768314
sS'flawed'
p35
F0.0017035775127768314
sS'modest'
p36
F0.0034071550255536627
sS'feeble'
p37
F0.0068143100511073255
sS'thready'
p38
F0.0034071550255536627
sS'cool'
p39
F0.0017035775127768314
sS'sensational'
p40
F0.0017035775127768314
sS'lower'
p41
F0.0034071550255536627
sS'shortly'
p42
F0.0017035775127768314
sS'deficient'
p43
F0.0017035775127768314
sS'sluggish'
p44
F0.005110732538330494
sS'fragile'
p45
F0.0017035775127768314
sS'as'
p46
F0.5025553662691652
sS'depressed'
p47
F0.0017035775127768314
sS'minimal'
p48
F0.0017035775127768314
sS'sparse'
p49
F0.0034071550255536627
sS'small'
p50
F0.0068143100511073255
sS'insufficient'
p51
F0.0034071550255536627
sS'narrow'
p52
F0.0017035775127768314
sS'weakest'
p53
F0.0017035775127768314
s.