(dp0
S'insane'
p1
F0.006342494714587738
sS'cute'
p2
F0.004228329809725159
sS'crazy'
p3
F0.019027484143763214
sS'embarrassing'
p4
F0.0021141649048625794
sS'spooky'
p5
F0.008456659619450317
sS'random'
p6
F0.006342494714587738
sS'nonsense'
p7
F0.0021141649048625794
sS'wacky'
p8
F0.004228329809725159
sS'brain-dead'
p9
F0.0021141649048625794
sS'demented'
p10
F0.0021141649048625794
sS'screwy'
p11
F0.0021141649048625794
sS'uncomfortable'
p12
F0.0021141649048625794
sS'ironic'
p13
F0.004228329809725159
sS'curious'
p14
F0.012684989429175475
sS'bizarre'
p15
F0.023255813953488372
sS'odd'
p16
F0.012684989429175475
sS'psycho'
p17
F0.004228329809725159
sS'craze'
p18
F0.0021141649048625794
sS'confusing'
p19
F0.010570824524312896
sS'funny'
p20
F0.5391120507399577
sS'unusual'
p21
F0.004228329809725159
sS'awkward'
p22
F0.02959830866807611
sS'incredible'
p23
F0.004228329809725159
sS'senseless'
p24
F0.0021141649048625794
sS'funky'
p25
F0.0021141649048625794
sS'witty'
p26
F0.004228329809725159
sS'psychotic'
p27
F0.004228329809725159
sS'wierd'
p28
F0.010570824524312896
sS'strange'
p29
F0.02959830866807611
sS'amusing'
p30
F0.006342494714587738
sS'hilarious'
p31
F0.006342494714587738
sS'mysterious'
p32
F0.006342494714587738
sS'droll'
p33
F0.004228329809725159
sS'certifiable'
p34
F0.0021141649048625794
sS'freaky'
p35
F0.014799154334038054
sS'berserk'
p36
F0.0021141649048625794
sS'unbelievable'
p37
F0.004228329809725159
sS'yo'
p38
F0.0021141649048625794
sS'fucked-up'
p39
F0.004228329809725159
sS'loose'
p40
F0.0021141649048625794
sS'humiliating'
p41
F0.0021141649048625794
sS'trippy'
p42
F0.0021141649048625794
sS'crazed'
p43
F0.0021141649048625794
sS'fun'
p44
F0.006342494714587738
sS'wrong'
p45
F0.008456659619450317
sS'mad'
p46
F0.004228329809725159
sS'peculiar'
p47
F0.019027484143763214
sS'scary'
p48
F0.006342494714587738
sS'intriguing'
p49
F0.010570824524312896
sS'stranger'
p50
F0.016913319238900635
sS'hysterical'
p51
F0.004228329809725159
sS'straight'
p52
F0.0021141649048625794
sS'eerie'
p53
F0.006342494714587738
sS'unreasonable'
p54
F0.0021141649048625794
sS'creepy'
p55
F0.012684989429175475
sS'outrageous'
p56
F0.0021141649048625794
sS'sketchy'
p57
F0.006342494714587738
sS'goofy'
p58
F0.0021141649048625794
sS'silly'
p59
F0.004228329809725159
sS'uncanny'
p60
F0.0021141649048625794
sS'wild'
p61
F0.004228329809725159
sS'weird'
p62
F0.02748414376321353
sS'foolish'
p63
F0.0021141649048625794
sS'weirder'
p64
F0.02748414376321353
s.