(dp0
S'universal'
p1
F0.9050856676638565
sS'general'
p2
F0.0002719608376393799
sS'broader'
p3
F0.0002719608376393799
sS'wider'
p4
F0.0002719608376393799
sS'endemic'
p5
F0.0002719608376393799
sS'widest'
p6
F0.0002719608376393799
sS'generalized'
p7
F0.0002719608376393799
sS'largest'
p8
F0.0002719608376393799
sS'biggest'
p9
F0.0002719608376393799
sS'widespread'
p10
F0.0008158825129181398
sS'increasing'
p11
F0.0002719608376393799
sS'pervasive'
p12
F0.0008158825129181398
sS'commonplace'
p13
F0.0002719608376393799
sS'ubiquitous'
p14
F0.0005439216752787598
sS'increased'
p15
F0.0002719608376393799
sS'broadest'
p16
F0.0002719608376393799
sS'highest'
p17
F0.0002719608376393799
sS'rampant'
p18
F0.0008158825129181398
sS'extensive'
p19
F0.0002719608376393799
sS'bigger'
p20
F0.0002719608376393799
sS'generalised'
p21
F0.0002719608376393799
sS'prevalent'
p22
F0.0010878433505575197
sS'broad-based'
p23
F0.0002719608376393799
sS'larger'
p24
F0.0002719608376393799
sS'stronger'
p25
F0.0002719608376393799
sS'rife'
p26
F0.0005439216752787598
sS'common'
p27
F0.08457982050584716
sS'growing'
p28
F0.0002719608376393799
sS'broader-based'
p29
F0.0002719608376393799
s.