(dp0
S'different'
p1
F0.1
sS'greater'
p2
F0.1
sS'anymore'
p3
F0.1
sS'relative'
p4
F0.1
sS'most'
p5
F0.1
sS'others'
p6
F0.1
sS'alternative'
p7
F0.1
sS'more'
p8
F0.1
sS'extremely'
p9
F0.1
sS'really'
p10
F0.1
s.