(dp0
S'accessible'
p1
F0.16666666666666666
sS'available'
p2
F0.16666666666666666
sS'retrievable'
p3
F0.16666666666666666
sS'attainable'
p4
F0.16666666666666666
sS'accessed'
p5
F0.16666666666666666
sS'intelligible'
p6
F0.16666666666666666
s.