(dp0
S'affordable'
p1
F0.05
sS'profitable'
p2
F0.05
sS'economical'
p3
F0.05
sS'cost-efficient'
p4
F0.05
sS'efficient'
p5
F0.05
sS'though'
p6
F0.05
sS'desirable'
p7
F0.05
sS'sensible'
p8
F0.05
sS'possible'
p9
F0.05
sS'uneconomical'
p10
F0.05
sS'cost-effectively'
p11
F0.05
sS'lucrative'
p12
F0.05
sS'practicable'
p13
F0.05
sS'reasonable'
p14
F0.05
sS'uneconomic'
p15
F0.05
sS'cost-effective'
p16
F0.05
sS'worthwhile'
p17
F0.05
sS'manageable'
p18
F0.05
sS'viable'
p19
F0.05
sS'feasible'
p20
F0.05
s.