(dp0
S'commensurate'
p1
F0.07692307692307693
sS'resilient'
p2
F0.07692307692307693
sS'adaptable'
p3
F0.15384615384615385
sS'appropriate'
p4
F0.15384615384615385
sS'responsive'
p5
F0.07692307692307693
sS'adequate'
p6
F0.07692307692307693
sS'suitable'
p7
F0.15384615384615385
sS'adapted'
p8
F0.07692307692307693
sS'adaptive'
p9
F0.07692307692307693
sS'special'
p10
F0.07692307692307693
s.