(dp0
S'impressive'
p1
F0.14285714285714285
sS'remarkable'
p2
F0.14285714285714285
sS'though'
p3
F0.14285714285714285
sS'commendable'
p4
F0.14285714285714285
sS'wonderful'
p5
F0.14285714285714285
sS'lovely'
p6
F0.14285714285714285
sS'admirable'
p7
F0.14285714285714285
s.