(dp0
S'receivable'
p1
F0.1111111111111111
sS'inadmissible'
p2
F0.1111111111111111
sS'eligible'
p3
F0.1111111111111111
sS'acceptable'
p4
F0.1111111111111111
sS'meritorious'
p5
F0.1111111111111111
sS'admissible'
p6
F0.2222222222222222
sS'permissible'
p7
F0.1111111111111111
sS'tolerable'
p8
F0.1111111111111111
s.