(dp0
S'inconclusive'
p1
F0.14285714285714285
sS'negative'
p2
F0.14285714285714285
sS'harmful'
p3
F0.14285714285714285
sS'adverse'
p4
F0.14285714285714285
sS'hardest'
p5
F0.14285714285714285
sS'detrimental'
p6
F0.14285714285714285
sS'damaging'
p7
F0.14285714285714285
s.