(dp0
S'affordable'
p1
F0.05263157894736842
sS'accessible'
p2
F0.10526315789473684
sS'lower'
p3
F0.05263157894736842
sS'cheap'
p4
F0.3157894736842105
sS'beneficial'
p5
F0.10526315789473684
sS'cheaper'
p6
F0.05263157894736842
sS'low'
p7
F0.05263157894736842
sS'achievable'
p8
F0.10526315789473684
sS'attainable'
p9
F0.10526315789473684
sS'easier'
p10
F0.05263157894736842
s.