(dp0
S'confrontational'
p1
F0.16666666666666666
sS'aggressive'
p2
F0.3333333333333333
sS'stronger'
p3
F0.16666666666666666
sS'strongest'
p4
F0.16666666666666666
sS'proactive'
p5
F0.16666666666666666
s.