(dp0
S'pleasant'
p1
F0.14285714285714285
sS'great'
p2
F0.14285714285714285
sS'nicer'
p3
F0.14285714285714285
sS'enjoyable'
p4
F0.14285714285714285
sS'delightful'
p5
F0.14285714285714285
sS'lovely'
p6
F0.14285714285714285
sS'nice'
p7
F0.14285714285714285
s.