(dp0
S'commonplace'
p1
F0.058823529411764705
sS'concerted'
p2
F0.058823529411764705
sS'agreed-upon'
p3
F0.058823529411764705
sS'prior'
p4
F0.058823529411764705
sS'agreed'
p5
F0.23529411764705882
sS'earlier'
p6
F0.058823529411764705
sS'past'
p7
F0.058823529411764705
sS'internationaux'
p8
F0.058823529411764705
sS'common'
p9
F0.058823529411764705
sS'shared'
p10
F0.058823529411764705
sS'international'
p11
F0.058823529411764705
sS'accepted'
p12
F0.058823529411764705
sS'acceptable'
p13
F0.058823529411764705
sS'approved'
p14
F0.058823529411764705
s.