(dp0
S'distressing'
p1
F0.06451612903225806
sS'startling'
p2
F0.0967741935483871
sS'alarming'
p3
F0.1935483870967742
sS'disquieting'
p4
F0.06451612903225806
sS'staggering'
p5
F0.03225806451612903
sS'disturbing'
p6
F0.0967741935483871
sS'troubling'
p7
F0.0967741935483871
sS'shocking'
p8
F0.03225806451612903
sS'alarmed'
p9
F0.0967741935483871
sS'frightening'
p10
F0.0967741935483871
sS'worrying'
p11
F0.06451612903225806
sS'worrisome'
p12
F0.06451612903225806
s.