(dp0
S'unharmed'
p1
F0.025
sS'living'
p2
F0.1
sS'conscious'
p3
F0.1
sS'resident'
p4
F0.025
sS'vibrant'
p5
F0.025
sS'dead'
p6
F0.1
sS'aware'
p7
F0.2
sS'alright'
p8
F0.025
sS'live'
p9
F0.05
sS'alive'
p10
F0.075
sS'human'
p11
F0.125
sS'active'
p12
F0.1
sS'killed'
p13
F0.025
sS'lively'
p14
F0.025
s.