(dp0
S'smaller'
p1
F0.045454545454545456
sS'ambitious'
p2
F0.4090909090909091
sS'over-ambitious'
p3
F0.09090909090909091
sS'far-reaching'
p4
F0.22727272727272727
sS'broader'
p5
F0.045454545454545456
sS'overambitious'
p6
F0.09090909090909091
sS'challenging'
p7
F0.09090909090909091
s.