(dp0
S'little'
p1
F0.03125
sS'only'
p2
F0.03125
sS'conscious'
p3
F0.03125
sS'everything'
p4
F0.03125
sS'hard'
p5
F0.03125
sS'weak'
p6
F0.03125
sS'few'
p7
F0.03125
sS'paid'
p8
F0.21875
sS'ail'
p9
F0.03125
sS'to'
p10
F0.1875
sS'as'
p11
F0.03125
sS'much'
p12
F0.03125
sS'use'
p13
F0.125
sS'difficult'
p14
F0.03125
sS'minimal'
p15
F0.03125
sS'most'
p16
F0.09375
s.