(dp0
S'acknowledging'
p1
F0.0625
sS'useful'
p2
F0.0625
sS'helpful'
p3
F0.0625
sS'recognising'
p4
F0.0625
sS'welcome'
p5
F0.0625
sS'valuable'
p6
F0.0625
sS'thankful'
p7
F0.0625
sS'recognizing'
p8
F0.0625
sS'treasured'
p9
F0.0625
sS'grateful'
p10
F0.0625
sS'popular'
p11
F0.1875
sS'invaluable'
p12
F0.0625
sS'precious'
p13
F0.0625
sS'handy'
p14
F0.0625
s.