(dp0
S'authorised'
p1
F0.23076923076923078
sS'approved'
p2
F0.07692307692307693
sS'authoritative'
p3
F0.15384615384615385
sS'authorized'
p4
F0.07692307692307693
sS'permissible'
p5
F0.23076923076923078
sS'lawful'
p6
F0.07692307692307693
sS'allowable'
p7
F0.07692307692307693
sS'permitted'
p8
F0.07692307692307693
s.