(dp0
S'currently'
p1
F0.006493506493506494
sS'pre-published'
p2
F0.003246753246753247
sS'being'
p3
F0.003246753246753247
sS'issued'
p4
F0.003246753246753247
sS'existing'
p5
F0.00974025974025974
sS'advertised'
p6
F0.003246753246753247
sS'responsive'
p7
F0.003246753246753247
sS'scarce'
p8
F0.003246753246753247
sS'abundant'
p9
F0.003246753246753247
sS'perfect'
p10
F0.003246753246753247
sS'forthwith'
p11
F0.003246753246753247
sS'guaranteed'
p12
F0.022727272727272728
sS'operational'
p13
F0.006493506493506494
sS'better'
p14
F0.003246753246753247
sS'permanent'
p15
F0.003246753246753247
sS'disclosed'
p16
F0.003246753246753247
sS'easy'
p17
F0.003246753246753247
sS'extensive'
p18
F0.006493506493506494
sS'easier'
p19
F0.012987012987012988
sS'comercial'
p20
F0.003246753246753247
sS'presently'
p21
F0.003246753246753247
sS'straightforward'
p22
F0.003246753246753247
sS'foremost'
p23
F0.003246753246753247
sS'optimal'
p24
F0.003246753246753247
sS'immediately'
p25
F0.003246753246753247
sS'now'
p26
F0.003246753246753247
sS'infrequent'
p27
F0.003246753246753247
sS'scarcer'
p28
F0.003246753246753247
sS'audience'
p29
F0.003246753246753247
sS'common'
p30
F0.006493506493506494
sS'sparse'
p31
F0.003246753246753247
sS'popular'
p32
F0.006493506493506494
sS'prevailing'
p33
F0.00974025974025974
sS'accessible'
p34
F0.10064935064935066
sS'available'
p35
F0.05194805194805195
sS'scanty'
p36
F0.003246753246753247
sS'unpublished'
p37
F0.003246753246753247
sS'free-of-charge'
p38
F0.003246753246753247
sS'specified'
p39
F0.012987012987012988
sS'best'
p40
F0.003246753246753247
sS'unavailable'
p41
F0.04220779220779221
sS'freer'
p42
F0.003246753246753247
sS'marketed'
p43
F0.003246753246753247
sS'current'
p44
F0.006493506493506494
sS'contained'
p45
F0.003246753246753247
sS'routine'
p46
F0.006493506493506494
sS'unrestricted'
p47
F0.003246753246753247
sS'public'
p48
F0.003246753246753247
sS'announced'
p49
F0.003246753246753247
sS'affordable'
p50
F0.012987012987012988
sS'standing'
p51
F0.003246753246753247
sS'commercial'
p52
F0.003246753246753247
sS'free'
p53
F0.003246753246753247
sS'rarer'
p54
F0.003246753246753247
sS'simpler'
p55
F0.003246753246753247
sS'rare'
p56
F0.003246753246753247
sS'retrievable'
p57
F0.016233766233766232
sS'freely'
p58
F0.003246753246753247
sS'underway'
p59
F0.003246753246753247
sS'usually'
p60
F0.003246753246753247
sS'complimentary'
p61
F0.003246753246753247
sS'finest'
p62
F0.003246753246753247
sS'tough'
p63
F0.003246753246753247
sS'state-run'
p64
F0.003246753246753247
sS'simple'
p65
F0.003246753246753247
sS'achievable'
p66
F0.003246753246753247
sS'open'
p67
F0.012987012987012988
sS'endemic'
p68
F0.003246753246753247
sS'multifocal'
p69
F0.003246753246753247
sS'plentiful'
p70
F0.003246753246753247
sS'few'
p71
F0.003246753246753247
sS'scant'
p72
F0.003246753246753247
sS'respendable'
p73
F0.032467532467532464
sS'pervasive'
p74
F0.006493506493506494
sS'uncommon'
p75
F0.003246753246753247
sS'released'
p76
F0.003246753246753247
sS'known'
p77
F0.003246753246753247
sS'improved'
p78
F0.003246753246753247
sS'extant'
p79
F0.003246753246753247
sS'general'
p80
F0.003246753246753247
sS'rampant'
p81
F0.006493506493506494
sS'easiest'
p82
F0.003246753246753247
sS'present'
p83
F0.006493506493506494
sS'straightaway'
p84
F0.003246753246753247
sS'publicly'
p85
F0.003246753246753247
sS'state-owned'
p86
F0.003246753246753247
sS'plain'
p87
F0.003246753246753247
sS'smooth'
p88
F0.003246753246753247
sS'ongoing'
p89
F0.003246753246753247
sS'of'
p90
F0.012987012987012988
sS'accessed'
p91
F0.016233766233766232
sS'prompt'
p92
F0.003246753246753247
sS'gratuitous'
p93
F0.003246753246753247
sS'universal'
p94
F0.00974025974025974
sS'comfortable'
p95
F0.003246753246753247
sS'in'
p96
F0.18506493506493507
sS'ready'
p97
F0.003246753246753247
sS'intelligible'
p98
F0.003246753246753247
sS'greater'
p99
F0.003246753246753247
sS'fluent'
p100
F0.003246753246753247
sS'generic'
p101
F0.006493506493506494
sS'convenient'
p102
F0.003246753246753247
sS'high-availability'
p103
F0.003246753246753247
sS'reachable'
p104
F0.016233766233766232
sS'orderable'
p105
F0.012987012987012988
sS'widespread'
p106
F0.00974025974025974
sS'preferable'
p107
F0.003246753246753247
sS'commonplace'
p108
F0.012987012987012988
sS'ubiquitous'
p109
F0.003246753246753247
sS'open-ended'
p110
F0.003246753246753247
sS'published'
p111
F0.003246753246753247
sS'immediate'
p112
F0.006493506493506494
sS'opened'
p113
F0.003246753246753247
sS'happier'
p114
F0.003246753246753247
sS'prevalent'
p115
F0.012987012987012988
sS'attainable'
p116
F0.016233766233766232
sS'rife'
p117
F0.006493506493506494
sS'user-friendly'
p118
F0.003246753246753247
sS'normally'
p119
F0.003246753246753247
s.