(dp0
S'straightaway'
p1
F0.025
sS'right'
p2
F0.025
sS'longer'
p3
F0.025
sS'less'
p4
F0.025
sS'far'
p5
F0.025
sS'away'
p6
F0.025
sS'that'
p7
F0.25
sS'immediate'
p8
F0.025
sS'far-reaching'
p9
F0.025
sS'forthwith'
p10
F0.025
sS'bad'
p11
F0.05
sS'distant'
p12
F0.05
sS'long'
p13
F0.025
sS'very'
p14
F0.075
sS'immediately'
p15
F0.025
sS'apart'
p16
F0.025
sS'wait'
p17
F0.025
sS'with'
p18
F0.225
sS'around'
p19
F0.025
s.