(dp0
S'troublesome'
p1
F0.06779661016949153
sS'erroneous'
p2
F0.01694915254237288
sS'tough'
p3
F0.01694915254237288
sS'problematic'
p4
F0.01694915254237288
sS'embarrassing'
p5
F0.03389830508474576
sS'mistaken'
p6
F0.01694915254237288
sS'embarrassed'
p7
F0.03389830508474576
sS'distracting'
p8
F0.03389830508474576
sS'uncomfortable'
p9
F0.0847457627118644
sS'fake'
p10
F0.01694915254237288
sS'messy'
p11
F0.03389830508474576
sS'curious'
p12
F0.01694915254237288
sS'bizarre'
p13
F0.01694915254237288
sS'annoying'
p14
F0.03389830508474576
sS'odd'
p15
F0.03389830508474576
sS'incorrect'
p16
F0.01694915254237288
sS'awkward'
p17
F0.0847457627118644
sS'strange'
p18
F0.01694915254237288
sS'inconvenient'
p19
F0.06779661016949153
sS'freaky'
p20
F0.01694915254237288
sS'difficult'
p21
F0.03389830508474576
sS'inaccurate'
p22
F0.01694915254237288
sS'wrong'
p23
F0.01694915254237288
sS'delicate'
p24
F0.03389830508474576
sS'peculiar'
p25
F0.01694915254237288
sS'tricky'
p26
F0.01694915254237288
sS'stranger'
p27
F0.01694915254237288
sS'creepy'
p28
F0.01694915254237288
sS'sensitive'
p29
F0.01694915254237288
sS'sketchy'
p30
F0.01694915254237288
sS'bothersome'
p31
F0.03389830508474576
sS'weird'
p32
F0.06779661016949153
sS'weirder'
p33
F0.01694915254237288
s.