(dp0
S'general'
p1
F0.027777777777777776
sS'wide-ranging'
p2
F0.027777777777777776
sS'diverse'
p3
F0.027777777777777776
sS'broader'
p4
F0.027777777777777776
sS'broad'
p5
F0.027777777777777776
sS'environmentally-friendly'
p6
F0.027777777777777776
sS'geographically'
p7
F0.027777777777777776
sS'eco-friendly'
p8
F0.027777777777777776
sS'geographical'
p9
F0.027777777777777776
sS'widespread'
p10
F0.027777777777777776
sS'integrated'
p11
F0.3333333333333333
sS'science-based'
p12
F0.027777777777777776
sS'across-the-board'
p13
F0.027777777777777776
sS'scientific'
p14
F0.027777777777777776
sS'broadest'
p15
F0.027777777777777776
sS'environmental'
p16
F0.027777777777777776
sS'ecological'
p17
F0.027777777777777776
sS'historic'
p18
F0.027777777777777776
sS'ecologically'
p19
F0.027777777777777776
sS'technical'
p20
F0.027777777777777776
sS'broad-based'
p21
F0.027777777777777776
sS'all-encompassing'
p22
F0.027777777777777776
sS'all-inclusive'
p23
F0.027777777777777776
sS'historical'
p24
F0.027777777777777776
sS'geographic'
p25
F0.027777777777777776
s.