(dp0
S'conscious'
p1
F0.03571428571428571
sS'that'
p2
F0.5
sS'enough'
p3
F0.21428571428571427
sS'touching'
p4
F0.10714285714285714
sS'nearly'
p5
F0.07142857142857142
sS'small'
p6
F0.07142857142857142
s.