(dp0
S'beautiful'
p1
F0.004651162790697674
sS'heavy'
p2
F0.009302325581395349
sS'major'
p3
F0.013953488372093023
sS'sizeable'
p4
F0.004651162790697674
sS'large-scale'
p5
F0.009302325581395349
sS'colossal'
p6
F0.004651162790697674
sS'sweet'
p7
F0.009302325581395349
sS'awesome'
p8
F0.018604651162790697
sS'in'
p9
F0.03255813953488372
sS'stronger'
p10
F0.004651162790697674
sS'general'
p11
F0.009302325581395349
sS'high'
p12
F0.018604651162790697
sS'substantial'
p13
F0.009302325581395349
sS'formidable'
p14
F0.013953488372093023
sS'wider'
p15
F0.004651162790697674
sS'fine'
p16
F0.004651162790697674
sS'staggering'
p17
F0.004651162790697674
sS'huge'
p18
F0.13023255813953488
sS'intense'
p19
F0.004651162790697674
sS'tremendous'
p20
F0.013953488372093023
sS'broad'
p21
F0.009302325581395349
sS'grave'
p22
F0.004651162790697674
sS'grotesque'
p23
F0.013953488372093023
sS'attractive'
p24
F0.004651162790697674
sS'bigger'
p25
F0.07906976744186046
sS'terrific'
p26
F0.018604651162790697
sS'immense'
p27
F0.023255813953488372
sS'wonderful'
p28
F0.009302325581395349
sS'prettier'
p29
F0.004651162790697674
sS'pretty'
p30
F0.004651162790697674
sS'grand'
p31
F0.013953488372093023
sS'biggest'
p32
F0.013953488372093023
sS'extensive'
p33
F0.009302325581395349
sS'lovely'
p34
F0.013953488372093023
sS'greatest'
p35
F0.009302325581395349
sS'higher'
p36
F0.004651162790697674
sS'massive'
p37
F0.018604651162790697
sS'grievous'
p38
F0.004651162790697674
sS'greater'
p39
F0.03255813953488372
sS'grown-up'
p40
F0.004651162790697674
sS'big'
p41
F0.03255813953488372
sS'gorgeous'
p42
F0.004651162790697674
sS'overweight'
p43
F0.009302325581395349
sS'enormous'
p44
F0.023255813953488372
sS'truly'
p45
F0.009302325581395349
sS'extraordinary'
p46
F0.009302325581395349
sS'important'
p47
F0.009302325581395349
sS'widespread'
p48
F0.004651162790697674
sS'nearly'
p49
F0.009302325581395349
sS'significant'
p50
F0.013953488372093023
sS'robust'
p51
F0.004651162790697674
sS'strong'
p52
F0.009302325581395349
sS'considerable'
p53
F0.018604651162790697
sS'vast'
p54
F0.023255813953488372
sS'handsome'
p55
F0.004651162790697674
sS'fatter'
p56
F0.004651162790697674
sS'wide'
p57
F0.009302325581395349
sS'great'
p58
F0.04186046511627907
sS'largest'
p59
F0.004651162790697674
sS'larger'
p60
F0.03255813953488372
sS'far-reaching'
p61
F0.004651162790697674
sS'terrible'
p62
F0.004651162790697674
sS'large'
p63
F0.027906976744186046
sS'dirty'
p64
F0.009302325581395349
sS'severe'
p65
F0.009302325581395349
sS'cute'
p66
F0.004651162790697674
sS'immeasurable'
p67
F0.004651162790697674
sS'wide-ranging'
p68
F0.004651162790697674
sS'phenomenal'
p69
F0.004651162790697674
sS'serious'
p70
F0.004651162790697674
sS'gigantic'
p71
F0.013953488372093023
sS'nice'
p72
F0.004651162790697674
s.