(dp0
S'executable'
p1
F0.08333333333333333
sS'non-compensatory'
p2
F0.08333333333333333
sS'justiciable'
p3
F0.08333333333333333
sS'binding'
p4
F0.16666666666666666
sS'enforceable'
p5
F0.08333333333333333
sS'legal'
p6
F0.08333333333333333
sS'obligatory'
p7
F0.08333333333333333
sS'restrictive'
p8
F0.08333333333333333
sS'compensatory'
p9
F0.08333333333333333
sS'non-binding'
p10
F0.08333333333333333
sS'legally'
p11
F0.08333333333333333
s.