(dp0
S'considerably'
p1
F0.03125
sS'busy'
p2
F0.34375
sS'occupied'
p3
F0.03125
sS'vibrant'
p4
F0.03125
sS'over'
p5
F0.0625
sS'so'
p6
F0.03125
sS'active'
p7
F0.03125
sS'busier'
p8
F0.375
sS'whole'
p9
F0.03125
sS'labour-intensive'
p10
F0.03125
s.