(dp0
S'functioning'
p1
F0.027210884353741496
sS'given'
p2
F0.1836734693877551
sS'weaker'
p3
F0.006802721088435374
sS'strictest'
p4
F0.006802721088435374
sS'third'
p5
F0.04081632653061224
sS'level'
p6
F0.02040816326530612
sS'involved'
p7
F0.02040816326530612
sS'away'
p8
F0.006802721088435374
sS'commercial'
p9
F0.006802721088435374
sS'major'
p10
F0.006802721088435374
sS'why'
p11
F0.027210884353741496
sS'looking'
p12
F0.027210884353741496
sS'middle'
p13
F0.04081632653061224
sS'every'
p14
F0.4557823129251701
sS'relatively'
p15
F0.05442176870748299
sS'strong'
p16
F0.034013605442176874
sS'understood'
p17
F0.006802721088435374
sS'oldest'
p18
F0.006802721088435374
sS'public'
p19
F0.013605442176870748
sS'granted'
p20
F0.006802721088435374
s.