(dp0
S'abysmal'
p1
F0.14285714285714285
sS'disastrous'
p2
F0.14285714285714285
sS'catastrophic'
p3
F0.14285714285714285
sS'devastating'
p4
F0.14285714285714285
sS'appalling'
p5
F0.14285714285714285
sS'dramatic'
p6
F0.14285714285714285
sS'dire'
p7
F0.14285714285714285
s.