(dp0
S'mental'
p1
F0.058823529411764705
sS'though'
p2
F0.23529411764705882
sS'disabled'
p3
F0.058823529411764705
sS'socio-economically'
p4
F0.058823529411764705
sS'cost-effective'
p5
F0.058823529411764705
sS'frustrated'
p6
F0.35294117647058826
sS'economically'
p7
F0.058823529411764705
sS'best'
p8
F0.11764705882352941
s.