(dp0
S'evolving'
p1
F0.23076923076923078
sS'constant'
p2
F0.07692307692307693
sS'for'
p3
F0.23076923076923078
sS'ever-changing'
p4
F0.23076923076923078
sS'continuous'
p5
F0.07692307692307693
sS'volatile'
p6
F0.07692307692307693
sS'continual'
p7
F0.07692307692307693
s.