(dp0
S'evident'
p1
F0.08333333333333333
sS'clear'
p2
F0.08333333333333333
sS'apparent'
p3
F0.16666666666666666
sS'clearer'
p4
F0.16666666666666666
sS'obvious'
p5
F0.08333333333333333
sS'lighter'
p6
F0.16666666666666666
sS'clearest'
p7
F0.25
s.