(dp0
S'first-rate'
p1
F0.07692307692307693
sS'splendid'
p2
F0.07692307692307693
sS'outstanding'
p3
F0.07692307692307693
sS'worthy'
p4
F0.15384615384615385
sS'magnificent'
p5
F0.07692307692307693
sS'praiseworthy'
p6
F0.15384615384615385
sS'excellent'
p7
F0.07692307692307693
sS'commendable'
p8
F0.15384615384615385
sS'laudable'
p9
F0.15384615384615385
s.