(dp0
S'clerical'
p1
F0.1111111111111111
sS'engagement'
p2
F0.1111111111111111
sS'engaged'
p3
F0.1111111111111111
sS'commitment'
p4
F0.1111111111111111
sS'full'
p5
F0.1111111111111111
sS'lookin'
p6
F0.1111111111111111
sS'committed'
p7
F0.2222222222222222
sS'minor'
p8
F0.1111111111111111
s.