(dp0
S'full'
p1
F0.14285714285714285
sS'consistent'
p2
F0.14285714285714285
sS'pursuant'
p3
F0.14285714285714285
sS'compliant'
p4
F0.14285714285714285
sS'responsive'
p5
F0.14285714285714285
sS'aligned'
p6
F0.14285714285714285
sS'non-compliant'
p7
F0.14285714285714285
s.