(dp0
S'relevant'
p1
F0.07142857142857142
sS'remarkable'
p2
F0.03571428571428571
sS'noteworthy'
p3
F0.03571428571428571
sS'knowledgeable'
p4
F0.03571428571428571
sS'skilled'
p5
F0.03571428571428571
sS'magnificent'
p6
F0.03571428571428571
sS'best'
p7
F0.03571428571428571
sS'proficient'
p8
F0.03571428571428571
sS'wonderful'
p9
F0.03571428571428571
sS'exceptional'
p10
F0.03571428571428571
sS'familiar'
p11
F0.07142857142857142
sS'notable'
p12
F0.03571428571428571
sS'extraordinary'
p13
F0.03571428571428571
sS'dramatic'
p14
F0.03571428571428571
sS'excellent'
p15
F0.03571428571428571
sS'competent'
p16
F0.07142857142857142
sS'a'
p17
F0.10714285714285714
sS'impressive'
p18
F0.03571428571428571
sS'noticeable'
p19
F0.03571428571428571
sS'qualified'
p20
F0.03571428571428571
sS'outstanding'
p21
F0.07142857142857142
sS'commendable'
p22
F0.03571428571428571
s.