(dp0
S'tough'
p1
F0.0125
sS'challenging'
p2
F0.0125
sS'tougher'
p3
F0.0125
sS'simple'
p4
F0.025
sS'hard'
p5
F0.0125
sS'fancy'
p6
F0.0375
sS'messy'
p7
F0.075
sS'cumbersome'
p8
F0.0875
sS'confusing'
p9
F0.0625
sS'awkward'
p10
F0.0375
sS'to'
p11
F0.0125
sS'complex'
p12
F0.1375
sS'easier'
p13
F0.0125
sS'difficult'
p14
F0.075
sS'worse'
p15
F0.0125
sS'sophisticated'
p16
F0.0375
sS'complicated'
p17
F0.1625
sS'simpler'
p18
F0.025
sS'tricky'
p19
F0.0625
sS'harder'
p20
F0.0375
sS'academic'
p21
F0.0125
sS'hardest'
p22
F0.0125
sS'mixed'
p23
F0.0125
sS'uncomplicated'
p24
F0.0125
s.