(dp0
S'complete'
p1
F0.1111111111111111
sS'complementary'
p2
F0.2222222222222222
sS'interdependent'
p3
F0.1111111111111111
sS'supplementary'
p4
F0.1111111111111111
sS'complements'
p5
F0.1111111111111111
sS'complimentary'
p6
F0.1111111111111111
sS'supplemental'
p7
F0.1111111111111111
sS'additional'
p8
F0.1111111111111111
s.