(dp0
S'incompatible'
p1
F0.11764705882352941
sS'consistent'
p2
F0.11764705882352941
sS'supported'
p3
F0.11764705882352941
sS'environmentally-friendly'
p4
F0.058823529411764705
sS'compatible'
p5
F0.17647058823529413
sS'compliant'
p6
F0.11764705882352941
sS'green'
p7
F0.058823529411764705
sS'inconsistent'
p8
F0.058823529411764705
sS'reconcilable'
p9
F0.058823529411764705
sS'interoperable'
p10
F0.058823529411764705
sS'environment-friendly'
p11
F0.058823529411764705
s.