(dp0
S'tricky'
p1
F0.0392156862745098
sS'tough'
p2
F0.0196078431372549
sS'challenging'
p3
F0.0196078431372549
sS'problematic'
p4
F0.0196078431372549
sS'elaborate'
p5
F0.0196078431372549
sS'sophisticated'
p6
F0.11764705882352941
sS'intricate'
p7
F0.0784313725490196
sS'hardest'
p8
F0.0196078431372549
sS'complex'
p9
F0.19607843137254902
sS'complicated'
p10
F0.17647058823529413
sS'too'
p11
F0.0784313725490196
sS'specified'
p12
F0.0392156862745098
sS'growing'
p13
F0.0196078431372549
sS'cumbersome'
p14
F0.0784313725490196
sS'difficult'
p15
F0.0392156862745098
sS'simpler'
p16
F0.0392156862745098
s.