(dp0
S'troubled'
p1
F0.07462686567164178
sS'preoccupied'
p2
F0.11940298507462686
sS'obsessed'
p3
F0.029850746268656716
sS'uneasy'
p4
F0.05970149253731343
sS'nervous'
p5
F0.05970149253731343
sS'concerned'
p6
F0.08955223880597014
sS'worrying'
p7
F0.014925373134328358
sS'upset'
p8
F0.05970149253731343
sS'worried'
p9
F0.08955223880597014
sS'anxious'
p10
F0.05970149253731343
sS'to'
p11
F0.07462686567164178
sS'interested'
p12
F0.014925373134328358
sS'too'
p13
F0.05970149253731343
sS'uncomfortable'
p14
F0.014925373134328358
sS'involved'
p15
F0.11940298507462686
sS'everything'
p16
F0.014925373134328358
sS'keen'
p17
F0.014925373134328358
sS'annoyed'
p18
F0.014925373134328358
sS'mad'
p19
F0.014925373134328358
s.