(dp0
S'off-the-record'
p1
F0.17391304347826086
sS'confidentiality'
p2
F0.043478260869565216
sS'confidential'
p3
F0.2608695652173913
sS'classified'
p4
F0.17391304347826086
sS'secret'
p5
F0.043478260869565216
sS'protected'
p6
F0.043478260869565216
sS'need-to-know'
p7
F0.17391304347826086
sS'anonymous'
p8
F0.043478260869565216
sS'privileged'
p9
F0.043478260869565216
s.