(dp0
S'gone'
p1
F0.02857142857142857
sS'unclear'
p2
F0.05714285714285714
sS'uncertain'
p3
F0.02857142857142857
sS'lost'
p4
F0.08571428571428572
sS'upset'
p5
F0.02857142857142857
sS'confused'
p6
F0.11428571428571428
sS'disorientated'
p7
F0.05714285714285714
sS'disoriented'
p8
F0.08571428571428572
sS'embarrassed'
p9
F0.05714285714285714
sS'disturbed'
p10
F0.02857142857142857
sS'fuzzy'
p11
F0.02857142857142857
sS"n'tunderstand"
p12
F0.02857142857142857
sS'messy'
p13
F0.05714285714285714
sS'clueless'
p14
F0.02857142857142857
sS'sorry'
p15
F0.02857142857142857
sS'troubled'
p16
F0.02857142857142857
sS'frightened'
p17
F0.08571428571428572
sS'overwhelmed'
p18
F0.05714285714285714
sS'blurry'
p19
F0.02857142857142857
sS'confusing'
p20
F0.05714285714285714
s.