(dp0
S'though'
p1
F0.23076923076923078
sS'intimidating'
p2
F0.07692307692307693
sS'confused'
p3
F0.07692307692307693
sS'most'
p4
F0.07692307692307693
sS'strange'
p5
F0.07692307692307693
sS'complicated'
p6
F0.07692307692307693
sS'disconcerting'
p7
F0.07692307692307693
sS'messy'
p8
F0.07692307692307693
sS'confusing'
p9
F0.23076923076923078
s.