(dp0
S'sure'
p1
F0.14285714285714285
sS'persuaded'
p2
F0.14285714285714285
sS'satisfied'
p3
F0.14285714285714285
sS'trustworthy'
p4
F0.14285714285714285
sS'confident'
p5
F0.2857142857142857
sS'convinced'
p6
F0.14285714285714285
s.