(dp0
S'unrelated'
p1
F0.16666666666666666
sS'intertwined'
p2
F0.16666666666666666
sS'inter-linked'
p3
F0.16666666666666666
sS'related'
p4
F0.16666666666666666
sS'interrelated'
p5
F0.16666666666666666
sS'inter-related'
p6
F0.16666666666666666
s.