(dp0
S'great'
p1
F0.06666666666666667
sS'first-rate'
p2
F0.06666666666666667
sS'splendid'
p3
F0.06666666666666667
sS'outstanding'
p4
F0.06666666666666667
sS'positive'
p5
F0.06666666666666667
sS'magnificent'
p6
F0.06666666666666667
sS'constructive'
p7
F0.2
sS'wonderful'
p8
F0.06666666666666667
sS'excellent'
p9
F0.06666666666666667
sS'meaningful'
p10
F0.26666666666666666
s.