(dp0
S'conscious'
p1
F0.058823529411764705
sS'realizing'
p2
F0.058823529411764705
sS'recognizing'
p3
F0.058823529411764705
sS'alive'
p4
F0.11764705882352941
sS'aware'
p5
F0.5294117647058824
sS'ecological'
p6
F0.058823529411764705
sS'green'
p7
F0.058823529411764705
sS'cognizant'
p8
F0.058823529411764705
s.