(dp0
S'available'
p1
F0.14285714285714285
sS'accessible'
p2
F0.14285714285714285
sS'searchable'
p3
F0.14285714285714285
sS'though'
p4
F0.2857142857142857
sS'consulted'
p5
F0.14285714285714285
sS'accessed'
p6
F0.14285714285714285
s.