(dp0
S'beneficial'
p1
F0.024390243902439025
sS'smoother'
p2
F0.024390243902439025
sS'worthwhile'
p3
F0.024390243902439025
sS'comfortable'
p4
F0.04878048780487805
sS'appropriate'
p5
F0.024390243902439025
sS'best'
p6
F0.024390243902439025
sS'interesting'
p7
F0.024390243902439025
sS'business-friendly'
p8
F0.024390243902439025
sS'easiest'
p9
F0.024390243902439025
sS'better'
p10
F0.024390243902439025
sS'brighter'
p11
F0.024390243902439025
sS'attractive'
p12
F0.024390243902439025
sS'easy'
p13
F0.04878048780487805
sS'workable'
p14
F0.024390243902439025
sS'easier'
p15
F0.024390243902439025
sS'very'
p16
F0.14634146341463414
sS'expedient'
p17
F0.04878048780487805
sS'exciting'
p18
F0.024390243902439025
sS'handy'
p19
F0.04878048780487805
sS'simpler'
p20
F0.024390243902439025
sS'intriguing'
p21
F0.024390243902439025
sS'impractical'
p22
F0.024390243902439025
sS'instructive'
p23
F0.024390243902439025
sS'practical'
p24
F0.07317073170731707
sS'practicable'
p25
F0.024390243902439025
sS'convenient'
p26
F0.07317073170731707
sS'user-friendly'
p27
F0.04878048780487805
s.