(dp0
S'credible'
p1
F0.125
sS'impressive'
p2
F0.0625
sS'though'
p3
F0.1875
sS'persuasive'
p4
F0.125
sS'convincing'
p5
F0.1875
sS'most'
p6
F0.0625
sS'compelling'
p7
F0.125
sS'conclusive'
p8
F0.0625
sS'unconvincing'
p9
F0.0625
s.