(dp0
S'profitable'
p1
F0.05263157894736842
sS'worthwhile'
p2
F0.05263157894736842
sS'effective'
p3
F0.05263157894736842
sS'cost-efficient'
p4
F0.10526315789473684
sS'efficient'
p5
F0.15789473684210525
sS'cheapest'
p6
F0.05263157894736842
sS'cheaper'
p7
F0.05263157894736842
sS'cost-effectively'
p8
F0.10526315789473684
sS'lucrative'
p9
F0.10526315789473684
sS'economical'
p10
F0.05263157894736842
sS'cost-effective'
p11
F0.10526315789473684
sS'costeffective'
p12
F0.05263157894736842
sS'cost-effectiveness'
p13
F0.05263157894736842
s.