(dp0
S'worthwhile'
p1
F0.16666666666666666
sS'praiseworthy'
p2
F0.16666666666666666
sS'valuable'
p3
F0.16666666666666666
sS'worthy'
p4
F0.16666666666666666
sS'commendable'
p5
F0.16666666666666666
sS'laudable'
p6
F0.16666666666666666
s.