(dp0
S'gone'
p1
F0.021739130434782608
sS'deader'
p2
F0.021739130434782608
sS'dying'
p3
F0.021739130434782608
sS'tired'
p4
F0.021739130434782608
sS'knackered'
p5
F0.021739130434782608
sS'alive'
p6
F0.08695652173913043
sS'wasted'
p7
F0.021739130434782608
sS'stillborn'
p8
F0.021739130434782608
sS'parched'
p9
F0.021739130434782608
sS'dead'
p10
F0.2608695652173913
sS'fucked'
p11
F0.021739130434782608
sS'fatal'
p12
F0.06521739130434782
sS'with'
p13
F0.08695652173913043
sS'killed'
p14
F0.10869565217391304
sS'deceased'
p15
F0.10869565217391304
sS'really'
p16
F0.08695652173913043
s.