(dp0
S'determinant'
p1
F0.03225806451612903
sS'determinative'
p2
F0.03225806451612903
sS'crucial'
p3
F0.12903225806451613
sS'stronger'
p4
F0.03225806451612903
sS'firmer'
p5
F0.03225806451612903
sS'instrumental'
p6
F0.12903225806451613
sS'vital'
p7
F0.0967741935483871
sS'pivotal'
p8
F0.03225806451612903
sS'critical'
p9
F0.12903225806451613
sS'decisive'
p10
F0.12903225806451613
sS'inconclusive'
p11
F0.0967741935483871
sS'conclusive'
p12
F0.12903225806451613
s.