(dp0
S'tangible'
p1
F0.1111111111111111
sS'definitive'
p2
F0.1111111111111111
sS'definite'
p3
F0.1111111111111111
sS'clearer'
p4
F0.1111111111111111
sS'specific'
p5
F0.1111111111111111
sS'concrete'
p6
F0.1111111111111111
sS'at'
p7
F0.2222222222222222
sS'conclusive'
p8
F0.1111111111111111
s.