(dp0
S'unsatisfactory'
p1
F0.16666666666666666
sS'lacking'
p2
F0.16666666666666666
sS'deficient'
p3
F0.16666666666666666
sS'inadequate'
p4
F0.16666666666666666
sS'insufficient'
p5
F0.16666666666666666
sS'substandard'
p6
F0.16666666666666666
s.