(dp0
S'charmed'
p1
F0.07142857142857142
sS'happier'
p2
F0.07142857142857142
sS'overjoyed'
p3
F0.07142857142857142
sS'ecstatic'
p4
F0.07142857142857142
sS'-good'
p5
F0.07142857142857142
sS'thrilled'
p6
F0.07142857142857142
sS'delighted'
p7
F0.07142857142857142
sS'excited'
p8
F0.07142857142857142
sS'psyched'
p9
F0.07142857142857142
sS'nice'
p10
F0.07142857142857142
sS'lovely'
p11
F0.07142857142857142
sS'pleased'
p12
F0.07142857142857142
sS'glad'
p13
F0.07142857142857142
sS'happy'
p14
F0.07142857142857142
s.