(dp0
S'intended'
p1
F0.1111111111111111
sS'deliberate'
p2
F0.2222222222222222
sS'intentionally'
p3
F0.1111111111111111
sS'deliberately'
p4
F0.1111111111111111
sS'in'
p5
F0.2222222222222222
sS'intentional'
p6
F0.2222222222222222
s.