(dp0
S'complimentary'
p1
F0.06666666666666667
sS'co-dependent'
p2
F0.06666666666666667
sS'additional'
p3
F0.06666666666666667
sS'complementary'
p4
F0.06666666666666667
sS'dependent'
p5
F0.06666666666666667
sS'inter-linked'
p6
F0.06666666666666667
sS'interdependent'
p7
F0.06666666666666667
sS'inter-connected'
p8
F0.06666666666666667
sS'supplementary'
p9
F0.06666666666666667
sS'much'
p10
F0.13333333333333333
sS'inter-related'
p11
F0.06666666666666667
sS'interrelated'
p12
F0.06666666666666667
sS'supplemental'
p13
F0.06666666666666667
sS'inter-dependent'
p14
F0.06666666666666667
s.