(dp0
S'distressing'
p1
F0.0625
sS'dreadful'
p2
F0.0625
sS'worse'
p3
F0.0625
sS'depressed'
p4
F0.0625
sS'sad'
p5
F0.125
sS'depressing'
p6
F0.1875
sS'disappointing'
p7
F0.0625
sS'tragic'
p8
F0.0625
sS'hopeless'
p9
F0.0625
sS'miserable'
p10
F0.0625
sS'deplorable'
p11
F0.0625
sS'worst'
p12
F0.0625
sS'disgraceful'
p13
F0.0625
s.