(dp0
S'beneficial'
p1
F0.016666666666666666
sS'useful'
p2
F0.016666666666666666
sS'worthwhile'
p3
F0.016666666666666666
sS'desirable'
p4
F0.08333333333333333
sS'satisfactory'
p5
F0.016666666666666666
sS'appropriate'
p6
F0.03333333333333333
sS'at'
p7
F0.1
sS'best'
p8
F0.05
sS'opportune'
p9
F0.016666666666666666
sS'salutary'
p10
F0.016666666666666666
sS'fit'
p11
F0.016666666666666666
sS'inappropriate'
p12
F0.016666666666666666
sS'convenient'
p13
F0.05
sS'ideal'
p14
F0.03333333333333333
sS'better'
p15
F0.03333333333333333
sS'fitting'
p16
F0.016666666666666666
sS'preferable'
p17
F0.08333333333333333
sS'welcome'
p18
F0.016666666666666666
sS'compulsory'
p19
F0.1
sS'wise'
p20
F0.016666666666666666
sS'helpful'
p21
F0.016666666666666666
sS'undesirable'
p22
F0.08333333333333333
sS'expedient'
p23
F0.016666666666666666
sS'advisable'
p24
F0.1
sS'suitable'
p25
F0.016666666666666666
sS'advantageous'
p26
F0.016666666666666666
s.