(dp0
S'-ready'
p1
F0.037037037037037035
sS'dire'
p2
F0.1111111111111111
sS'needy'
p3
F0.07407407407407407
sS'forlorn'
p4
F0.07407407407407407
sS'prepared'
p5
F0.037037037037037035
sS'willing'
p6
F0.037037037037037035
sS'frantic'
p7
F0.07407407407407407
sS'hopeless'
p8
F0.2962962962962963
sS'desperate'
p9
F0.07407407407407407
sS'ready'
p10
F0.037037037037037035
sS'bereft'
p11
F0.07407407407407407
sS'reckless'
p12
F0.07407407407407407
s.