(dp0
S'fixated'
p1
F0.14285714285714285
sS'geographical'
p2
F0.14285714285714285
sS'geographically'
p3
F0.14285714285714285
sS'determined'
p4
F0.14285714285714285
sS'determinable'
p5
F0.14285714285714285
sS'decisive'
p6
F0.14285714285714285
sS'geographic'
p7
F0.14285714285714285
s.