(dp0
S'straightaway'
p1
F0.09090909090909091
sS'straightforward'
p2
F0.2727272727272727
sS'frank'
p3
F0.09090909090909091
sS'direct'
p4
F0.2727272727272727
sS'directly'
p5
F0.18181818181818182
sS'forthright'
p6
F0.09090909090909091
s.