(dp0
S'poor'
p1
F0.15
sS'underprivileged'
p2
F0.2
sS'weaker'
p3
F0.1
sS'worse'
p4
F0.05
sS'susceptible'
p5
F0.05
sS'poorest'
p6
F0.05
sS'poorer'
p7
F0.05
sS'disadvantaged'
p8
F0.25
sS'vulnerable'
p9
F0.05
sS'weakest'
p10
F0.05
s.