(dp0
S'disappointed'
p1
F0.16666666666666666
sS'regrettable'
p2
F0.08333333333333333
sS'meagre'
p3
F0.08333333333333333
sS'disappointing'
p4
F0.25
sS'sobering'
p5
F0.16666666666666666
sS'thin'
p6
F0.08333333333333333
sS'frustrating'
p7
F0.16666666666666666
s.