(dp0
S'bummed'
p1
F0.07692307692307693
sS'disappointed'
p2
F0.07692307692307693
sS'upset'
p3
F0.07692307692307693
sS'defeated'
p4
F0.5128205128205128
sS'disappointing'
p5
F0.07692307692307693
sS'completely'
p6
F0.05128205128205128
sS'sobering'
p7
F0.02564102564102564
sS'frustrated'
p8
F0.10256410256410256
s.