(dp0
S'embarrassed'
p1
F0.08333333333333333
sS'embarrassing'
p2
F0.08333333333333333
sS'scandalous'
p3
F0.08333333333333333
sS'sinful'
p4
F0.08333333333333333
sS'undignified'
p5
F0.08333333333333333
sS'disgusting'
p6
F0.08333333333333333
sS'appalling'
p7
F0.08333333333333333
sS'outrageous'
p8
F0.08333333333333333
sS'shameful'
p9
F0.08333333333333333
sS'ashamed'
p10
F0.08333333333333333
sS'awful'
p11
F0.08333333333333333
sS'disgraceful'
p12
F0.08333333333333333
s.