(dp0
S'gross'
p1
F0.10714285714285714
sS'unsavory'
p2
F0.03571428571428571
sS'disgusting'
p3
F0.10714285714285714
sS'creepy'
p4
F0.10714285714285714
sS'off-putting'
p5
F0.03571428571428571
sS'degrading'
p6
F0.03571428571428571
sS'repulsive'
p7
F0.10714285714285714
sS'dirty'
p8
F0.10714285714285714
sS'horrible'
p9
F0.10714285714285714
sS'nasty'
p10
F0.10714285714285714
sS'filthy'
p11
F0.10714285714285714
sS'repugnant'
p12
F0.03571428571428571
s.