(dp0
S'displaced'
p1
F0.2857142857142857
sS'inappropriate'
p2
F0.14285714285714285
sS'in-house'
p3
F0.14285714285714285
sS're-routed'
p4
F0.14285714285714285
sS'displacement'
p5
F0.14285714285714285
sS'internal'
p6
F0.14285714285714285
s.