(dp0
S'questionable'
p1
F0.14285714285714285
sS'contestable'
p2
F0.14285714285714285
sS'contentious'
p3
F0.14285714285714285
sS'disputable'
p4
F0.14285714285714285
sS'objectionable'
p5
F0.14285714285714285
sS'dubious'
p6
F0.14285714285714285
sS'debatable'
p7
F0.14285714285714285
s.