(dp0
S'different'
p1
F0.05555555555555555
sS'dissimilar'
p2
F0.05555555555555555
sS'opposite'
p3
F0.2222222222222222
sS'separate'
p4
F0.5
sS'clearer'
p5
F0.05555555555555555
sS'diverse'
p6
F0.05555555555555555
sS'alternative'
p7
F0.05555555555555555
s.