(dp0
S'wide'
p1
F0.03125
sS'different'
p2
F0.0625
sS'manifold'
p3
F0.03125
sS'varied'
p4
F0.0625
sS'disparate'
p5
F0.03125
sS'broad'
p6
F0.03125
sS'diversified'
p7
F0.09375
sS'multicultural'
p8
F0.03125
sS'multifaceted'
p9
F0.03125
sS'wide-ranging'
p10
F0.0625
sS'wider'
p11
F0.03125
sS'cultural'
p12
F0.03125
sS'diverse'
p13
F0.15625
sS'various'
p14
F0.09375
sS'culturally'
p15
F0.03125
sS'broader'
p16
F0.0625
sS'mixed'
p17
F0.0625
sS'pluralistic'
p18
F0.03125
sS'numerous'
p19
F0.03125
s.