(dp0
S'ridiculus'
p1
F0.1111111111111111
sS'childish'
p2
F0.1111111111111111
sS'ludicrous'
p3
F0.1111111111111111
sS'grotesque'
p4
F0.1111111111111111
sS'preposterous'
p5
F0.1111111111111111
sS'stupid'
p6
F0.1111111111111111
sS'poppycock'
p7
F0.1111111111111111
sS'ridiculous'
p8
F0.1111111111111111
sS'cheesy'
p9
F0.1111111111111111
s.