(dp0
S'sizeable'
p1
F0.023255813953488372
sS'slower'
p2
F0.023255813953488372
sS'dire'
p3
F0.023255813953488372
sS'less'
p4
F0.023255813953488372
sS'narrower'
p5
F0.023255813953488372
sS'far-reaching'
p6
F0.023255813953488372
sS'smaller'
p7
F0.023255813953488372
sS'gravest'
p8
F0.023255813953488372
sS'desperate'
p9
F0.023255813953488372
sS'formidable'
p10
F0.023255813953488372
sS'deeper'
p11
F0.023255813953488372
sS'huge'
p12
F0.023255813953488372
sS'tremendous'
p13
F0.023255813953488372
sS'underage'
p14
F0.023255813953488372
sS'shorter'
p15
F0.023255813953488372
sS'immense'
p16
F0.023255813953488372
sS'smallest'
p17
F0.023255813953488372
sS'tragic'
p18
F0.046511627906976744
sS'extensive'
p19
F0.023255813953488372
sS'minor'
p20
F0.023255813953488372
sS'lowest'
p21
F0.023255813953488372
sS'worse'
p22
F0.046511627906976744
sS'spectacular'
p23
F0.023255813953488372
sS'traumatic'
p24
F0.023255813953488372
sS'lower'
p25
F0.023255813953488372
sS'disastrous'
p26
F0.023255813953488372
sS'worst'
p27
F0.023255813953488372
sS'significant'
p28
F0.023255813953488372
sS'drastic'
p29
F0.023255813953488372
sS'substantial'
p30
F0.023255813953488372
sS'considerable'
p31
F0.023255813953488372
sS'vast'
p32
F0.023255813953488372
sS'enormous'
p33
F0.023255813953488372
sS'terrible'
p34
F0.046511627906976744
sS'lesser'
p35
F0.023255813953488372
sS'monumental'
p36
F0.023255813953488372
sS'dramatic'
p37
F0.06976744186046512
sS'massive'
p38
F0.023255813953488372
s.