(dp0
S'slower'
p1
F0.0625
sS'vibrant'
p2
F0.125
sS'stronger'
p3
F0.125
sS'dynamic'
p4
F0.1875
sS'pro-active'
p5
F0.125
sS'buoyant'
p6
F0.0625
sS'aggressive'
p7
F0.0625
sS'proactive'
p8
F0.1875
sS'more'
p9
F0.0625
s.