(dp0
S'earlier'
p1
F0.06666666666666667
sS'initially'
p2
F0.06666666666666667
sS'initial'
p3
F0.06666666666666667
sS'soon'
p4
F0.06666666666666667
sS'sooner'
p5
F0.06666666666666667
sS'early'
p6
F0.3333333333333333
sS'premature'
p7
F0.2
sS'earliest'
p8
F0.06666666666666667
sS'first'
p9
F0.06666666666666667
s.