(dp0
S'accessible'
p1
F0.018867924528301886
sS'tough'
p2
F0.031446540880503145
sS'challenging'
p3
F0.006289308176100629
sS'simple'
p4
F0.07547169811320754
sS'sweet'
p5
F0.006289308176100629
sS'hard'
p6
F0.03773584905660377
sS'cheap'
p7
F0.06918238993710692
sS'facilitated'
p8
F0.006289308176100629
sS'comfortable'
p9
F0.025157232704402517
sS'simply'
p10
F0.006289308176100629
sS'effortless'
p11
F0.025157232704402517
sS'ready'
p12
F0.012578616352201259
sS'rough'
p13
F0.012578616352201259
sS'convenient'
p14
F0.05660377358490566
sS'easy'
p15
F0.06918238993710692
sS'simplest'
p16
F0.006289308176100629
sS'unproblematic'
p17
F0.006289308176100629
sS'easier'
p18
F0.12578616352201258
sS'reckless'
p19
F0.006289308176100629
sS'difficult'
p20
F0.018867924528301886
sS'apparent'
p21
F0.006289308176100629
sS'straightforward'
p22
F0.0880503144654088
sS'painless'
p23
F0.012578616352201259
sS'pleasant'
p24
F0.025157232704402517
sS'simplistic'
p25
F0.012578616352201259
sS'self-evident'
p26
F0.006289308176100629
sS'easiest'
p27
F0.07547169811320754
sS'simpler'
p28
F0.025157232704402517
sS'tricky'
p29
F0.018867924528301886
sS'noticeable'
p30
F0.006289308176100629
sS'plain'
p31
F0.006289308176100629
sS'clear'
p32
F0.006289308176100629
sS'smooth'
p33
F0.018867924528301886
sS'obvious'
p34
F0.006289308176100629
sS'sweeter'
p35
F0.006289308176100629
sS'user-friendly'
p36
F0.0440251572327044
sS'uncomplicated'
p37
F0.012578616352201259
s.