(dp0
S'necessarily'
p1
F0.25
sS'knowledgeable'
p2
F0.0625
sS'better-educated'
p3
F0.25
sS'informed'
p4
F0.0625
sS'graduate'
p5
F0.0625
sS'educated'
p6
F0.125
sS'well-educated'
p7
F0.125
sS'well-informed'
p8
F0.0625
s.