(dp0
S'optimal'
p1
F0.00641025641025641
sS'beneficial'
p2
F0.00641025641025641
sS'finest'
p3
F0.00641025641025641
sS'useful'
p4
F0.01282051282051282
sS'worthwhile'
p5
F0.00641025641025641
sS'nicer'
p6
F0.01282051282051282
sS'less'
p7
F0.00641025641025641
sS'healthier'
p8
F0.00641025641025641
sS'stronger'
p9
F0.01282051282051282
sS'awesome'
p10
F0.00641025641025641
sS'excellent'
p11
F0.00641025641025641
sS'desirable'
p12
F0.00641025641025641
sS'potent'
p13
F0.01282051282051282
sS'strongest'
p14
F0.01282051282051282
sS'good'
p15
F0.00641025641025641
sS'enhanced'
p16
F0.00641025641025641
sS'formidable'
p17
F0.00641025641025641
sS'responsive'
p18
F0.01282051282051282
sS'small'
p19
F0.00641025641025641
sS'fruitful'
p20
F0.01282051282051282
sS'optimum'
p21
F0.00641025641025641
sS'fairer'
p22
F0.00641025641025641
sS'best'
p23
F0.01282051282051282
sS'increased'
p24
F0.00641025641025641
sS'profitable'
p25
F0.00641025641025641
sS'better'
p26
F0.019230769230769232
sS'cost-efficient'
p27
F0.00641025641025641
sS'productive'
p28
F0.02564102564102564
sS'genuine'
p29
F0.00641025641025641
sS'efficacy'
p30
F0.02564102564102564
sS'efficient'
p31
F0.07692307692307693
sS'meaningful'
p32
F0.02564102564102564
sS'proficient'
p33
F0.019230769230769232
sS'enforceable'
p34
F0.00641025641025641
sS'least'
p35
F0.00641025641025641
sS'improvement'
p36
F0.00641025641025641
sS'terrific'
p37
F0.00641025641025641
sS'brighter'
p38
F0.00641025641025641
sS'ideal'
p39
F0.00641025641025641
sS'wonderful'
p40
F0.00641025641025641
sS'useless'
p41
F0.00641025641025641
sS'economical'
p42
F0.00641025641025641
sS'smarter'
p43
F0.00641025641025641
sS'cost-effective'
p44
F0.02564102564102564
sS'cost-effectively'
p45
F0.00641025641025641
sS'preferable'
p46
F0.00641025641025641
sS'viable'
p47
F0.01282051282051282
sS'more'
p48
F0.01282051282051282
sS'affordable'
p49
F0.00641025641025641
sS'perfect'
p50
F0.00641025641025641
sS'full'
p51
F0.00641025641025641
sS'inefficient'
p52
F0.01282051282051282
sS'efficacious'
p53
F0.04487179487179487
sS'superior'
p54
F0.00641025641025641
sS'successful'
p55
F0.038461538461538464
sS'powerful'
p56
F0.00641025641025641
sS'clearer'
p57
F0.00641025641025641
sS'executory'
p58
F0.00641025641025641
sS'instrumental'
p59
F0.00641025641025641
sS'favourable'
p60
F0.00641025641025641
sS'lucrative'
p61
F0.00641025641025641
sS'wiser'
p62
F0.00641025641025641
sS'improving'
p63
F0.00641025641025641
sS'happier'
p64
F0.00641025641025641
sS'safer'
p65
F0.00641025641025641
sS'highest'
p66
F0.00641025641025641
sS'true'
p67
F0.00641025641025641
sS'splendid'
p68
F0.00641025641025641
sS'effectiveness'
p69
F0.02564102564102564
sS'improved'
p70
F0.01282051282051282
sS'helpful'
p71
F0.00641025641025641
sS'effective'
p72
F0.0641025641025641
sS'brilliant'
p73
F0.00641025641025641
sS'inexpensive'
p74
F0.00641025641025641
sS'well'
p75
F0.02564102564102564
sS'superb'
p76
F0.00641025641025641
sS'greater'
p77
F0.00641025641025641
sS'feasible'
p78
F0.01282051282051282
sS'easier'
p79
F0.00641025641025641
sS'ineffective'
p80
F0.019230769230769232
sS'practicable'
p81
F0.01282051282051282
sS'real'
p82
F0.00641025641025641
sS'cost-effectiveness'
p83
F0.00641025641025641
sS'valid'
p84
F0.02564102564102564
s.