(dp0
S'major'
p1
F0.16666666666666666
sS'worse'
p2
F0.16666666666666666
sS'worst'
p3
F0.16666666666666666
sS'greatest'
p4
F0.16666666666666666
sS'main'
p5
F0.16666666666666666
sS'gravest'
p6
F0.16666666666666666
s.