(dp0
S'troublesome'
p1
F0.07142857142857142
sS'embarrassing'
p2
F0.11904761904761904
sS'ashamed'
p3
F0.023809523809523808
sS'awkward'
p4
F0.047619047619047616
sS'shy'
p5
F0.023809523809523808
sS'humiliating'
p6
F0.023809523809523808
sS'uncomfortable'
p7
F0.07142857142857142
sS'embarrassed'
p8
F0.07142857142857142
sS'distracting'
p9
F0.07142857142857142
sS'degrading'
p10
F0.023809523809523808
sS'shameful'
p11
F0.023809523809523808
sS'bothersome'
p12
F0.07142857142857142
sS'demeaning'
p13
F0.023809523809523808
sS'messy'
p14
F0.047619047619047616
sS'disturbing'
p15
F0.07142857142857142
sS'inconvenient'
p16
F0.07142857142857142
sS'annoying'
p17
F0.07142857142857142
sS'weird'
p18
F0.047619047619047616
sS'disgraceful'
p19
F0.023809523809523808
s.