(dp0
S'sensible'
p1
F0.06666666666666667
sS'dysfunctional'
p2
F0.13333333333333333
sS'noticeable'
p3
F0.13333333333333333
sS'squeamish'
p4
F0.06666666666666667
sS'susceptible'
p5
F0.06666666666666667
sS'emotive'
p6
F0.06666666666666667
sS'sensitive'
p7
F0.13333333333333333
sS'significant'
p8
F0.06666666666666667
sS'responsive'
p9
F0.13333333333333333
sS'emotional'
p10
F0.06666666666666667
sS'overemotional'
p11
F0.06666666666666667
s.