(dp0
S'executable'
p1
F0.0625
sS'mandatory'
p2
F0.0625
sS'straightforward'
p3
F0.0625
sS'justiciable'
p4
F0.0625
sS'binding'
p5
F0.0625
sS'enforceable'
p6
F0.125
sS'legal'
p7
F0.0625
sS'direct'
p8
F0.0625
sS'actionable'
p9
F0.0625
sS'over-the-air'
p10
F0.0625
sS'lawful'
p11
F0.0625
sS'legally'
p12
F0.0625
sS'self-executing'
p13
F0.0625
sS'blunt'
p14
F0.0625
sS'executory'
p15
F0.0625
s.