(dp0
S'strengthened'
p1
F0.16666666666666666
sS'strengthening'
p2
F0.16666666666666666
sS'increased'
p3
F0.16666666666666666
sS'reinforcing'
p4
F0.16666666666666666
sS'enhancement'
p5
F0.16666666666666666
sS'enhanced'
p6
F0.16666666666666666
s.