(dp0
S'executed'
p1
F0.16666666666666666
sS'efficacious'
p2
F0.16666666666666666
sS'effective'
p3
F0.16666666666666666
sS'efficient'
p4
F0.16666666666666666
sS'properly'
p5
F0.16666666666666666
sS'performed'
p6
F0.16666666666666666
s.