(dp0
S'precise'
p1
F0.1111111111111111
sS'infrequent'
p2
F0.1111111111111111
sS'clear-cut'
p3
F0.1111111111111111
sS'clear'
p4
F0.1111111111111111
sS'unequivocal'
p5
F0.1111111111111111
sS'explicit'
p6
F0.1111111111111111
sS'clearer'
p7
F0.1111111111111111
sS'predictable'
p8
F0.1111111111111111
sS'frequent'
p9
F0.1111111111111111
s.