(dp0
S'taller'
p1
F0.00847457627118644
sS'expanded'
p2
F0.00847457627118644
sS'excessive'
p3
F0.00847457627118644
sS'expanding'
p4
F0.00847457627118644
sS'over'
p5
F0.00847457627118644
sS'heaviest'
p6
F0.00847457627118644
sS'far-reaching'
p7
F0.00847457627118644
sS'wide-ranging'
p8
F0.01694915254237288
sS'strongest'
p9
F0.01694915254237288
sS'broader'
p10
F0.0423728813559322
sS'wider'
p11
F0.0423728813559322
sS'bigger'
p12
F0.01694915254237288
sS'thicker'
p13
F0.00847457627118644
sS'looser'
p14
F0.00847457627118644
sS'greater'
p15
F0.025423728813559324
sS'huge'
p16
F0.00847457627118644
sS'lengthy'
p17
F0.00847457627118644
sS'fuller'
p18
F0.01694915254237288
sS'additional'
p19
F0.00847457627118644
sS'widest'
p20
F0.01694915254237288
sS'broad'
p21
F0.025423728813559324
sS'coarser'
p22
F0.01694915254237288
sS'thorough'
p23
F0.01694915254237288
sS'multifaceted'
p24
F0.00847457627118644
sS'enlarged'
p25
F0.00847457627118644
sS'immense'
p26
F0.00847457627118644
sS'far-ranging'
p27
F0.00847457627118644
sS'multidimensional'
p28
F0.00847457627118644
sS'largest'
p29
F0.01694915254237288
sS'biggest'
p30
F0.01694915254237288
sS'time-consuming'
p31
F0.00847457627118644
sS'extensive'
p32
F0.00847457627118644
sS'unconscionable'
p33
F0.00847457627118644
sS'universal'
p34
F0.01694915254237288
sS'disproportionate'
p35
F0.00847457627118644
sS'more'
p36
F0.00847457627118644
sS'multiple'
p37
F0.00847457627118644
sS'complete'
p38
F0.11864406779661017
sS'big'
p39
F0.00847457627118644
sS'protracted'
p40
F0.00847457627118644
sS'very'
p41
F0.00847457627118644
sS'comprehensive'
p42
F0.05084745762711865
sS'broadest'
p43
F0.025423728813559324
sS'enormous'
p44
F0.00847457627118644
sS'important'
p45
F0.00847457627118644
sS'longest'
p46
F0.00847457627118644
sS'fullest'
p47
F0.00847457627118644
sS'highest'
p48
F0.01694915254237288
sS'exhaustive'
p49
F0.00847457627118644
sS'vast'
p50
F0.00847457627118644
sS'widespread'
p51
F0.01694915254237288
sS'wide'
p52
F0.01694915254237288
sS'great'
p53
F0.00847457627118644
sS'longer'
p54
F0.01694915254237288
sS'exaggerated'
p55
F0.00847457627118644
sS'broad-based'
p56
F0.01694915254237288
sS'larger'
p57
F0.025423728813559324
sS'stronger'
p58
F0.01694915254237288
sS'unreasonable'
p59
F0.00847457627118644
sS'multi-faceted'
p60
F0.00847457627118644
sS'large'
p61
F0.00847457627118644
sS'greatest'
p62
F0.00847457627118644
sS'higher'
p63
F0.00847457627118644
sS'in-depth'
p64
F0.01694915254237288
sS'broader-based'
p65
F0.01694915254237288
sS'lengthier'
p66
F0.00847457627118644
s.