(dp0
S'intriguing'
p1
F0.09523809523809523
sS'fascinating'
p2
F0.19047619047619047
sS'riveting'
p3
F0.14285714285714285
sS'interesting'
p4
F0.047619047619047616
sS'amazing'
p5
F0.14285714285714285
sS'stunning'
p6
F0.14285714285714285
sS'attractive'
p7
F0.047619047619047616
sS'exciting'
p8
F0.19047619047619047
s.