(dp0
S'awesome'
p1
F0.02857142857142857
sS'formidable'
p2
F0.02857142857142857
sS'chubby'
p3
F0.02857142857142857
sS'tremendous'
p4
F0.02857142857142857
sS'grotesque'
p5
F0.02857142857142857
sS'terrific'
p6
F0.02857142857142857
sS'immense'
p7
F0.02857142857142857
sS'bigger'
p8
F0.02857142857142857
sS'staggering'
p9
F0.02857142857142857
sS'biggest'
p10
F0.02857142857142857
sS'sensational'
p11
F0.02857142857142857
sS'obese'
p12
F0.11428571428571428
sS'big'
p13
F0.02857142857142857
sS'overweight'
p14
F0.08571428571428572
sS'fat'
p15
F0.08571428571428572
sS'stocky'
p16
F0.02857142857142857
sS'stout'
p17
F0.02857142857142857
sS'overwhelming'
p18
F0.02857142857142857
sS'vast'
p19
F0.02857142857142857
sS'fatter'
p20
F0.11428571428571428
sS'enormous'
p21
F0.02857142857142857
sS'larger'
p22
F0.02857142857142857
sS'monumental'
p23
F0.02857142857142857
sS'dirty'
p24
F0.02857142857142857
sS'gigantic'
p25
F0.02857142857142857
s.