(dp0
S'leaner'
p1
F0.045454545454545456
sS'flexibly'
p2
F0.09090909090909091
sS'limber'
p3
F0.045454545454545456
sS'relaxed'
p4
F0.045454545454545456
sS'smoother'
p5
F0.045454545454545456
sS'inflexible'
p6
F0.045454545454545456
sS'adaptable'
p7
F0.09090909090909091
sS'flexibility'
p8
F0.045454545454545456
sS'looser'
p9
F0.09090909090909091
sS'responsive'
p10
F0.09090909090909091
sS'flexible'
p11
F0.22727272727272727
sS'slimmer'
p12
F0.045454545454545456
sS'to'
p13
F0.09090909090909091
s.