(dp0
S'concentrated'
p1
F0.16666666666666666
sS'specific'
p2
F0.16666666666666666
sS'pragmatic'
p3
F0.16666666666666666
sS'targeted'
p4
F0.16666666666666666
sS'practical'
p5
F0.16666666666666666
sS'realistic'
p6
F0.16666666666666666
s.