(dp0
S'dreadful'
p1
F0.16666666666666666
sS'atrocious'
p2
F0.16666666666666666
sS'disgusting'
p3
F0.16666666666666666
sS'horrendous'
p4
F0.16666666666666666
sS'awful'
p5
F0.16666666666666666
sS'gruesome'
p6
F0.16666666666666666
s.