(dp0
S'sound'
p1
F0.06666666666666667
sS'unwarranted'
p2
F0.06666666666666667
sS'well-founded'
p3
F0.06666666666666667
sS'substantiated'
p4
F0.06666666666666667
sS'inadmissible'
p5
F0.06666666666666667
sS'acceptable'
p6
F0.06666666666666667
sS'justifiable'
p7
F0.06666666666666667
sS'founded'
p8
F0.06666666666666667
sS'admissible'
p9
F0.06666666666666667
sS'a'
p10
F0.26666666666666666
sS'reasonable'
p11
F0.06666666666666667
sS'unfounded'
p12
F0.06666666666666667
s.