(dp0
S'cleared'
p1
F0.01818181818181818
sS'complimentary'
p2
F0.03636363636363636
sS'organic'
p3
F0.03636363636363636
sS'though'
p4
F0.6
sS'freer'
p5
F0.03636363636363636
sS'exempt'
p6
F0.01818181818181818
sS'free'
p7
F0.12727272727272726
sS'free-of-charge'
p8
F0.01818181818181818
sS'everywhere'
p9
F0.01818181818181818
sS'freest'
p10
F0.01818181818181818
sS'freedom'
p11
F0.01818181818181818
sS'unrestricted'
p12
F0.01818181818181818
sS'deductible'
p13
F0.01818181818181818
sS'freely'
p14
F0.01818181818181818
s.