(dp0
S'scary'
p1
F0.07142857142857142
sS'afraid'
p2
F0.07142857142857142
sS'for'
p3
F0.07142857142857142
sS'petrified'
p4
F0.07142857142857142
sS'fearful'
p5
F0.07142857142857142
sS'shy'
p6
F0.07142857142857142
sS'scared'
p7
F0.07142857142857142
sS'creepy'
p8
F0.07142857142857142
sS'worried'
p9
F0.07142857142857142
sS'frightened'
p10
F0.07142857142857142
sS'panicked'
p11
F0.07142857142857142
sS'terrifying'
p12
F0.03571428571428571
sS'terrified'
p13
F0.03571428571428571
sS'spooky'
p14
F0.03571428571428571
sS'frightening'
p15
F0.07142857142857142
sS'nervous'
p16
F0.03571428571428571
s.