(dp0
S'distressing'
p1
F0.1111111111111111
sS'unsatisfactory'
p2
F0.1111111111111111
sS'disappointing'
p3
F0.2222222222222222
sS'time'
p4
F0.2222222222222222
sS'frustrating'
p5
F0.2222222222222222
sS'painful'
p6
F0.1111111111111111
s.