(dp0
S'full'
p1
F0.0851063829787234
sS'complete'
p2
F0.0425531914893617
sS'comprehensive'
p3
F0.0425531914893617
sS'completed'
p4
F0.02127659574468085
sS'overloaded'
p5
F0.1702127659574468
sS'overflowing'
p6
F0.0851063829787234
sS'thorough'
p7
F0.06382978723404255
sS'tight'
p8
F0.02127659574468085
sS'severe'
p9
F0.02127659574468085
sS'lively'
p10
F0.02127659574468085
sS'stuffed'
p11
F0.2553191489361702
sS'flush'
p12
F0.02127659574468085
sS'fun'
p13
F0.06382978723404255
sS'exhaustive'
p14
F0.0425531914893617
sS'extensive'
p15
F0.02127659574468085
sS'tied'
p16
F0.02127659574468085
s.