(dp0
S'full'
p1
F0.08333333333333333
sS'functional'
p2
F0.08333333333333333
sS'operational'
p3
F0.16666666666666666
sS'elegant'
p4
F0.16666666666666666
sS'attractive'
p5
F0.16666666666666666
sS'workable'
p6
F0.16666666666666666
sS'functioning'
p7
F0.08333333333333333
sS'functionally'
p8
F0.08333333333333333
s.