(dp0
S'seminal'
p1
F0.038461538461538464
sS'major'
p2
F0.019230769230769232
sS'principal'
p3
F0.019230769230769232
sS'guaranteed'
p4
F0.009615384615384616
sS'primary'
p5
F0.019230769230769232
sS'strongest'
p6
F0.009615384615384616
sS'elementary'
p7
F0.019230769230769232
sS'all-important'
p8
F0.028846153846153848
sS'greater'
p9
F0.009615384615384616
sS'leading'
p10
F0.009615384615384616
sS'crucial'
p11
F0.057692307692307696
sS'principale'
p12
F0.009615384615384616
sS'critical'
p13
F0.04807692307692308
sS'cardinal'
p14
F0.038461538461538464
sS'deepest'
p15
F0.009615384615384616
sS'basic'
p16
F0.0673076923076923
sS'biggest'
p17
F0.009615384615384616
sS'pivotal'
p18
F0.04807692307692308
sS'main'
p19
F0.019230769230769232
sS'paramount'
p20
F0.057692307692307696
sS'deeper'
p21
F0.009615384615384616
sS'largest'
p22
F0.019230769230769232
sS'vital'
p23
F0.057692307692307696
sS'instrumental'
p24
F0.038461538461538464
sS'key'
p25
F0.057692307692307696
sS'bigger'
p26
F0.009615384615384616
sS'simpler'
p27
F0.009615384615384616
sS'central'
p28
F0.028846153846153848
sS'larger'
p29
F0.009615384615384616
sS'substantive'
p30
F0.009615384615384616
sS'imperative'
p31
F0.04807692307692308
sS'greatest'
p32
F0.009615384615384616
sS'fundamental'
p33
F0.0673076923076923
sS'essential'
p34
F0.07692307692307693
s.