(dp0
S'state-run'
p1
F0.1111111111111111
sS'though'
p2
F0.2222222222222222
sS'state-owned'
p3
F0.1111111111111111
sS'funded'
p4
F0.1111111111111111
sS'state-funded'
p5
F0.1111111111111111
sS'government-owned'
p6
F0.1111111111111111
sS'open'
p7
F0.1111111111111111
sS'public'
p8
F0.1111111111111111
s.