(dp0
S'tough'
p1
F0.06666666666666667
sS'sweet'
p2
F0.2
sS'mild'
p3
F0.06666666666666667
sS'pleasant'
p4
F0.06666666666666667
sS'gentle'
p5
F0.06666666666666667
sS'thoughtful'
p6
F0.06666666666666667
sS'good-natured'
p7
F0.06666666666666667
sS'rugged'
p8
F0.06666666666666667
sS'rough'
p9
F0.06666666666666667
sS'lovely'
p10
F0.06666666666666667
sS'soft'
p11
F0.06666666666666667
sS'friendly'
p12
F0.06666666666666667
sS'cool'
p13
F0.06666666666666667
s.