(dp0
S'beautiful'
p1
F0.04
sS'fantastic'
p2
F0.08
sS'awesome'
p3
F0.04
sS'magnificent'
p4
F0.04
sS'marvelous'
p5
F0.04
sS'fabulous'
p6
F0.04
sS'delicious'
p7
F0.04
sS'cherry'
p8
F0.04
sS'superb'
p9
F0.04
sS'terrific'
p10
F0.04
sS'amazing'
p11
F0.04
sS'wonderful'
p12
F0.04
sS'gorgeous'
p13
F0.04
sS'lovely'
p14
F0.04
sS'spectacular'
p15
F0.04
sS'masterful'
p16
F0.04
sS'handsome'
p17
F0.04
sS'great'
p18
F0.04
sS'splendid'
p19
F0.04
sS'brilliant'
p20
F0.04
sS'glorious'
p21
F0.08
sS'phenomenal'
p22
F0.04
sS'exquisite'
p23
F0.04
s.