(dp0
S'beautiful'
p1
F0.08333333333333333
sS'sweet'
p2
F0.16666666666666666
sS'good-iooking'
p3
F0.08333333333333333
sS'good-looking'
p4
F0.08333333333333333
sS'prettier'
p5
F0.08333333333333333
sS'pretty'
p6
F0.16666666666666666
sS'wonderful'
p7
F0.16666666666666666
sS'lovely'
p8
F0.16666666666666666
s.