(dp0
S'heavy'
p1
F0.05405405405405406
sS'aggravated'
p2
F0.02702702702702703
sS'gravest'
p3
F0.05405405405405406
sS'in'
p4
F0.02702702702702703
sS'outrageous'
p5
F0.05405405405405406
sS'seriously'
p6
F0.02702702702702703
sS'critical'
p7
F0.05405405405405406
sS'grave'
p8
F0.05405405405405406
sS'fatal'
p9
F0.02702702702702703
sS'grievous'
p10
F0.02702702702702703
sS'worse'
p11
F0.05405405405405406
sS'very'
p12
F0.02702702702702703
sS'dramatic'
p13
F0.05405405405405406
sS'worst'
p14
F0.02702702702702703
sS'dire'
p15
F0.05405405405405406
sS'vast'
p16
F0.02702702702702703
sS'acute'
p17
F0.02702702702702703
sS'great'
p18
F0.02702702702702703
sS'dangerous'
p19
F0.05405405405405406
sS'terrible'
p20
F0.02702702702702703
sS'large'
p21
F0.02702702702702703
sS'severe'
p22
F0.08108108108108109
sS'greatest'
p23
F0.02702702702702703
sS'serious'
p24
F0.08108108108108109
s.