(dp0
S'strengthened'
p1
F0.007042253521126761
sS'taller'
p2
F0.02112676056338028
sS'strengthening'
p3
F0.007042253521126761
sS'broader'
p4
F0.007042253521126761
sS'tougher'
p5
F0.007042253521126761
sS'increasingly'
p6
F0.007042253521126761
sS'harder'
p7
F0.014084507042253521
sS'over'
p8
F0.014084507042253521
sS'anymore'
p9
F0.02112676056338028
sS'major'
p10
F0.007042253521126761
sS'majeure'
p11
F0.028169014084507043
sS'aggravated'
p12
F0.007042253521126761
sS'enlarged'
p13
F0.02112676056338028
sS'substantial'
p14
F0.007042253521126761
sS'warmer'
p15
F0.007042253521126761
sS'farther'
p16
F0.014084507042253521
sS'enhanced'
p17
F0.014084507042253521
sS'wider'
p18
F0.035211267605633804
sS'further'
p19
F0.014084507042253521
sS'increased'
p20
F0.035211267605633804
sS'even'
p21
F0.007042253521126761
sS'additional'
p22
F0.02112676056338028
sS'widest'
p23
F0.014084507042253521
sS'ever-increasing'
p24
F0.007042253521126761
sS'tremendous'
p25
F0.007042253521126761
sS'less'
p26
F0.007042253521126761
sS'brighter'
p27
F0.007042253521126761
sS'much'
p28
F0.007042253521126761
sS'largest'
p29
F0.035211267605633804
sS'biggest'
p30
F0.028169014084507043
sS'increasing'
p31
F0.014084507042253521
sS'more'
p32
F0.04225352112676056
sS'worse'
p33
F0.028169014084507043
sS'deeper'
p34
F0.014084507042253521
sS'far'
p35
F0.007042253521126761
sS'big'
p36
F0.007042253521126761
sS'broadest'
p37
F0.007042253521126761
sS'enormous'
p38
F0.007042253521126761
sS'most'
p39
F0.014084507042253521
sS'enhancing'
p40
F0.007042253521126761
sS'significant'
p41
F0.007042253521126761
sS'highest'
p42
F0.028169014084507043
sS'considerable'
p43
F0.007042253521126761
sS'bigger'
p44
F0.04225352112676056
sS'longer'
p45
F0.007042253521126761
sS'wide-ranging'
p46
F0.007042253521126761
sS'great'
p47
F0.014084507042253521
sS'for'
p48
F0.02112676056338028
sS'older'
p49
F0.028169014084507043
sS'upper'
p50
F0.014084507042253521
sS'larger'
p51
F0.04225352112676056
sS'stronger'
p52
F0.035211267605633804
sS'strongest'
p53
F0.02112676056338028
sS'greater'
p54
F0.035211267605633804
sS'large'
p55
F0.007042253521126761
sS'addition'
p56
F0.007042253521126761
sS'louder'
p57
F0.007042253521126761
sS'greatest'
p58
F0.035211267605633804
sS'growing'
p59
F0.014084507042253521
sS'higher'
p60
F0.035211267605633804
s.