(dp0
S'beautiful'
p1
F0.05333333333333334
sS'cute'
p2
F0.04
sS'breathtaking'
p3
F0.013333333333333334
sS'nicer'
p4
F0.013333333333333334
sS'sweet'
p5
F0.04
sS'awesome'
p6
F0.02666666666666667
sS'magnificent'
p7
F0.02666666666666667
sS'fantastic'
p8
F0.013333333333333334
sS'marvelous'
p9
F0.013333333333333334
sS'bright'
p10
F0.013333333333333334
sS'fabulous'
p11
F0.013333333333333334
sS'fine'
p12
F0.02666666666666667
sS'perfect'
p13
F0.013333333333333334
sS'superb'
p14
F0.013333333333333334
sS'terrific'
p15
F0.013333333333333334
sS'amazing'
p16
F0.013333333333333334
sS'wonderful'
p17
F0.04
sS'attractive'
p18
F0.04
sS'pretty'
p19
F0.04
sS'gorgeous'
p20
F0.04
sS'cuter'
p21
F0.013333333333333334
sS'lovely'
p22
F0.04
sS'admirable'
p23
F0.013333333333333334
sS'prettier'
p24
F0.013333333333333334
sS'easy'
p25
F0.013333333333333334
sS'spectacular'
p26
F0.013333333333333334
sS'charming'
p27
F0.04
sS'good-looking'
p28
F0.02666666666666667
sS'dreamy'
p29
F0.013333333333333334
sS'purty'
p30
F0.013333333333333334
sS'sexy'
p31
F0.02666666666666667
sS'handsome'
p32
F0.02666666666666667
sS'great'
p33
F0.04
sS'splendid'
p34
F0.013333333333333334
sS'marvellous'
p35
F0.013333333333333334
sS'adorable'
p36
F0.04
sS'good-iooking'
p37
F0.013333333333333334
sS'cool'
p38
F0.013333333333333334
sS'ugly'
p39
F0.013333333333333334
sS'delightful'
p40
F0.013333333333333334
sS'sweeter'
p41
F0.013333333333333334
sS'nice'
p42
F0.04
sS'brilliant'
p43
F0.013333333333333334
sS'exquisite'
p44
F0.013333333333333334
s.