(dp0
S'satisfactory'
p1
F0.006756756756756757
sS'overwhelmed'
p2
F0.006756756756756757
sS'delighted'
p3
F0.060810810810810814
sS'cheerful'
p4
F0.006756756756756757
sS'as'
p5
F0.033783783783783786
sS'grateful'
p6
F0.02702702702702703
sS'fine'
p7
F0.006756756756756757
sS'pleased'
p8
F0.06756756756756757
sS'terrific'
p9
F0.006756756756756757
sS'euphoric'
p10
F0.013513513513513514
sS'unhappy'
p11
F0.05405405405405406
sS'fortunate'
p12
F0.04054054054054054
sS'content'
p13
F0.04054054054054054
sS'amazing'
p14
F0.006756756756756757
sS'wonderful'
p15
F0.02702702702702703
sS'unfortunate'
p16
F0.013513513513513514
sS'lovely'
p17
F0.013513513513513514
sS'excited'
p18
F0.013513513513513514
sS'nice'
p19
F0.04054054054054054
sS'okay'
p20
F0.006756756756756757
sS'psyched'
p21
F0.006756756756756757
sS'successful'
p22
F0.006756756756756757
sS'welcome'
p23
F0.033783783783783786
sS'lucky'
p24
F0.02702702702702703
sS'blessed'
p25
F0.006756756756756757
sS'pleasant'
p26
F0.013513513513513514
sS'mad'
p27
F0.006756756756756757
sS'merry'
p28
F0.006756756756756757
sS'happiest'
p29
F0.02702702702702703
sS'glad'
p30
F0.04054054054054054
sS'complacent'
p31
F0.006756756756756757
sS'great'
p32
F0.013513513513513514
sS'happier'
p33
F0.07432432432432433
sS'allright'
p34
F0.006756756756756757
sS'proud'
p35
F0.02702702702702703
sS'satisfied'
p36
F0.12837837837837837
sS'alright'
p37
F0.006756756756756757
sS'happy'
p38
F0.060810810810810814
sS'commendable'
p39
F0.006756756756756757
s.