(dp0
S'stringent'
p1
F0.08333333333333333
sS'tough'
p2
F0.16666666666666666
sS'harsh'
p3
F0.08333333333333333
sS'hard'
p4
F0.08333333333333333
sS'arduous'
p5
F0.08333333333333333
sS'heavy-handed'
p6
F0.08333333333333333
sS'stark'
p7
F0.08333333333333333
sS'strict'
p8
F0.08333333333333333
sS'severe'
p9
F0.08333333333333333
sS'rigorous'
p10
F0.08333333333333333
sS'difficult'
p11
F0.08333333333333333
s.