(dp0
S'heavy'
p1
F0.15555555555555556
sS'tough'
p2
F0.044444444444444446
sS'high'
p3
F0.022222222222222223
sS'substantial'
p4
F0.022222222222222223
sS'formidable'
p5
F0.022222222222222223
sS'cumbersome'
p6
F0.022222222222222223
sS'huge'
p7
F0.044444444444444446
sS'onerous'
p8
F0.022222222222222223
sS'harsh'
p9
F0.044444444444444446
sS'burdensome'
p10
F0.044444444444444446
sS'considerable'
p11
F0.022222222222222223
sS'immense'
p12
F0.044444444444444446
sS'heavier'
p13
F0.08888888888888889
sS'disproportionate'
p14
F0.022222222222222223
sS'difficult'
p15
F0.022222222222222223
sS'enormous'
p16
F0.044444444444444446
sS'severe'
p17
F0.044444444444444446
sS'significant'
p18
F0.022222222222222223
sS'intense'
p19
F0.022222222222222223
sS'vast'
p20
F0.044444444444444446
sS'great'
p21
F0.044444444444444446
sS'large'
p22
F0.044444444444444446
sS'insurmountable'
p23
F0.022222222222222223
sS'massive'
p24
F0.044444444444444446
sS'serious'
p25
F0.022222222222222223
s.