(dp0
S'first-rate'
p1
F0.14285714285714285
sS'high-quality'
p2
F0.14285714285714285
sS'splendid'
p3
F0.14285714285714285
sS'outstanding'
p4
F0.14285714285714285
sS'magnificent'
p5
F0.14285714285714285
sS'wonderful'
p6
F0.14285714285714285
sS'excellent'
p7
F0.14285714285714285
s.