(dp0
S'fair'
p1
F0.05154639175257732
sS'sincere'
p2
F0.041237113402061855
sS'sincerely'
p3
F0.010309278350515464
sS'insincere'
p4
F0.010309278350515464
sS'open'
p5
F0.030927835051546393
sS'fairer'
p6
F0.010309278350515464
sS'genuine'
p7
F0.010309278350515464
sS'franco'
p8
F0.010309278350515464
sS'decent'
p9
F0.07216494845360824
sS'honorable'
p10
F0.010309278350515464
sS'blunt'
p11
F0.041237113402061855
sS'straightforward'
p12
F0.041237113402061855
sS'frank'
p13
F0.061855670103092786
sS'candid'
p14
F0.041237113402061855
sS'upfront'
p15
F0.030927835051546393
sS'true'
p16
F0.010309278350515464
sS'legit'
p17
F0.041237113402061855
sS'respectable'
p18
F0.07216494845360824
sS'truthful'
p19
F0.07216494845360824
sS'straight'
p20
F0.05154639175257732
sS'dishonest'
p21
F0.08247422680412371
sS'honest'
p22
F0.08247422680412371
sS'kosher'
p23
F0.061855670103092786
sS'loyal'
p24
F0.030927835051546393
sS'clean'
p25
F0.020618556701030927
s.