(dp0
S'atrocious'
p1
F0.048
sS'horrific'
p2
F0.048
sS'awesome'
p3
F0.032
sS'creepy'
p4
F0.04
sS'horrendous'
p5
F0.048
sS'messy'
p6
F0.008
sS'miserable'
p7
F0.048
sS'obnoxious'
p8
F0.008
sS'really'
p9
F0.016
sS'dreadful'
p10
F0.048
sS'horrid'
p11
F0.008
sS'disgusting'
p12
F0.04
sS'terrific'
p13
F0.008
sS'horrible'
p14
F0.04
sS'hideous'
p15
F0.048
sS'worse'
p16
F0.008
sS'dorky'
p17
F0.008
sS'odious'
p18
F0.008
sS'worst'
p19
F0.032
sS'dire'
p20
F0.016
sS'awful'
p21
F0.048
sS'gruesome'
p22
F0.048
sS'nasty'
p23
F0.048
sS'frightening'
p24
F0.008
sS'abhorrent'
p25
F0.008
sS'terrible'
p26
F0.048
sS'brutal'
p27
F0.016
sS'appalling'
p28
F0.008
sS'ugly'
p29
F0.048
sS'bad'
p30
F0.032
sS'unreal'
p31
F0.032
sS'shocking'
p32
F0.008
sS'horrifying'
p33
F0.04
sS'ghastly'
p34
F0.048
s.