(dp0
S'sympathetic'
p1
F0.16666666666666666
sS'likable'
p2
F0.16666666666666666
sS'pleasant'
p3
F0.16666666666666666
sS'friendly'
p4
F0.16666666666666666
sS'sociable'
p5
F0.16666666666666666
sS'nice'
p6
F0.16666666666666666
s.