(dp0
S'troublesome'
p1
F0.05555555555555555
sS'embarrassing'
p2
F0.1111111111111111
sS'bothersome'
p3
F0.05555555555555555
sS'awkward'
p4
F0.05555555555555555
sS'humiliating'
p5
F0.05555555555555555
sS'embarrassed'
p6
F0.05555555555555555
sS'distracting'
p7
F0.05555555555555555
sS'degrading'
p8
F0.1111111111111111
sS'uncomfortable'
p9
F0.05555555555555555
sS'demeaning'
p10
F0.1111111111111111
sS'messy'
p11
F0.05555555555555555
sS'disturbing'
p12
F0.05555555555555555
sS'inconvenient'
p13
F0.05555555555555555
sS'annoying'
p14
F0.05555555555555555
sS'weird'
p15
F0.05555555555555555
s.