(dp0
S'thirsty'
p1
F0.20833333333333334
sS'hunger'
p2
F0.25
sS'inexhaustible'
p3
F0.041666666666666664
sS'hungry'
p4
F0.3333333333333333
sS'starved'
p5
F0.041666666666666664
sS'ravenous'
p6
F0.08333333333333333
sS'insatiable'
p7
F0.041666666666666664
s.