(dp0
S'indispensible'
p1
F0.08
sS'necessary'
p2
F0.04
sS'absolutely'
p3
F0.04
sS'indispensable'
p4
F0.08
sS'crucial'
p5
F0.08
sS'inevitable'
p6
F0.08
sS'imperative'
p7
F0.12
sS'vital'
p8
F0.08
sS'compelling'
p9
F0.08
sS'critical'
p10
F0.04
sS'mandatory'
p11
F0.08
sS'compulsory'
p12
F0.04
sS'prerequisite'
p13
F0.08
sS'essential'
p14
F0.08
s.