(dp0
S'available'
p1
F0.046875
sS'detailed'
p2
F0.0390625
sS'poorest'
p3
F0.0546875
sS'-ready'
p4
F0.0078125
sS'worse'
p5
F0.3828125
sS'certified'
p6
F0.0078125
sS'perpetual'
p7
F0.015625
sS'clearer'
p8
F0.0078125
sS'least'
p9
F0.0234375
sS'prepared'
p10
F0.0078125
sS'large'
p11
F0.015625
sS'hurt'
p12
F0.0078125
sS'darker'
p13
F0.0078125
sS'bigger'
p14
F0.1328125
sS'deepest'
p15
F0.0078125
sS'ready'
p16
F0.0078125
sS'induced'
p17
F0.0078125
sS'integrated'
p18
F0.1953125
sS'shortest'
p19
F0.015625
sS'worrying'
p20
F0.0078125
s.