(dp0
S'unsatisfactory'
p1
F0.15384615384615385
sS'inefficient'
p2
F0.07692307692307693
sS'deficient'
p3
F0.15384615384615385
sS'inadequate'
p4
F0.23076923076923078
sS'weak'
p5
F0.07692307692307693
sS'low'
p6
F0.07692307692307693
sS'insufficient'
p7
F0.15384615384615385
sS'incomplete'
p8
F0.07692307692307693
s.