(dp0
S'receivable'
p1
F0.08333333333333333
sS'intolerable'
p2
F0.08333333333333333
sS'inadmissible'
p3
F0.16666666666666666
sS'irrelevant'
p4
F0.08333333333333333
sS'unacceptable'
p5
F0.08333333333333333
sS'invalid'
p6
F0.08333333333333333
sS'admissible'
p7
F0.08333333333333333
sS'untenable'
p8
F0.08333333333333333
sS'impermissible'
p9
F0.08333333333333333
sS'non-compliant'
p10
F0.08333333333333333
sS'inexcusable'
p11
F0.08333333333333333
s.