(dp0
S'unbelievable'
p1
F0.1
sS'incomprehensible'
p2
F0.15
sS'perplexing'
p3
F0.1
sS'puzzling'
p4
F0.1
sS'incredible'
p5
F0.1
sS'inexplicable'
p6
F0.1
sS'understandable'
p7
F0.1
sS'unfathomable'
p8
F0.1
sS'inconceivable'
p9
F0.05
sS'unthinkable'
p10
F0.1
s.