(dp0
S'indispensible'
p1
F0.07692307692307693
sS'paramount'
p2
F0.07692307692307693
sS'indispensable'
p3
F0.15384615384615385
sS'crucial'
p4
F0.15384615384615385
sS'vital'
p5
F0.15384615384615385
sS'imperative'
p6
F0.15384615384615385
sS'essential'
p7
F0.15384615384615385
sS'prerequisite'
p8
F0.07692307692307693
s.