(dp0
S'opposite'
p1
F0.16666666666666666
sS'counter'
p2
F0.16666666666666666
sS'anti-constitutional'
p3
F0.16666666666666666
sS'contrary'
p4
F0.16666666666666666
sS'inconsistent'
p5
F0.16666666666666666
sS'otherwise'
p6
F0.16666666666666666
s.