(dp0
S'inefficient'
p1
F0.16666666666666666
sS'deficient'
p2
F0.16666666666666666
sS'ineffectual'
p3
F0.16666666666666666
sS'ineffective'
p4
F0.16666666666666666
sS'useless'
p5
F0.16666666666666666
sS'unsuccessful'
p6
F0.16666666666666666
s.