(dp0
S'necessarily'
p1
F0.07692307692307693
sS'unavoidable'
p2
F0.15384615384615385
sS'inescapable'
p3
F0.15384615384615385
sS'also'
p4
F0.15384615384615385
sS'likely'
p5
F0.23076923076923078
sS'inevitable'
p6
F0.23076923076923078
s.