(dp0
S'educational'
p1
F0.16666666666666666
sS'enlightening'
p2
F0.08333333333333333
sS'instructive'
p3
F0.16666666666666666
sS'informative'
p4
F0.16666666666666666
sS'tan'
p5
F0.08333333333333333
sS'worth'
p6
F0.3333333333333333
s.