(dp0
S'infrequent'
p1
F0.08333333333333333
sS'rare'
p2
F0.16666666666666666
sS'few'
p3
F0.08333333333333333
sS'scanty'
p4
F0.08333333333333333
sS'uncommon'
p5
F0.08333333333333333
sS'scarcer'
p6
F0.08333333333333333
sS'sparse'
p7
F0.08333333333333333
sS'rarer'
p8
F0.08333333333333333
sS'scant'
p9
F0.08333333333333333
sS'scarce'
p10
F0.16666666666666666
s.