(dp0
S'insane'
p1
F0.07142857142857142
sS'terrific'
p2
F0.07142857142857142
sS'unbelievable'
p3
F0.07142857142857142
sS'incredible'
p4
F0.07142857142857142
sS'staggering'
p5
F0.07142857142857142
sS'awesome'
p6
F0.07142857142857142
sS'astounding'
p7
F0.07142857142857142
sS'fantastic'
p8
F0.07142857142857142
sS'disgusting'
p9
F0.07142857142857142
sS'astonishing'
p10
F0.07142857142857142
sS'amazing'
p11
F0.07142857142857142
sS'-lncredible'
p12
F0.07142857142857142
sS'phenomenal'
p13
F0.07142857142857142
sS'aggravating'
p14
F0.07142857142857142
s.