(dp0
S'unsatisfactory'
p1
F0.16666666666666666
sS'deficient'
p2
F0.16666666666666666
sS'inadequate'
p3
F0.16666666666666666
sS'under-funded'
p4
F0.16666666666666666
sS'insufficient'
p5
F0.16666666666666666
sS'underfunded'
p6
F0.16666666666666666
s.