(dp0
S'interdependent'
p1
F0.16666666666666666
sS'interrelated'
p2
F0.16666666666666666
sS'co-dependent'
p3
F0.3333333333333333
sS'inter-related'
p4
F0.16666666666666666
sS'inter-dependent'
p5
F0.16666666666666666
s.