(dp0
S'co-dependent'
p1
F0.14285714285714285
sS'inter-linked'
p2
F0.14285714285714285
sS'interdependent'
p3
F0.14285714285714285
sS'interrelated'
p4
F0.14285714285714285
sS'inter-related'
p5
F0.14285714285714285
sS'intertwined'
p6
F0.14285714285714285
sS'inter-dependent'
p7
F0.14285714285714285
s.