(dp0
S'heavy'
p1
F0.03125
sS'excessive'
p2
F0.03125
sS'violent'
p3
F0.0625
sS'lively'
p4
F0.03125
sS'tough'
p5
F0.03125
sS'cold'
p6
F0.03125
sS'rough'
p7
F0.03125
sS'overwhelming'
p8
F0.0625
sS'harsh'
p9
F0.03125
sS'intensive'
p10
F0.03125
sS'largest'
p11
F0.03125
sS'unconscionable'
p12
F0.03125
sS'disproportionate'
p13
F0.03125
sS'fierce'
p14
F0.0625
sS'highest'
p15
F0.03125
sS'intense'
p16
F0.09375
sS'stiff'
p17
F0.03125
sS'exaggerated'
p18
F0.03125
sS'stronger'
p19
F0.0625
sS'strongest'
p20
F0.0625
sS'severe'
p21
F0.0625
sS'emotional'
p22
F0.09375
s.