(dp0
S'self-serving'
p1
F0.03333333333333333
sS'interesting'
p2
F0.03333333333333333
sS'concerned'
p3
F0.06666666666666667
sS'anxious'
p4
F0.03333333333333333
sS'also'
p5
F0.06666666666666667
sS'interested'
p6
F0.1
sS'so'
p7
F0.2
sS'involved'
p8
F0.26666666666666666
sS'curious'
p9
F0.03333333333333333
sS'keen'
p10
F0.03333333333333333
sS'really'
p11
F0.13333333333333333
s.