(dp0
S'unbearable'
p1
F0.047619047619047616
sS'inconceivable'
p2
F0.047619047619047616
sS'unsustainable'
p3
F0.047619047619047616
sS'inadmissible'
p4
F0.047619047619047616
sS'insupportable'
p5
F0.047619047619047616
sS'unthinkable'
p6
F0.047619047619047616
sS'acceptable'
p7
F0.047619047619047616
sS'reprehensible'
p8
F0.047619047619047616
sS'unacceptable'
p9
F0.047619047619047616
sS'appalling'
p10
F0.047619047619047616
sS'outrageous'
p11
F0.047619047619047616
sS'untenable'
p12
F0.047619047619047616
sS'tenable'
p13
F0.047619047619047616
sS'reasonable'
p14
F0.047619047619047616
sS'defensible'
p15
F0.047619047619047616
sS'unconscionable'
p16
F0.047619047619047616
sS'intolerable'
p17
F0.09523809523809523
sS'justifiable'
p18
F0.047619047619047616
sS'indefensible'
p19
F0.047619047619047616
sS'for'
p20
F0.047619047619047616
s.