(dp0
S'fascinating'
p1
F0.16666666666666666
sS'riveting'
p2
F0.16666666666666666
sS'interesting'
p3
F0.16666666666666666
sS'stunning'
p4
F0.16666666666666666
sS'amazing'
p5
F0.16666666666666666
sS'exciting'
p6
F0.16666666666666666
s.