(dp0
S'unconventional'
p1
F0.125
sS'irregular'
p2
F0.125
sS'inappropriate'
p3
F0.125
sS'regrettable'
p4
F0.125
sS'terrible'
p5
F0.125
sS'inconsistent'
p6
F0.125
sS'unfortunate'
p7
F0.125
sS'annoying'
p8
F0.125
s.