(dp0
S'delighted'
p1
F0.16666666666666666
sS'blessed'
p2
F0.16666666666666666
sS'fortunate'
p3
F0.16666666666666666
sS'grateful'
p4
F0.16666666666666666
sS'happiest'
p5
F0.16666666666666666
sS'pleased'
p6
F0.16666666666666666
s.