(dp0
S'unwarranted'
p1
F0.047619047619047616
sS'well-founded'
p2
F0.047619047619047616
sS'justifiable'
p3
F0.2857142857142857
sS'unjustified'
p4
F0.047619047619047616
sS'legitimate'
p5
F0.14285714285714285
sS'defensible'
p6
F0.047619047619047616
sS'justified'
p7
F0.3333333333333333
sS'documented'
p8
F0.047619047619047616
s.