(dp0
S'sensible'
p1
F0.16666666666666666
sS'reasonnable'
p2
F0.16666666666666666
sS'unreasonable'
p3
F0.16666666666666666
sS'sane'
p4
F0.16666666666666666
sS'reasonable'
p5
F0.16666666666666666
sS'manageable'
p6
F0.16666666666666666
s.