(dp0
S'insane'
p1
F0.01818181818181818
sS'non-existent'
p2
F0.03636363636363636
sS'small-time'
p3
F0.05454545454545454
sS'ludicrous'
p4
F0.01818181818181818
sS'nonsense'
p5
F0.01818181818181818
sS'preposterous'
p6
F0.01818181818181818
sS'zero'
p7
F0.01818181818181818
sS'dumb'
p8
F0.03636363636363636
sS'miserable'
p9
F0.03636363636363636
sS'helpless'
p10
F0.05454545454545454
sS'cheesy'
p11
F0.01818181818181818
sS'worthless'
p12
F0.05454545454545454
sS'lame'
p13
F0.03636363636363636
sS'childish'
p14
F0.01818181818181818
sS'grotesque'
p15
F0.01818181818181818
sS'invalid'
p16
F0.01818181818181818
sS'useless'
p17
F0.05454545454545454
sS'pitiful'
p18
F0.01818181818181818
sS'merciful'
p19
F0.01818181818181818
sS'pathetic'
p20
F0.05454545454545454
sS'sloppy'
p21
F0.05454545454545454
sS'ridiculous'
p22
F0.01818181818181818
sS'sappy'
p23
F0.01818181818181818
sS'awful'
p24
F0.01818181818181818
sS'laughable'
p25
F0.01818181818181818
sS'boring'
p26
F0.01818181818181818
sS'terrible'
p27
F0.05454545454545454
sS'lousy'
p28
F0.01818181818181818
sS'stupid'
p29
F0.01818181818181818
sS'silly'
p30
F0.01818181818181818
sS'hopeless'
p31
F0.05454545454545454
sS'retarded'
p32
F0.03636363636363636
sS'pitiable'
p33
F0.01818181818181818
sS'foolish'
p34
F0.01818181818181818
s.