(dp0
S'long-lived'
p1
F0.14285714285714285
sS'long-lasting'
p2
F0.14285714285714285
sS'long'
p3
F0.14285714285714285
sS'long-standing'
p4
F0.14285714285714285
sS'long-term'
p5
F0.14285714285714285
sS'longer-term'
p6
F0.14285714285714285
sS'lasting'
p7
F0.14285714285714285
s.