(dp0
S'lengthy'
p1
F0.18181818181818182
sS'longer'
p2
F0.09090909090909091
sS'pushy'
p3
F0.09090909090909091
sS'unreasonable'
p4
F0.09090909090909091
sS'long'
p5
F0.09090909090909091
sS'time-consuming'
p6
F0.09090909090909091
sS'extensive'
p7
F0.09090909090909091
sS'entirely'
p8
F0.18181818181818182
sS'elongated'
p9
F0.09090909090909091
s.