(dp0
S'lowest'
p1
F0.058823529411764705
sS'shorter'
p2
F0.08823529411764706
sS'lower'
p3
F0.058823529411764705
sS'smaller'
p4
F0.08823529411764706
sS'slower'
p5
F0.058823529411764705
sS'smallest'
p6
F0.058823529411764705
sS'less'
p7
F0.08823529411764706
sS'narrower'
p8
F0.058823529411764705
sS'fewer'
p9
F0.058823529411764705
sS'poorer'
p10
F0.058823529411764705
sS'lesser'
p11
F0.058823529411764705
sS'weaker'
p12
F0.058823529411764705
sS'least'
p13
F0.058823529411764705
sS'minor'
p14
F0.058823529411764705
sS'inferior'
p15
F0.058823529411764705
sS'minimal'
p16
F0.029411764705882353
s.