(dp0
S'lowest'
p1
F0.058823529411764705
sS'lower'
p2
F0.058823529411764705
sS'sure'
p3
F0.23529411764705882
sS'greater'
p4
F0.058823529411764705
sS'high'
p5
F0.17647058823529413
sS'above'
p6
F0.058823529411764705
sS'go'
p7
F0.11764705882352941
sS'highest'
p8
F0.11764705882352941
sS'higher'
p9
F0.11764705882352941
s.