(dp0
S'real'
p1
F0.025
sS'comparable'
p2
F0.025
sS'justification'
p3
F0.025
sS'like'
p4
F0.05
sS'just'
p5
F0.1
sS'rather'
p6
F0.025
sS'exactly'
p7
F0.025
sS'move'
p8
F0.025
sS'some'
p9
F0.1
sS'different'
p10
F0.025
sS'same'
p11
F0.15
sS'actually'
p12
F0.025
sS'being'
p13
F0.1
sS'reaily'
p14
F0.025
sS'so'
p15
F0.025
sS'iike'
p16
F0.05
sS'awful'
p17
F0.025
sS'pretty'
p18
F0.025
sS'similar'
p19
F0.05
sS'directly'
p20
F0.1
s.