(dp0
S'living'
p1
F0.14285714285714285
sS'vivid'
p2
F0.14285714285714285
sS'alive'
p3
F0.14285714285714285
sS'live'
p4
F0.14285714285714285
sS'lively'
p5
F0.14285714285714285
sS'quick'
p6
F0.14285714285714285
sS'strong'
p7
F0.14285714285714285
s.