(dp0
S'real'
p1
F0.1111111111111111
sS'again'
p2
F0.1111111111111111
sS'temporarily'
p3
F0.1111111111111111
sS'reai'
p4
F0.1111111111111111
sS'alive'
p5
F0.1111111111111111
sS'wholly'
p6
F0.3333333333333333
sS'lively'
p7
F0.1111111111111111
s.