(dp0
S'excessive'
p1
F0.010101010101010102
sS'long-lived'
p2
F0.020202020202020204
sS'soon'
p3
F0.010101010101010102
sS'unreasonable'
p4
F0.010101010101010102
sS'formidable'
p5
F0.010101010101010102
sS'huge'
p6
F0.010101010101010102
sS'lengthy'
p7
F0.09090909090909091
sS'incredible'
p8
F0.010101010101010102
sS'tremendous'
p9
F0.010101010101010102
sS'phenomenal'
p10
F0.010101010101010102
sS'hot'
p11
F0.010101010101010102
sS'long'
p12
F0.06060606060606061
sS'by'
p13
F0.030303030303030304
sS'immense'
p14
F0.010101010101010102
sS'enough'
p15
F0.010101010101010102
sS'long-standing'
p16
F0.050505050505050504
sS'time-consuming'
p17
F0.08080808080808081
sS'adequate'
p18
F0.010101010101010102
sS'difficult'
p19
F0.04040404040404041
sS'extensive'
p20
F0.020202020202020204
sS'ample'
p21
F0.010101010101010102
sS'great'
p22
F0.020202020202020204
sS'sufficient'
p23
F0.010101010101010102
sS'long-lasting'
p24
F0.010101010101010102
sS'longest'
p25
F0.010101010101010102
sS'considerable'
p26
F0.020202020202020204
sS'vast'
p27
F0.010101010101010102
sS'enormous'
p28
F0.020202020202020204
sS'longer'
p29
F0.25252525252525254
sS'prolonged'
p30
F0.010101010101010102
sS'large'
p31
F0.010101010101010102
sS'so'
p32
F0.010101010101010102
sS'massive'
p33
F0.010101010101010102
sS'long-term'
p34
F0.06060606060606061
sS'insufficient'
p35
F0.010101010101010102
sS'elongated'
p36
F0.010101010101010102
s.