(dp0
S'younger'
p1
F0.0625
sS'deeper'
p2
F0.0625
sS'good-iooking'
p3
F0.0625
sS'exactly'
p4
F0.3125
sS'operational'
p5
F0.125
sS'bad'
p6
F0.0625
sS'with'
p7
F0.0625
sS'by'
p8
F0.1875
sS'wicked'
p9
F0.0625
s.