(dp0
S'efficacious'
p1
F0.04
sS'effective'
p2
F0.04
sS'crowded'
p3
F0.04
sS'efficient'
p4
F0.04
sS'clear'
p5
F0.08
sS'powerful'
p6
F0.08
sS'brilliant'
p7
F0.08
sS'louder'
p8
F0.16
sS'very'
p9
F0.24
sS'loud'
p10
F0.16
sS'noisy'
p11
F0.04
s.