(dp0
S'above-mentioned'
p1
F0.10526315789473684
sS'above'
p2
F0.15789473684210525
sS'formerly'
p3
F0.05263157894736842
sS'previously'
p4
F0.05263157894736842
sS'over'
p5
F0.05263157894736842
sS'earlier'
p6
F0.05263157894736842
sS'question'
p7
F0.05263157894736842
sS'herein'
p8
F0.05263157894736842
sS'supra'
p9
F0.05263157894736842
sS'aforesaid'
p10
F0.10526315789473684
sS'listed'
p11
F0.05263157894736842
sS'aforementioned'
p12
F0.10526315789473684
sS'mentioned'
p13
F0.05263157894736842
sS'issue'
p14
F0.05263157894736842
s.