(dp0
S'beautiful'
p1
F0.045454545454545456
sS'cute'
p2
F0.045454545454545456
sS'fantastic'
p3
F0.045454545454545456
sS'nicer'
p4
F0.022727272727272728
sS'sweet'
p5
F0.045454545454545456
sS'awesome'
p6
F0.022727272727272728
sS'fancy'
p7
F0.022727272727272728
sS'marvelous'
p8
F0.022727272727272728
sS'thoughtful'
p9
F0.022727272727272728
sS'flattering'
p10
F0.022727272727272728
sS'perfect'
p11
F0.022727272727272728
sS'fascinating'
p12
F0.022727272727272728
sS'incredible'
p13
F0.045454545454545456
sS'interesting'
p14
F0.022727272727272728
sS'superb'
p15
F0.022727272727272728
sS'terrific'
p16
F0.045454545454545456
sS'amazing'
p17
F0.022727272727272728
sS'wonderful'
p18
F0.045454545454545456
sS'pretty'
p19
F0.022727272727272728
sS'exhilarating'
p20
F0.022727272727272728
sS'lovely'
p21
F0.045454545454545456
sS'friendly'
p22
F0.022727272727272728
sS'nice'
p23
F0.045454545454545456
sS'unbelievable'
p24
F0.022727272727272728
sS'handsome'
p25
F0.022727272727272728
sS'great'
p26
F0.045454545454545456
sS'passionate'
p27
F0.022727272727272728
sS'brilliant'
p28
F0.045454545454545456
sS'cool'
p29
F0.045454545454545456
sS'neat'
p30
F0.045454545454545456
sS'complimentary'
p31
F0.022727272727272728
s.