(dp0
S'absent'
p1
F0.2
sS'non-existent'
p2
F0.2
sS'lacking'
p3
F0.13333333333333333
sS'practically'
p4
F0.06666666666666667
sS'fully'
p5
F0.06666666666666667
sS'nonexistent'
p6
F0.13333333333333333
sS'wholly'
p7
F0.06666666666666667
sS'completely'
p8
F0.06666666666666667
sS'entirely'
p9
F0.06666666666666667
s.