(dp0
S'above-mentioned'
p1
F0.09090909090909091
sS'aforementioned'
p2
F0.09090909090909091
sS'opposite'
p3
F0.09090909090909091
sS'unlawful'
p4
F0.09090909090909091
sS'counter'
p5
F0.09090909090909091
sS'anti-constitutional'
p6
F0.09090909090909091
sS'contrary'
p7
F0.09090909090909091
sS'inconsistent'
p8
F0.09090909090909091
sS'above'
p9
F0.09090909090909091
sS'noted'
p10
F0.09090909090909091
sS'otherwise'
p11
F0.09090909090909091
s.