(dp0
S'committed'
p1
F0.018276762402088774
sS'herein'
p2
F0.0026109660574412533
sS'softer'
p3
F0.005221932114882507
sS'done'
p4
F0.015665796344647518
sS'daily'
p5
F0.010443864229765013
sS'hereto'
p6
F0.0026109660574412533
sS'ready'
p7
F0.0026109660574412533
sS'slimmer'
p8
F0.0026109660574412533
sS'linked'
p9
F0.0026109660574412533
sS'best'
p10
F0.0026109660574412533
sS'even'
p11
F0.0026109660574412533
sS'late'
p12
F0.0026109660574412533
sS'accepted'
p13
F0.018276762402088774
sS'built'
p14
F0.007832898172323759
sS'there'
p15
F0.0026109660574412533
sS'young'
p16
F0.005221932114882507
sS'better'
p17
F0.0026109660574412533
sS'exempt'
p18
F0.0026109660574412533
sS'more'
p19
F0.804177545691906
sS'non'
p20
F0.020887728459530026
sS'good'
p21
F0.0026109660574412533
sS'around'
p22
F0.0026109660574412533
sS'hereby'
p23
F0.0026109660574412533
sS'here'
p24
F0.0026109660574412533
sS'prepared'
p25
F0.0026109660574412533
sS'explained'
p26
F0.005221932114882507
sS'-ready'
p27
F0.0026109660574412533
sS'now'
p28
F0.0026109660574412533
sS'lower'
p29
F0.02610966057441253
sS'off'
p30
F0.0026109660574412533
sS'well'
p31
F0.0026109660574412533
sS'redundant'
p32
F0.0026109660574412533
sS'american'
p33
F0.007832898172323759
s.