(dp0
S'infrequent'
p1
F0.05263157894736842
sS'commonplace'
p2
F0.10526315789473684
sS'natural'
p3
F0.05263157894736842
sS'naturalistic'
p4
F0.05263157894736842
sS'prevalent'
p5
F0.10526315789473684
sS'recurrent'
p6
F0.05263157894736842
sS'every'
p7
F0.21052631578947367
sS'common'
p8
F0.10526315789473684
sS'inherent'
p9
F0.05263157894736842
sS'spontaneous'
p10
F0.05263157894736842
sS'casual'
p11
F0.05263157894736842
sS'frequent'
p12
F0.05263157894736842
sS'naturally'
p13
F0.05263157894736842
s.