(dp0
S'perfect'
p1
F0.02702702702702703
sS'well-done'
p2
F0.02702702702702703
sS'lovely'
p3
F0.02702702702702703
sS'marvelous'
p4
F0.02702702702702703
sS'awesome'
p5
F0.02702702702702703
sS'some'
p6
F0.05405405405405406
sS'same'
p7
F0.05405405405405406
sS'superb'
p8
F0.02702702702702703
sS'terrific'
p9
F0.02702702702702703
sS'flawless'
p10
F0.02702702702702703
sS'recommended'
p11
F0.05405405405405406
sS'wonderful'
p12
F0.02702702702702703
sS'in'
p13
F0.43243243243243246
sS'memorable'
p14
F0.05405405405405406
sS'impeccable'
p15
F0.02702702702702703
sS'fine'
p16
F0.05405405405405406
sS'nice'
p17
F0.02702702702702703
s.