(dp0
S'beautiful'
p1
F0.007194244604316547
sS'right'
p2
F0.007194244604316547
sS'beautifui'
p3
F0.007194244604316547
sS'nessessary'
p4
F0.007194244604316547
sS'awesome'
p5
F0.014388489208633094
sS'marvelous'
p6
F0.007194244604316547
sS'tasty'
p7
F0.007194244604316547
sS'horrendous'
p8
F0.007194244604316547
sS'a-okay'
p9
F0.014388489208633094
sS'fine'
p10
F0.02158273381294964
sS'best'
p11
F0.03597122302158273
sS'perfect'
p12
F0.11510791366906475
sS'terrific'
p13
F0.014388489208633094
sS'incredible'
p14
F0.007194244604316547
sS'saved'
p15
F0.007194244604316547
sS'disgusting'
p16
F0.007194244604316547
sS'fast'
p17
F0.007194244604316547
sS'better'
p18
F0.007194244604316547
sS'amazing'
p19
F0.007194244604316547
sS'wonderful'
p20
F0.014388489208633094
sS'okey-dokey'
p21
F0.007194244604316547
sS'pretty'
p22
F0.007194244604316547
sS'gorgeous'
p23
F0.007194244604316547
sS'okey'
p24
F0.007194244604316547
sS'sorry'
p25
F0.007194244604316547
sS'lovely'
p26
F0.014388489208633094
sS'correct'
p27
F0.007194244604316547
sS'wicked'
p28
F0.007194244604316547
sS'good'
p29
F0.08633093525179857
sS'okay'
p30
F0.050359712230215826
sS'bad-looking'
p31
F0.007194244604316547
sS'sorr'
p32
F0.007194244604316547
sS'normal'
p33
F0.007194244604316547
sS'horrible'
p34
F0.014388489208633094
sS'agreement'
p35
F0.007194244604316547
sS'well-done'
p36
F0.02158273381294964
sS'properly'
p37
F0.007194244604316547
sS's-sorry'
p38
F0.007194244604316547
sS'too'
p39
F0.04316546762589928
sS'rigght'
p40
F0.007194244604316547
sS'awful'
p41
F0.007194244604316547
sS'necessary'
p42
F0.007194244604316547
sS'nasty'
p43
F0.007194244604316547
sS'exciting'
p44
F0.02877697841726619
sS'with'
p45
F0.04316546762589928
sS'allright'
p46
F0.02158273381294964
sS'great'
p47
F0.007194244604316547
sS'horrifying'
p48
F0.007194244604316547
sS'ok'
p49
F0.06474820143884892
sS'like'
p50
F0.014388489208633094
sS'dreadful'
p51
F0.007194244604316547
sS'well'
p52
F0.007194244604316547
sS'terrible'
p53
F0.007194244604316547
sS'outrageous'
p54
F0.007194244604316547
sS'bad'
p55
F0.007194244604316547
sS'dirty'
p56
F0.007194244604316547
sS'alright'
p57
F0.050359712230215826
sS'nice'
p58
F0.014388489208633094
sS'well-received'
p59
F0.02158273381294964
sS'typical'
p60
F0.007194244604316547
s.