(dp0
S'presently'
p1
F0.07142857142857142
sS'outstanding'
p2
F0.07142857142857142
sS'in-progress'
p3
F0.07142857142857142
sS'currently'
p4
F0.07142857142857142
sS'existing'
p5
F0.07142857142857142
sS'current'
p6
F0.07142857142857142
sS'being'
p7
F0.07142857142857142
sS'ongoing'
p8
F0.14285714285714285
sS'underway'
p9
F0.14285714285714285
sS'active'
p10
F0.07142857142857142
sS'on-going'
p11
F0.07142857142857142
sS'pending'
p12
F0.07142857142857142
s.