(dp0
S'accepted'
p1
F0.1111111111111111
sS'worse'
p2
F0.1111111111111111
sS'apparent'
p3
F0.1111111111111111
sS'enough'
p4
F0.1111111111111111
sS'impossible'
p5
F0.1111111111111111
sS'functioning'
p6
F0.1111111111111111
sS'empty'
p7
F0.3333333333333333
s.