(dp0
S'inclusive'
p1
F0.02857142857142857
sS'further'
p2
F0.05714285714285714
sS'open'
p3
F0.1
sS'opened'
p4
F0.02857142857142857
sS'for'
p5
F0.32857142857142857
sS'unlocked'
p6
F0.02857142857142857
sS'freer'
p7
F0.014285714285714285
sS'wide-open'
p8
F0.014285714285714285
sS'opening-up'
p9
F0.014285714285714285
sS'unanswered'
p10
F0.014285714285714285
sS'taken'
p11
F0.014285714285714285
sS'unrestricted'
p12
F0.014285714285714285
sS'blunt'
p13
F0.014285714285714285
sS'open-ended'
p14
F0.05714285714285714
sS'straightforward'
p15
F0.014285714285714285
sS'frank'
p16
F0.02857142857142857
sS'unoccupied'
p17
F0.014285714285714285
sS'prepared'
p18
F0.014285714285714285
sS'commenced'
p19
F0.014285714285714285
sS'upfront'
p20
F0.014285714285714285
sS'transparent'
p21
F0.02857142857142857
sS'unresolved'
p22
F0.014285714285714285
sS'open-minded'
p23
F0.04285714285714286
sS'receptive'
p24
F0.014285714285714285
sS'honest'
p25
F0.04285714285714286
sS'outstanding'
p26
F0.014285714285714285
sS'transparency'
p27
F0.014285714285714285
s.