(dp0
S'available'
p1
F0.2222222222222222
sS'across-the-board'
p2
F0.05555555555555555
sS'full'
p3
F0.05555555555555555
sS'all-round'
p4
F0.05555555555555555
sS'fully'
p5
F0.05555555555555555
sS'functional'
p6
F0.05555555555555555
sS'operational'
p7
F0.1111111111111111
sS'ideal'
p8
F0.05555555555555555
sS'comprehensively'
p9
F0.05555555555555555
sS'comprehensive'
p10
F0.05555555555555555
sS'optimal'
p11
F0.05555555555555555
sS'functioning'
p12
F0.05555555555555555
sS'all-out'
p13
F0.05555555555555555
sS'operative'
p14
F0.05555555555555555
s.