(dp0
S'then'
p1
F0.0625
sS'for'
p2
F0.0625
sS'assured'
p3
F0.0625
sS'insured'
p4
F0.0625
sS'guaranteed'
p5
F0.0625
sS'hopeful'
p6
F0.1875
sS'confident'
p7
F0.0625
sS'optimistic'
p8
F0.125
sS'over-optimistic'
p9
F0.125
sS'upbeat'
p10
F0.1875
s.