(dp0
S'cute'
p1
F0.09090909090909091
sS'nice'
p2
F0.09090909090909091
sS'iovely'
p3
F0.09090909090909091
sS'sweet'
p4
F0.09090909090909091
sS'charming'
p5
F0.09090909090909091
sS'loverly'
p6
F0.09090909090909091
sS'delightful'
p7
F0.09090909090909091
sS'in'
p8
F0.09090909090909091
sS'lovely'
p9
F0.09090909090909091
sS'adorable'
p10
F0.09090909090909091
sS'handsome'
p11
F0.09090909090909091
s.