(dp0
S'longer'
p1
F0.16666666666666666
sS'longstanding'
p2
F0.16666666666666666
sS'long'
p3
F0.16666666666666666
sS'long-lived'
p4
F0.16666666666666666
sS'long-standing'
p5
F0.16666666666666666
sS'overdue'
p6
F0.16666666666666666
s.