(dp0
S'proprietary'
p1
F0.1111111111111111
sS'state-run'
p2
F0.1111111111111111
sS'state-owned'
p3
F0.1111111111111111
sS'collective'
p4
F0.1111111111111111
sS'co-ownership'
p5
F0.1111111111111111
sS'government-owned'
p6
F0.1111111111111111
sS'private'
p7
F0.1111111111111111
sS'open'
p8
F0.1111111111111111
sS'public'
p9
F0.1111111111111111
s.