(dp0
S'distressing'
p1
F0.038461538461538464
sS'laborious'
p2
F0.038461538461538464
sS'tough'
p3
F0.07692307692307693
sS'worse'
p4
F0.038461538461538464
sS'traumatic'
p5
F0.07692307692307693
sS'frustrating'
p6
F0.038461538461538464
sS'painless'
p7
F0.038461538461538464
sS'terrible'
p8
F0.038461538461538464
sS'sore'
p9
F0.07692307692307693
sS'unpleasant'
p10
F0.038461538461538464
sS'worst'
p11
F0.038461538461538464
sS'uncomfortable'
p12
F0.038461538461538464
sS'horrible'
p13
F0.038461538461538464
sS'awful'
p14
F0.038461538461538464
sS'nasty'
p15
F0.038461538461538464
sS'messy'
p16
F0.038461538461538464
sS'bitter'
p17
F0.038461538461538464
sS'deadly'
p18
F0.15384615384615385
sS'painful'
p19
F0.038461538461538464
sS'difficult'
p20
F0.038461538461538464
s.