(dp0
S'limited'
p1
F0.2
sS'fixated'
p2
F0.03333333333333333
sS'tough'
p3
F0.06666666666666667
sS'challenging'
p4
F0.03333333333333333
sS'special'
p5
F0.03333333333333333
sS'specific'
p6
F0.03333333333333333
sS'unusual'
p7
F0.03333333333333333
sS'distinctive'
p8
F0.03333333333333333
sS'difficult'
p9
F0.06666666666666667
sS'uneasy'
p10
F0.03333333333333333
sS'particular'
p11
F0.03333333333333333
sS'unique'
p12
F0.03333333333333333
sS'peculiar'
p13
F0.03333333333333333
sS'vast'
p14
F0.03333333333333333
sS'tricky'
p15
F0.03333333333333333
sS'great'
p16
F0.03333333333333333
sS'large'
p17
F0.03333333333333333
sS'more'
p18
F0.03333333333333333
sS'determined'
p19
F0.03333333333333333
sS'so'
p20
F0.06666666666666667
sS'determinable'
p21
F0.03333333333333333
sS'stipulated'
p22
F0.03333333333333333
s.