(dp0
S'life-long'
p1
F0.1
sS'perpetual'
p2
F0.1
sS'constant'
p3
F0.1
sS'effective'
p4
F0.1
sS'continuous'
p5
F0.1
sS'ongoing'
p6
F0.1
sS'stable'
p7
F0.1
sS'permanently'
p8
F0.1
sS'on-going'
p9
F0.1
sS'lifelong'
p10
F0.1
s.