(dp0
S'stronger'
p1
F0.16666666666666666
sS'persuasive'
p2
F0.3333333333333333
sS'compelling'
p3
F0.16666666666666666
sS'convincing'
p4
F0.16666666666666666
sS'unconvincing'
p5
F0.16666666666666666
s.