(dp0
S'major'
p1
F0.1
sS'relevant'
p2
F0.1
sS'pertinent'
p3
F0.1
sS'apposite'
p4
F0.1
sS'germane'
p5
F0.1
sS'appropriate'
p6
F0.1
sS'important'
p7
F0.1
sS'main'
p8
F0.1
sS'irrelevant'
p9
F0.1
sS'principal'
p10
F0.1
s.