(dp0
S'sensible'
p1
F0.0625
sS'achievable'
p2
F0.0625
sS'reasonably'
p3
F0.0625
sS'unreasonable'
p4
F0.0625
sS'feasible'
p5
F0.0625
sS'sane'
p6
F0.0625
sS'practicable'
p7
F0.0625
sS'reasonable'
p8
F0.0625
sS'workable'
p9
F0.0625
sS'possible'
p10
F0.0625
sS'attainable'
p11
F0.0625
sS'conceivable'
p12
F0.0625
sS'manageable'
p13
F0.0625
sS'enforceable'
p14
F0.0625
sS'realisable'
p15
F0.0625
sS'reasonnable'
p16
F0.0625
s.