(dp0
S'action-oriented'
p1
F0.16666666666666666
sS'practice-oriented'
p2
F0.16666666666666666
sS'task-oriented'
p3
F0.16666666666666666
sS'practical'
p4
F0.16666666666666666
sS'realistic'
p5
F0.16666666666666666
sS'results-oriented'
p6
F0.16666666666666666
s.