(dp0
S'fragile'
p1
F0.1
sS'uncertain'
p2
F0.1
sS'dire'
p3
F0.05
sS'insecure'
p4
F0.05
sS'shaky'
p5
F0.1
sS'weak'
p6
F0.05
sS'precarious'
p7
F0.1
sS'uneasy'
p8
F0.05
sS'unstable'
p9
F0.1
sS'tenuous'
p10
F0.1
sS'volatile'
p11
F0.15
sS'perilous'
p12
F0.05
s.