(dp0
S'exclusive'
p1
F0.3333333333333333
sS'dominant'
p2
F0.16666666666666666
sS'principale'
p3
F0.08333333333333333
sS'primary'
p4
F0.08333333333333333
sS'paramount'
p5
F0.16666666666666666
sS'main'
p6
F0.08333333333333333
sS'predominant'
p7
F0.08333333333333333
s.