(dp0
S'beautiful'
p1
F0.15841584158415842
sS'cute'
p2
F0.0297029702970297
sS'fantastic'
p3
F0.01485148514851485
sS'cher'
p4
F0.0049504950495049506
sS'overpriced'
p5
F0.0049504950495049506
sS'nicer'
p6
F0.0049504950495049506
sS'sweet'
p7
F0.0297029702970297
sS'awesome'
p8
F0.01485148514851485
sS'magnificent'
p9
F0.009900990099009901
sS'breathtaking'
p10
F0.009900990099009901
sS'lovable'
p11
F0.0049504950495049506
sS'marvelous'
p12
F0.01485148514851485
sS'thoughtful'
p13
F0.009900990099009901
sS'fabulous'
p14
F0.01485148514851485
sS'delicious'
p15
F0.009900990099009901
sS'dainty'
p16
F0.009900990099009901
sS'fine'
p17
F0.01485148514851485
sS'expensive'
p18
F0.0049504950495049506
sS'beautifui'
p19
F0.0049504950495049506
sS'loveable'
p20
F0.0049504950495049506
sS'incredible'
p21
F0.0049504950495049506
sS'lovelier'
p22
F0.024752475247524754
sS'amazing'
p23
F0.009900990099009901
sS'superb'
p24
F0.009900990099009901
sS'terrific'
p25
F0.01485148514851485
sS'glorious'
p26
F0.0049504950495049506
sS'hot'
p27
F0.009900990099009901
sS'wonderful'
p28
F0.01485148514851485
sS'attractive'
p29
F0.024752475247524754
sS'pretty'
p30
F0.0297029702970297
sS'gorgeous'
p31
F0.04950495049504951
sS'cuter'
p32
F0.009900990099009901
sS'darling'
p33
F0.0049504950495049506
sS'lovely'
p34
F0.034653465346534656
sS'adorable'
p35
F0.019801980198019802
sS'nice'
p36
F0.024752475247524754
sS'considerably'
p37
F0.0049504950495049506
sS'cherry'
p38
F0.0049504950495049506
sS'cozy'
p39
F0.0049504950495049506
sS'spectacular'
p40
F0.0297029702970297
sS'masterful'
p41
F0.0049504950495049506
sS'fat'
p42
F0.0049504950495049506
sS'bonnie'
p43
F0.0049504950495049506
sS'pleasant'
p44
F0.009900990099009901
sS'pricey'
p45
F0.0049504950495049506
sS'good-looking'
p46
F0.01485148514851485
sS'purty'
p47
F0.01485148514851485
sS'plenty'
p48
F0.0049504950495049506
sS'phenomenal'
p49
F0.0049504950495049506
sS'mimi'
p50
F0.0049504950495049506
sS'sexy'
p51
F0.0049504950495049506
sS'precious'
p52
F0.0049504950495049506
sS'charming'
p53
F0.019801980198019802
sS'super'
p54
F0.0049504950495049506
sS'handsome'
p55
F0.039603960396039604
sS'great'
p56
F0.01485148514851485
sS'splendid'
p57
F0.009900990099009901
sS'marvellous'
p58
F0.009900990099009901
sS'cool'
p59
F0.009900990099009901
sS'bright'
p60
F0.0049504950495049506
sS'ugly'
p61
F0.019801980198019802
sS'delightful'
p62
F0.009900990099009901
sS'neat'
p63
F0.01485148514851485
sS'prettier'
p64
F0.009900990099009901
sS'sweeter'
p65
F0.0049504950495049506
sS'belle'
p66
F0.0049504950495049506
sS'fun'
p67
F0.009900990099009901
sS'brilliant'
p68
F0.0049504950495049506
sS'exquisite'
p69
F0.009900990099009901
s.