(dp0
S'tricky'
p1
F0.0625
sS'troublesome'
p2
F0.0625
sS'challenging'
p3
F0.125
sS'tougher'
p4
F0.0625
sS'problematic'
p5
F0.25
sS'harder'
p6
F0.0625
sS'hardest'
p7
F0.0625
sS'problematical'
p8
F0.125
sS'troubling'
p9
F0.0625
sS'worse'
p10
F0.0625
sS'difficult'
p11
F0.0625
s.