(dp0
S'profitable'
p1
F0.06818181818181818
sS'affordable'
p2
F0.09090909090909091
sS'worthwhile'
p3
F0.06818181818181818
sS'effective'
p4
F0.022727272727272728
sS'cost-efficient'
p5
F0.09090909090909091
sS'unprofitable'
p6
F0.045454545454545456
sS'uneconomical'
p7
F0.06818181818181818
sS'profitability'
p8
F0.022727272727272728
sS'uneconomic'
p9
F0.045454545454545456
sS'cost-effectively'
p10
F0.06818181818181818
sS'lucrative'
p11
F0.06818181818181818
sS'economical'
p12
F0.06818181818181818
sS'cost-effective'
p13
F0.11363636363636363
sS'costeffective'
p14
F0.045454545454545456
sS'cost-effectiveness'
p15
F0.022727272727272728
sS'viable'
p16
F0.09090909090909091
s.