(dp0
S'deeper'
p1
F0.2
sS'profound'
p2
F0.13333333333333333
sS'in-depth'
p3
F0.13333333333333333
sS'deep'
p4
F0.13333333333333333
sS'underlying'
p5
F0.06666666666666667
sS'thorough'
p6
F0.13333333333333333
sS'deepest'
p7
F0.13333333333333333
sS'unlikely'
p8
F0.06666666666666667
s.