(dp0
S'encouraging'
p1
F0.14285714285714285
sS'bright'
p2
F0.14285714285714285
sS'wonderful'
p3
F0.14285714285714285
sS'optimistic'
p4
F0.14285714285714285
sS'promising'
p5
F0.2857142857142857
sS'exciting'
p6
F0.14285714285714285
s.