(dp0
S'lower'
p1
F0.06666666666666667
sS'smaller'
p2
F0.06666666666666667
sS'greater'
p3
F0.06666666666666667
sS'less'
p4
F0.06666666666666667
sS'stronger'
p5
F0.06666666666666667
sS'larger'
p6
F0.06666666666666667
sS'narrower'
p7
F0.06666666666666667
sS'least'
p8
F0.06666666666666667
sS'strongest'
p9
F0.06666666666666667
sS'fewer'
p10
F0.06666666666666667
sS'profound'
p11
F0.06666666666666667
sS'growing'
p12
F0.06666666666666667
sS'starker'
p13
F0.06666666666666667
sS'increasing'
p14
F0.06666666666666667
sS'greatest'
p15
F0.06666666666666667
s.