(dp0
S'right'
p1
F0.03125
sS'fair'
p2
F0.03125
sS'accurate'
p3
F0.03125
sS'apt'
p4
F0.03125
sS'appropriate'
p5
F0.03125
sS'proper'
p6
F0.0625
sS'fine'
p7
F0.03125
sS'fairer'
p8
F0.03125
sS'best'
p9
F0.03125
sS'opportune'
p10
F0.03125
sS'incorrect'
p11
F0.03125
sS'fit'
p12
F0.03125
sS'decent'
p13
F0.03125
sS'well-formed'
p14
F0.0625
sS'better'
p15
F0.03125
sS'fitting'
p16
F0.03125
sS'justified'
p17
F0.03125
sS'shifty'
p18
F0.03125
sS'correct'
p19
F0.0625
sS'okay'
p20
F0.03125
sS'upright'
p21
F0.03125
sS'true'
p22
F0.03125
sS'cool'
p23
F0.03125
sS'ok'
p24
F0.03125
sS'fully'
p25
F0.03125
sS'expedient'
p26
F0.03125
sS'alright'
p27
F0.03125
sS'advisable'
p28
F0.03125
sS'suitable'
p29
F0.03125
s.