(dp0
S'booming'
p1
F0.125
sS'prosperous'
p2
F0.125
sS'successful'
p3
F0.08333333333333333
sS'buoyant'
p4
F0.041666666666666664
sS'well-off'
p5
F0.041666666666666664
sS'richest'
p6
F0.08333333333333333
sS'richer'
p7
F0.041666666666666664
sS'healthier'
p8
F0.041666666666666664
sS'wealthier'
p9
F0.041666666666666664
sS'rich'
p10
F0.041666666666666664
sS'wealthy'
p11
F0.08333333333333333
sS'robust'
p12
F0.041666666666666664
sS'thriving'
p13
F0.08333333333333333
sS'flourishing'
p14
F0.125
s.