(dp0
S'evident'
p1
F0.14285714285714285
sS'apparent'
p2
F0.14285714285714285
sS'manifest'
p3
F0.14285714285714285
sS'visible'
p4
F0.14285714285714285
sS'obvious'
p5
F0.14285714285714285
sS'self-evident'
p6
F0.14285714285714285
sS'conspicuous'
p7
F0.14285714285714285
s.