(dp0
S'available'
p1
F0.125
sS'opened'
p2
F0.0625
sS'opening'
p3
F0.0625
sS'open-minded'
p4
F0.0625
sS'unlocked'
p5
F0.0625
sS'opening-up'
p6
F0.0625
sS'through'
p7
F0.0625
sS'open'
p8
F0.125
sS'public'
p9
F0.3125
sS'open-ended'
p10
F0.0625
s.