(dp0
S'beautiful'
p1
F0.16666666666666666
sS'nicer'
p2
F0.16666666666666666
sS'better-iooking'
p3
F0.16666666666666666
sS'prettier'
p4
F0.16666666666666666
sS'pretty'
p5
F0.16666666666666666
sS'fairer'
p6
F0.16666666666666666
s.