(dp0
S'worthwhile'
p1
F0.00819672131147541
sS'fair'
p2
F0.040983606557377046
sS'dishonest'
p3
F0.00819672131147541
sS'consistent'
p4
F0.01639344262295082
sS'above-board'
p5
F0.00819672131147541
sS'unfair'
p6
F0.00819672131147541
sS'logical'
p7
F0.040983606557377046
sS'proportionate'
p8
F0.03278688524590164
sS'plausible'
p9
F0.03278688524590164
sS'respectable'
p10
F0.00819672131147541
sS'appropriate'
p11
F0.00819672131147541
sS'unwise'
p12
F0.01639344262295082
sS'unjustified'
p13
F0.00819672131147541
sS'honest'
p14
F0.00819672131147541
sS'fairer'
p15
F0.00819672131147541
sS'best'
p16
F0.00819672131147541
sS'opportune'
p17
F0.00819672131147541
sS'sensible'
p18
F0.06557377049180328
sS'manageable'
p19
F0.04918032786885246
sS'well-founded'
p20
F0.00819672131147541
sS'reasonnable'
p21
F0.040983606557377046
sS'fit'
p22
F0.00819672131147541
sS'decent'
p23
F0.00819672131147541
sS'justifiable'
p24
F0.01639344262295082
sS'better'
p25
F0.00819672131147541
sS'fitting'
p26
F0.00819672131147541
sS'rational'
p27
F0.040983606557377046
sS'judicious'
p28
F0.03278688524590164
sS'justified'
p29
F0.02459016393442623
sS'worth'
p30
F0.00819672131147541
sS'smart'
p31
F0.00819672131147541
sS'affordable'
p32
F0.00819672131147541
sS'good'
p33
F0.01639344262295082
sS'normal'
p34
F0.00819672131147541
sS'cheaper'
p35
F0.01639344262295082
sS'legitimate'
p36
F0.02459016393442623
sS'wiser'
p37
F0.00819672131147541
sS'natural'
p38
F0.00819672131147541
sS'prudent'
p39
F0.00819672131147541
sS'ordinary'
p40
F0.00819672131147541
sS'standard'
p41
F0.00819672131147541
sS'sound'
p42
F0.02459016393442623
sS'wise'
p43
F0.04918032786885246
sS'reasonably'
p44
F0.00819672131147541
sS'well'
p45
F0.00819672131147541
sS'unreasonable'
p46
F0.04918032786885246
sS'feasible'
p47
F0.00819672131147541
sS'kosher'
p48
F0.00819672131147541
sS'sane'
p49
F0.040983606557377046
sS'reasonable'
p50
F0.04918032786885246
sS'expedient'
p51
F0.00819672131147541
sS'advisable'
p52
F0.01639344262295082
sS'usual'
p53
F0.00819672131147541
sS'typical'
p54
F0.00819672131147541
s.