(dp0
S'constant'
p1
F0.16666666666666666
sS'unabated'
p2
F0.16666666666666666
sS'consistent'
p3
F0.16666666666666666
sS'continuous'
p4
F0.16666666666666666
sS'steady'
p5
F0.16666666666666666
sS'persistent'
p6
F0.16666666666666666
s.