(dp0
S'rebatable'
p1
F0.16666666666666666
sS'payable'
p2
F0.16666666666666666
sS'redeemable'
p3
F0.16666666666666666
sS'refundable'
p4
F0.16666666666666666
sS'reimbursable'
p5
F0.16666666666666666
sS'repayable'
p6
F0.16666666666666666
s.