(dp0
S'supportive'
p1
F0.0625
sS'co-dependent'
p2
F0.0625
sS'additional'
p3
F0.0625
sS'complementary'
p4
F0.0625
sS'inter-dependent'
p5
F0.0625
sS'reinforcing'
p6
F0.0625
sS'interdependent'
p7
F0.0625
sS'supplementary'
p8
F0.0625
sS'interrelated'
p9
F0.0625
sS'supplemental'
p10
F0.0625
sS'inter-related'
p11
F0.0625
sS'complements'
p12
F0.0625
sS'synergistic'
p13
F0.0625
sS'complimentary'
p14
F0.0625
sS'solidarity'
p15
F0.0625
sS'interactive'
p16
F0.0625
s.