(dp0
S'closer'
p1
F0.06666666666666667
sS'relevant'
p2
F0.06666666666666667
sS'associated'
p3
F0.06666666666666667
sS'closest'
p4
F0.06666666666666667
sS'inter-linked'
p5
F0.06666666666666667
sS'interdependent'
p6
F0.06666666666666667
sS'together'
p7
F0.06666666666666667
sS'inter-connected'
p8
F0.06666666666666667
sS'relative'
p9
F0.06666666666666667
sS'intertwined'
p10
F0.06666666666666667
sS'interrelated'
p11
F0.06666666666666667
sS'connected'
p12
F0.06666666666666667
sS'related'
p13
F0.06666666666666667
sS'close'
p14
F0.06666666666666667
sS'inter-related'
p15
F0.06666666666666667
s.