(dp0
S'pre-published'
p1
F0.1111111111111111
sS'considered'
p2
F0.2222222222222222
sS'issued'
p3
F0.1111111111111111
sS'earlier'
p4
F0.1111111111111111
sS'prior'
p5
F0.1111111111111111
sS'published'
p6
F0.1111111111111111
sS'recent'
p7
F0.1111111111111111
sS'previous'
p8
F0.1111111111111111
s.