(dp0
S'credible'
p1
F0.14
sS'better'
p2
F0.02
sS'surer'
p3
F0.04
sS'finest'
p4
F0.02
sS'secure'
p5
F0.04
sS'robust'
p6
F0.08
sS'reliable'
p7
F0.12
sS'scalable'
p8
F0.04
sS'trustworthy'
p9
F0.16
sS'brighter'
p10
F0.02
sS'dependable'
p11
F0.08
sS'trusted'
p12
F0.02
sS'unreliable'
p13
F0.1
sS'believable'
p14
F0.02
sS'safer'
p15
F0.02
sS'accurate'
p16
F0.06
sS'best'
p17
F0.02
s.