(dp0
S'insane'
p1
F0.00625
sS'fantastic'
p2
F0.0125
sS'sizeable'
p3
F0.00625
sS'exemplary'
p4
F0.025
sS'remarkable'
p5
F0.04375
sS'noteworthy'
p6
F0.04375
sS'awesome'
p7
F0.00625
sS'magnificent'
p8
F0.05
sS'all'
p9
F0.0125
sS'substantial'
p10
F0.00625
sS'odd'
p11
F0.00625
sS'incredible'
p12
F0.0125
sS'tremendous'
p13
F0.00625
sS'phenomenal'
p14
F0.0125
sS'striking'
p15
F0.0375
sS'superb'
p16
F0.04375
sS'terrific'
p17
F0.00625
sS'amazing'
p18
F0.01875
sS'wonderful'
p19
F0.04375
sS'admirable'
p20
F0.05
sS'unbelievable'
p21
F0.00625
sS'exceptional'
p22
F0.025
sS'staggering'
p23
F0.00625
sS'notable'
p24
F0.05
sS'-lncredible'
p25
F0.00625
sS'extraordinary'
p26
F0.025
sS'dramatic'
p27
F0.04375
sS'significant'
p28
F0.00625
sS'excellent'
p29
F0.04375
sS'surprising'
p30
F0.00625
sS'unique'
p31
F0.00625
sS'considerable'
p32
F0.00625
sS'great'
p33
F0.00625
sS'impressive'
p34
F0.04375
sS'noticeable'
p35
F0.05
sS'brilliant'
p36
F0.05
sS'astounding'
p37
F0.00625
sS'strange'
p38
F0.00625
sS'astonishing'
p39
F0.00625
sS'marvellous'
p40
F0.05
sS'unreal'
p41
F0.00625
sS'outstanding'
p42
F0.0375
sS'greatest'
p43
F0.00625
sS'commendable'
p44
F0.05
s.