(dp0
S'earlier'
p1
F0.05
sS'formerly'
p2
F0.05
sS'previously'
p3
F0.05
sS'official'
p4
F0.05
sS'paid'
p5
F0.5
sS'prior'
p6
F0.05
sS'above'
p7
F0.05
sS'previous'
p8
F0.05
sS'formal'
p9
F0.05
sS'implemented'
p10
F0.05
sS'before'
p11
F0.05
s.