(dp0
S'updated'
p1
F0.5
sS'novel'
p2
F0.07142857142857142
sS'newest'
p3
F0.07142857142857142
sS'revised'
p4
F0.14285714285714285
sS'brand-new'
p5
F0.07142857142857142
sS'new'
p6
F0.07142857142857142
sS'oral'
p7
F0.07142857142857142
s.