(dp0
S'richer'
p1
F0.375
sS'poorer'
p2
F0.041666666666666664
sS'richest'
p3
F0.125
sS'wealthier'
p4
F0.08333333333333333
sS'rich'
p5
F0.125
sS'wealthy'
p6
F0.125
sS'affluent'
p7
F0.08333333333333333
sS'more'
p8
F0.041666666666666664
s.