(dp0
S'insane'
p1
F0.044
sS'crazy'
p2
F0.032
sS'embarrassing'
p3
F0.02
sS'derisory'
p4
F0.004
sS'senseless'
p5
F0.004
sS'ludicrous'
p6
F0.044
sS'nonsense'
p7
F0.044
sS'preposterous'
p8
F0.044
sS'demented'
p9
F0.004
sS'dumb'
p10
F0.024
sS'odd'
p11
F0.004
sS'cheesy'
p12
F0.04
sS'funny'
p13
F0.004
sS'incredible'
p14
F0.004
sS'pointless'
p15
F0.004
sS'childish'
p16
F0.04
sS'grotesque'
p17
F0.044
sS'tiny'
p18
F0.012
sS'daft'
p19
F0.036
sS'nutty'
p20
F0.036
sS'amazing'
p21
F0.004
sS'stupid'
p22
F0.044
sS'poppycock'
p23
F0.032
sS'unbelievable'
p24
F0.004
sS'pathetic'
p25
F0.04
sS'that'
p26
F0.008
sS'ridiculous'
p27
F0.036
sS'laughable'
p28
F0.04
sS'bullshit'
p29
F0.012
sS'ridiculus'
p30
F0.044
sS'lame'
p31
F0.036
sS'unreasonable'
p32
F0.008
sS'idiotic'
p33
F0.004
sS'outrageous'
p34
F0.016
sS'goofy'
p35
F0.036
sS'silly'
p36
F0.048
sS'absurd'
p37
F0.044
sS'wild'
p38
F0.004
sS'foolish'
p39
F0.048
sS'nonsensical'
p40
F0.004
s.