(dp0
S'tough'
p1
F0.125
sS'challenging'
p2
F0.05
sS'tougher'
p3
F0.025
sS'hardworking'
p4
F0.025
sS'as'
p5
F0.1
sS'heated'
p6
F0.025
sS'messy'
p7
F0.025
sS'rough'
p8
F0.075
sS'harsh'
p9
F0.025
sS'suspect'
p10
F0.025
sS'difficult'
p11
F0.05
sS'questionable'
p12
F0.025
sS'hard'
p13
F0.05
sS'rude'
p14
F0.05
sS'warm'
p15
F0.025
sS'nasty'
p16
F0.025
sS'tricky'
p17
F0.05
sS'hardto'
p18
F0.025
sS'rugged'
p19
F0.025
sS'arduous'
p20
F0.025
sS'brutal'
p21
F0.05
sS'ugly'
p22
F0.025
sS'dirty'
p23
F0.025
sS'suspicious'
p24
F0.025
sS'fussy'
p25
F0.025
s.