(dp0
S'across-the-board'
p1
F0.1111111111111111
sS'comprehensive'
p2
F0.1111111111111111
sS'broad-based'
p3
F0.1111111111111111
sS'thorough'
p4
F0.1111111111111111
sS'all-encompassing'
p5
F0.1111111111111111
sS'comprehensively'
p6
F0.1111111111111111
sS'fully'
p7
F0.1111111111111111
sS'exhaustive'
p8
F0.1111111111111111
sS'all-out'
p9
F0.1111111111111111
s.