(dp0
S'working'
p1
F0.5
sS'long'
p2
F0.08333333333333333
sS'long-term'
p3
F0.08333333333333333
sS'running'
p4
F0.08333333333333333
sS'ongoing'
p5
F0.08333333333333333
sS'in-flight'
p6
F0.08333333333333333
sS'small'
p7
F0.08333333333333333
s.