(dp0
S'implacable'
p1
F0.1111111111111111
sS'harsh'
p2
F0.1111111111111111
sS'ruthless'
p3
F0.2222222222222222
sS'vicious'
p4
F0.1111111111111111
sS'brutal'
p5
F0.1111111111111111
sS'cruel'
p6
F0.1111111111111111
sS'stone-cold'
p7
F0.1111111111111111
sS'relentless'
p8
F0.1111111111111111
s.