(dp0
S'on'
p1
F0.11904761904761904
sS'very'
p2
F0.14285714285714285
sS'relative'
p3
F0.023809523809523808
sS'safe'
p4
F0.23809523809523808
sS'unsafe'
p5
F0.023809523809523808
sS'environmentally-friendly'
p6
F0.023809523809523808
sS'late'
p7
F0.09523809523809523
sS'environmental'
p8
F0.023809523809523808
sS'ecological'
p9
F0.023809523809523808
sS'green'
p10
F0.023809523809523808
sS'eco-friendly'
p11
F0.023809523809523808
sS'ecologically'
p12
F0.023809523809523808
sS'safer'
p13
F0.21428571428571427
s.