(dp0
S'major'
p1
F0.16666666666666666
sS'leading'
p2
F0.16666666666666666
sS'primary'
p3
F0.16666666666666666
sS'key'
p4
F0.16666666666666666
sS'main'
p5
F0.16666666666666666
sS'principal'
p6
F0.16666666666666666
s.