(dp0
S'poor'
p1
F0.021739130434782608
sS'unsatisfactory'
p2
F0.13043478260869565
sS'satisfactory'
p3
F0.15217391304347827
sS'satisfying'
p4
F0.10869565217391304
sS'splendid'
p5
F0.021739130434782608
sS'outstanding'
p6
F0.021739130434782608
sS'successful'
p7
F0.043478260869565216
sS'decent'
p8
F0.021739130434782608
sS'desirable'
p9
F0.043478260869565216
sS'satisfied'
p10
F0.021739130434782608
sS'better'
p11
F0.043478260869565216
sS'as'
p12
F0.13043478260869565
sS'excellent'
p13
F0.043478260869565216
sS'disappointing'
p14
F0.021739130434782608
sS'gratifying'
p15
F0.021739130434782608
sS'adequate'
p16
F0.043478260869565216
sS'strong'
p17
F0.043478260869565216
sS'best'
p18
F0.021739130434782608
sS'ideal'
p19
F0.043478260869565216
s.