(dp0
S'a'
p1
F0.19047619047619047
sS'that'
p2
F0.19047619047619047
sS'old-fashioned'
p3
F0.047619047619047616
sS'fewer'
p4
F0.09523809523809523
sS'middle'
p5
F0.2857142857142857
sS'know'
p6
F0.09523809523809523
sS'go'
p7
F0.09523809523809523
s.