(dp0
S'surer'
p1
F0.09375
sS'sure'
p2
F0.09375
sS'secure'
p3
F0.15625
sS'assured'
p4
F0.0625
sS'course'
p5
F0.03125
sS'safest'
p6
F0.0625
sS'insecure'
p7
F0.03125
sS'safe'
p8
F0.0625
sS'impenetrable'
p9
F0.03125
sS'precarious'
p10
F0.03125
sS'clearer'
p11
F0.03125
sS'insured'
p12
F0.03125
sS'ensuring'
p13
F0.03125
sS'ensure'
p14
F0.03125
sS'surrounded'
p15
F0.03125
sS'security'
p16
F0.0625
sS'safer'
p17
F0.09375
sS'secured'
p18
F0.03125
s.