(dp0
S'noticeable'
p1
F0.1
sS'axiomatic'
p2
F0.1
sS'plain'
p3
F0.1
sS'clear'
p4
F0.1
sS'apparent'
p5
F0.1
sS'obvious'
p6
F0.1
sS'evident'
p7
F0.1
sS'self-evident'
p8
F0.1
sS'undisputable'
p9
F0.1
sS'overt'
p10
F0.1
s.