(dp0
S'self-governing'
p1
F0.07142857142857142
sS'self-governed'
p2
F0.07142857142857142
sS'self-employed'
p3
F0.07142857142857142
sS'self-sustainable'
p4
F0.07142857142857142
sS'self-financing'
p5
F0.07142857142857142
sS'self-sustaining'
p6
F0.07142857142857142
sS'self-supporting'
p7
F0.07142857142857142
sS'self-contained'
p8
F0.07142857142857142
sS'independent'
p9
F0.07142857142857142
sS'self-sufficient'
p10
F0.07142857142857142
sS'self-sustained'
p11
F0.07142857142857142
sS'autonomous'
p12
F0.07142857142857142
sS'stand-alone'
p13
F0.07142857142857142
sS'self-reliant'
p14
F0.07142857142857142
s.