(dp0
S'adjusted'
p1
F0.14285714285714285
sS'unresolved'
p2
F0.14285714285714285
sS'straight'
p3
F0.14285714285714285
sS'well-established'
p4
F0.14285714285714285
sS'set'
p5
F0.14285714285714285
sS'well-documented'
p6
F0.14285714285714285
sS'alright'
p7
F0.14285714285714285
s.