(dp0
S'unexpected'
p1
F0.025
sS'astonishing'
p2
F0.05
sS'remarkable'
p3
F0.025
sS'striking'
p4
F0.025
sS'odd'
p5
F0.025
sS'startling'
p6
F0.025
sS'puzzling'
p7
F0.025
sS'incredible'
p8
F0.025
sS'alarming'
p9
F0.025
sS'strange'
p10
F0.025
sS'tragic'
p11
F0.025
sS'terrifying'
p12
F0.025
sS'troubling'
p13
F0.025
sS'surprised'
p14
F0.025
sS'staggering'
p15
F0.025
sS'exactly'
p16
F0.05
sS'astounding'
p17
F0.025
sS'extraordinary'
p18
F0.025
sS'frightening'
p19
F0.025
sS'surprising'
p20
F0.275
sS'noticeable'
p21
F0.025
sS'terrible'
p22
F0.025
sS'outrageous'
p23
F0.025
sS'stunning'
p24
F0.025
sS'shocking'
p25
F0.075
sS'horrifying'
p26
F0.025
s.