(dp0
S'taller'
p1
F0.006944444444444444
sS'smarter'
p2
F0.003472222222222222
sS'remarkable'
p3
F0.006944444444444444
sS'less'
p4
F0.003472222222222222
sS'over'
p5
F0.003472222222222222
sS'valuable'
p6
F0.003472222222222222
sS'far-reaching'
p7
F0.010416666666666666
sS'wide-ranging'
p8
F0.003472222222222222
sS'through'
p9
F0.006944444444444444
sS'broader'
p10
F0.006944444444444444
sS'abundant'
p11
F0.003472222222222222
sS'principal'
p12
F0.006944444444444444
sS'overwhelming'
p13
F0.010416666666666666
sS'widest'
p14
F0.006944444444444444
sS'interesting'
p15
F0.003472222222222222
sS'noteworthy'
p16
F0.010416666666666666
sS'vast'
p17
F0.006944444444444444
sS'plenty'
p18
F0.003472222222222222
sS'extensive'
p19
F0.010416666666666666
sS'main'
p20
F0.006944444444444444
sS'increased'
p21
F0.006944444444444444
sS'very'
p22
F0.003472222222222222
sS'big'
p23
F0.010416666666666666
sS'largest'
p24
F0.010416666666666666
sS'fat'
p25
F0.003472222222222222
sS'foremost'
p26
F0.003472222222222222
sS'historic'
p27
F0.003472222222222222
sS'worst'
p28
F0.003472222222222222
sS'clearest'
p29
F0.003472222222222222
sS'bigger'
p30
F0.013888888888888888
sS'prominent'
p31
F0.003472222222222222
sS'prime'
p32
F0.003472222222222222
sS'acute'
p33
F0.003472222222222222
sS'moderate'
p34
F0.003472222222222222
sS'impressive'
p35
F0.006944444444444444
sS'profound'
p36
F0.003472222222222222
sS'large'
p37
F0.010416666666666666
sS'monumental'
p38
F0.006944444444444444
sS'small'
p39
F0.003472222222222222
sS'essential'
p40
F0.013888888888888888
sS'heavy'
p41
F0.003472222222222222
sS'smaller'
p42
F0.006944444444444444
sS'insignificant'
p43
F0.010416666666666666
sS'colossal'
p44
F0.003472222222222222
sS'majeure'
p45
F0.006944444444444444
sS'urgent'
p46
F0.003472222222222222
sS'strongest'
p47
F0.006944444444444444
sS'louder'
p48
F0.003472222222222222
sS'gravest'
p49
F0.006944444444444444
sS'enhanced'
p50
F0.003472222222222222
sS'lead'
p51
F0.003472222222222222
sS'under-age'
p52
F0.003472222222222222
sS'crucial'
p53
F0.017361111111111112
sS'critical'
p54
F0.013888888888888888
sS'imperative'
p55
F0.013888888888888888
sS'increasing'
p56
F0.003472222222222222
sS'notable'
p57
F0.006944444444444444
sS'inconsiderable'
p58
F0.003472222222222222
sS'dire'
p59
F0.003472222222222222
sS'strong'
p60
F0.003472222222222222
sS'intense'
p61
F0.003472222222222222
sS'momentous'
p62
F0.003472222222222222
sS'fatter'
p63
F0.003472222222222222
sS'great'
p64
F0.013888888888888888
sS'noticeable'
p65
F0.010416666666666666
sS'larger'
p66
F0.010416666666666666
sS'burdensome'
p67
F0.003472222222222222
sS'massive'
p68
F0.003472222222222222
sS'loud'
p69
F0.003472222222222222
sS'major'
p70
F0.013888888888888888
sS'underage'
p71
F0.003472222222222222
sS'daunting'
p72
F0.006944444444444444
sS'key'
p73
F0.010416666666666666
sS'striking'
p74
F0.006944444444444444
sS'powerful'
p75
F0.003472222222222222
sS'primary'
p76
F0.006944444444444444
sS'enlarged'
p77
F0.003472222222222222
sS'weaker'
p78
F0.003472222222222222
sS'long'
p79
F0.003472222222222222
sS'formidable'
p80
F0.006944444444444444
sS'wider'
p81
F0.006944444444444444
sS'salient'
p82
F0.003472222222222222
sS'sharper'
p83
F0.006944444444444444
sS'tremendous'
p84
F0.006944444444444444
sS'leading'
p85
F0.003472222222222222
sS'top'
p86
F0.003472222222222222
sS'tougher'
p87
F0.003472222222222222
sS'least'
p88
F0.006944444444444444
sS'immense'
p89
F0.013888888888888888
sS'much'
p90
F0.003472222222222222
sS'tighter'
p91
F0.003472222222222222
sS'basic'
p92
F0.003472222222222222
sS'biggest'
p93
F0.006944444444444444
sS'decisive'
p94
F0.003472222222222222
sS'minor'
p95
F0.003472222222222222
sS'more'
p96
F0.006944444444444444
sS'considerably'
p97
F0.003472222222222222
sS'deeper'
p98
F0.006944444444444444
sS'mostly'
p99
F0.003472222222222222
sS'staggering'
p100
F0.010416666666666666
sS'enormous'
p101
F0.017361111111111112
sS'instrumental'
p102
F0.006944444444444444
sS'sizable'
p103
F0.003472222222222222
sS'dramatic'
p104
F0.006944444444444444
sS'elderly'
p105
F0.003472222222222222
sS'highest'
p106
F0.006944444444444444
sS'considerable'
p107
F0.017361111111111112
sS'wide'
p108
F0.003472222222222222
sS'lesser'
p109
F0.003472222222222222
sS'growing'
p110
F0.003472222222222222
sS'gigantic'
p111
F0.003472222222222222
sS'sizeable'
p112
F0.006944444444444444
sS'outstanding'
p113
F0.003472222222222222
sS'heaviest'
p114
F0.006944444444444444
sS'high'
p115
F0.006944444444444444
sS'substantial'
p116
F0.017361111111111112
sS'cumbersome'
p117
F0.003472222222222222
sS'all-important'
p118
F0.003472222222222222
sS'worse'
p119
F0.006944444444444444
sS'greater'
p120
F0.010416666666666666
sS'huge'
p121
F0.006944444444444444
sS'lengthy'
p122
F0.003472222222222222
sS'principale'
p123
F0.003472222222222222
sS'elevated'
p124
F0.003472222222222222
sS'vital'
p125
F0.017361111111111112
sS'pivotal'
p126
F0.006944444444444444
sS'grand'
p127
F0.003472222222222222
sS'widespread'
p128
F0.003472222222222222
sS'steeper'
p129
F0.003472222222222222
sS'higher'
p130
F0.006944444444444444
sS'material'
p131
F0.006944444444444444
sS'paramount'
p132
F0.017361111111111112
sS'comprehensive'
p133
F0.003472222222222222
sS'modest'
p134
F0.003472222222222222
sS'important'
p135
F0.024305555555555556
sS'appreciable'
p136
F0.003472222222222222
sS'significant'
p137
F0.024305555555555556
sS'tall'
p138
F0.006944444444444444
sS'fierce'
p139
F0.003472222222222222
sS'robust'
p140
F0.003472222222222222
sS'meaningful'
p141
F0.017361111111111112
sS'grave'
p142
F0.003472222222222222
sS'lower'
p143
F0.003472222222222222
sS'especially'
p144
F0.003472222222222222
sS'older'
p145
F0.003472222222222222
sS'clear'
p146
F0.003472222222222222
sS'stronger'
p147
F0.010416666666666666
sS'large-scale'
p148
F0.003472222222222222
sS'severe'
p149
F0.013888888888888888
sS'greatest'
p150
F0.006944444444444444
sS'fundamental'
p151
F0.003472222222222222
sS'broad'
p152
F0.006944444444444444
sS'serious'
p153
F0.003472222222222222
sS'senior'
p154
F0.003472222222222222
sS'typical'
p155
F0.003472222222222222
s.