(dp0
S'identical'
p1
F0.08108108108108109
sS'even'
p2
F0.02702702702702703
sS'comparable'
p3
F0.10810810810810811
sS'like'
p4
F0.02702702702702703
sS'fully'
p5
F0.16216216216216217
sS'equivalent'
p6
F0.02702702702702703
sS'same'
p7
F0.02702702702702703
sS'alike'
p8
F0.10810810810810811
sS'symmetrical'
p9
F0.02702702702702703
sS'analogous'
p10
F0.16216216216216217
sS'simillar'
p11
F0.02702702702702703
sS'similar'
p12
F0.1891891891891892
sS'parallel'
p13
F0.02702702702702703
s.