(dp0
S'straightforward'
p1
F0.1111111111111111
sS'just'
p2
F0.1111111111111111
sS'simple'
p3
F0.1111111111111111
sS'merely'
p4
F0.1111111111111111
sS'simply'
p5
F0.2222222222222222
sS'easy'
p6
F0.1111111111111111
sS'easier'
p7
F0.1111111111111111
sS'simpler'
p8
F0.1111111111111111
s.