(dp0
S'lighter'
p1
F0.058823529411764705
sS'though'
p2
F0.11764705882352941
sS'simple'
p3
F0.058823529411764705
sS'easiest'
p4
F0.058823529411764705
sS'simplified'
p5
F0.11764705882352941
sS'easy'
p6
F0.058823529411764705
sS'simplest'
p7
F0.11764705882352941
sS'simpler'
p8
F0.11764705882352941
sS'easier'
p9
F0.058823529411764705
sS'more'
p10
F0.23529411764705882
s.