(dp0
S'specialised'
p1
F0.05263157894736842
sS'experienced'
p2
F0.05263157894736842
sS'proficient'
p3
F0.05263157894736842
sS'knowledgeable'
p4
F0.10526315789473684
sS'skilled'
p5
F0.15789473684210525
sS'competent'
p6
F0.05263157894736842
sS'qualified'
p7
F0.2631578947368421
sS'unqualified'
p8
F0.05263157894736842
sS'technological'
p9
F0.05263157894736842
sS'high-tech'
p10
F0.05263157894736842
sS'specialized'
p11
F0.05263157894736842
sS'low-skilled'
p12
F0.05263157894736842
s.