(dp0
S'quieter'
p1
F0.0196078431372549
sS'slow'
p2
F0.19607843137254902
sS'slower'
p3
F0.3333333333333333
sS'insignificant'
p4
F0.0196078431372549
sS'lengthy'
p5
F0.0392156862745098
sS'as'
p6
F0.17647058823529413
sS'low'
p7
F0.058823529411764705
sS'time-consuming'
p8
F0.0392156862745098
sS'sluggish'
p9
F0.09803921568627451
sS'cool'
p10
F0.0196078431372549
s.