(dp0
S'flaccid'
p1
F0.0625
sS'slow'
p2
F0.0625
sS'easy'
p3
F0.0625
sS'sweet'
p4
F0.1875
sS'smooth'
p5
F0.125
sS'pleasant'
p6
F0.0625
sS'gentle'
p7
F0.0625
sS'sweeter'
p8
F0.0625
sS'fresh'
p9
F0.0625
sS'lovely'
p10
F0.0625
sS'soft'
p11
F0.0625
sS'inaudible'
p12
F0.125
s.