(dp0
S'sound'
p1
F0.075
sS'firm'
p2
F0.05
sS'overwhelming'
p3
F0.075
sS'liquid'
p4
F0.025
sS'tougher'
p5
F0.025
sS'solid'
p6
F0.075
sS'steady'
p7
F0.025
sS'sturdy'
p8
F0.05
sS'stronger'
p9
F0.075
sS'firmer'
p10
F0.05
sS'better'
p11
F0.025
sS'strongest'
p12
F0.05
sS'strong'
p13
F0.075
sS'stable'
p14
F0.05
sS'resilient'
p15
F0.05
sS'robust'
p16
F0.1
sS'exciting'
p17
F0.05
sS'with'
p18
F0.05
sS'best'
p19
F0.025
s.