(dp0
S'unharmed'
p1
F0.012048192771084338
sS'outstanding'
p2
F0.012048192771084338
sS'magnificent'
p3
F0.012048192771084338
sS'it'
p4
F0.024096385542168676
sS'strongest'
p5
F0.012048192771084338
sS'stupider'
p6
F0.012048192771084338
sS'robust'
p7
F0.04819277108433735
sS'intact'
p8
F0.012048192771084338
sS'fine'
p9
F0.012048192771084338
sS'sturdy'
p10
F0.012048192771084338
sS'harmless'
p11
F0.012048192771084338
sS'scientifically'
p12
F0.012048192771084338
sS'legal'
p13
F0.012048192771084338
sS'environmentally-friendly'
p14
F0.024096385542168676
sS'terrific'
p15
F0.012048192771084338
sS'to'
p16
F0.07228915662650602
sS'wonderful'
p17
F0.012048192771084338
sS'eco-friendly'
p18
F0.024096385542168676
sS'stable'
p19
F0.012048192771084338
sS'resilient'
p20
F0.012048192771084338
sS'sensational'
p21
F0.012048192771084338
sS'lovely'
p22
F0.012048192771084338
sS'firm'
p23
F0.012048192771084338
sS'science-based'
p24
F0.012048192771084338
sS'scientific'
p25
F0.012048192771084338
sS'unhurt'
p26
F0.012048192771084338
sS'harmful'
p27
F0.012048192771084338
sS'unsound'
p28
F0.012048192771084338
sS'ecological'
p29
F0.024096385542168676
sS'basically'
p30
F0.012048192771084338
sS'excellent'
p31
F0.012048192771084338
sS'ecologically'
p32
F0.024096385542168676
sS'strong'
p33
F0.03614457831325301
sS'environment-friendly'
p34
F0.012048192771084338
sS'splendid'
p35
F0.012048192771084338
sS'sound'
p36
F0.07228915662650602
sS'on'
p37
F0.04819277108433735
sS'first-rate'
p38
F0.012048192771084338
sS'organic'
p39
F0.012048192771084338
sS'respectful'
p40
F0.012048192771084338
sS'environmental'
p41
F0.024096385542168676
sS'solid'
p42
F0.024096385542168676
sS'sounder'
p43
F0.012048192771084338
sS'stronger'
p44
F0.012048192771084338
sS'superb'
p45
F0.012048192771084338
sS'unscathed'
p46
F0.012048192771084338
sS'healthy'
p47
F0.024096385542168676
sS'delightful'
p48
F0.012048192771084338
sS'sane'
p49
F0.012048192771084338
sS'green'
p50
F0.024096385542168676
sS'reasonable'
p51
F0.03614457831325301
sS'sustainable'
p52
F0.012048192771084338
sS'clean'
p53
F0.012048192771084338
sS'intentional'
p54
F0.012048192771084338
s.