(dp0
S'fair'
p1
F0.04
sS'political'
p2
F0.04
sS'general'
p3
F0.04
sS'relative'
p4
F0.04
sS'lawful'
p5
F0.04
sS'proper'
p6
F0.04
sS'vis-'
p7
F0.04
sS'personal'
p8
F0.04
sS'generally'
p9
F0.04
sS'legal'
p10
F0.04
sS'socio-economically'
p11
F0.04
sS'legally'
p12
F0.04
sS'relatively'
p13
F0.04
sS'formally'
p14
F0.04
sS'overall'
p15
F0.04
sS'understanding'
p16
F0.08
sS'first-hand'
p17
F0.04
sS'personally'
p18
F0.04
sS'average'
p19
F0.04
sS'large'
p20
F0.04
sS'common'
p21
F0.04
sS'entirely'
p22
F0.04
sS'politically'
p23
F0.04
sS'normally'
p24
F0.04
s.