(dp0
S'opposite'
p1
F0.07692307692307693
sS'counter'
p2
F0.07692307692307693
sS'anti-constitutional'
p3
F0.07692307692307693
sS'value'
p4
F0.15384615384615385
sS'contrary'
p5
F0.07692307692307693
sS'inconsistent'
p6
F0.07692307692307693
sS'above'
p7
F0.07692307692307693
sS'found'
p8
F0.3076923076923077
sS'otherwise'
p9
F0.07692307692307693
s.