(dp0
S'fantastic'
p1
F0.014925373134328358
sS'particularly'
p2
F0.014925373134328358
sS'remarkable'
p3
F0.014925373134328358
sS'outstanding'
p4
F0.04477611940298507
sS'awesome'
p5
F0.029850746268656716
sS'excellent'
p6
F0.014925373134328358
sS'magnificent'
p7
F0.029850746268656716
sS'marvelous'
p8
F0.014925373134328358
sS'single'
p9
F0.014925373134328358
sS'special'
p10
F0.07462686567164178
sS'startling'
p11
F0.014925373134328358
sS'unusual'
p12
F0.04477611940298507
sS'grand'
p13
F0.014925373134328358
sS'incredible'
p14
F0.014925373134328358
sS'distinct'
p15
F0.014925373134328358
sS'distinctive'
p16
F0.014925373134328358
sS'separate'
p17
F0.014925373134328358
sS'terrific'
p18
F0.029850746268656716
sS'amazing'
p19
F0.014925373134328358
sS'wonderful'
p20
F0.029850746268656716
sS'hilarious'
p21
F0.014925373134328358
sS'privileged'
p22
F0.014925373134328358
sS'noticeable'
p23
F0.014925373134328358
sS'spectacular'
p24
F0.014925373134328358
sS'exceptional'
p25
F0.04477611940298507
sS'very'
p26
F0.014925373134328358
sS'sole'
p27
F0.014925373134328358
sS'uncommon'
p28
F0.014925373134328358
sS'extraordinary'
p29
F0.04477611940298507
sS'important'
p30
F0.014925373134328358
sS'significant'
p31
F0.014925373134328358
sS'particular'
p32
F0.014925373134328358
sS'specific'
p33
F0.029850746268656716
sS'unique'
p34
F0.04477611940298507
sS'peculiar'
p35
F0.029850746268656716
sS'vast'
p36
F0.014925373134328358
sS'especially'
p37
F0.014925373134328358
sS'great'
p38
F0.014925373134328358
sS'noteworthy'
p39
F0.014925373134328358
sS'impressive'
p40
F0.014925373134328358
sS'surprising'
p41
F0.014925373134328358
sS'marvellous'
p42
F0.029850746268656716
sS'large'
p43
F0.014925373134328358
sS'tremendous'
p44
F0.014925373134328358
sS'commendable'
p45
F0.014925373134328358
sS'brilliant'
p46
F0.014925373134328358
s.