(dp0
S'longstanding'
p1
F0.1111111111111111
sS'long-lasting'
p2
F0.1111111111111111
sS'long'
p3
F0.1111111111111111
sS'naked'
p4
F0.1111111111111111
sS'only'
p5
F0.3333333333333333
sS'long-standing'
p6
F0.1111111111111111
sS'long-term'
p7
F0.1111111111111111
s.