(dp0
S'precise'
p1
F0.03225806451612903
sS'anti-constitutional'
p2
F0.03225806451612903
sS'inconsistent'
p3
F0.03225806451612903
sS'clearly'
p4
F0.03225806451612903
sS'unambiguous'
p5
F0.03225806451612903
sS'self-explanatory'
p6
F0.03225806451612903
sS'unequivocal'
p7
F0.03225806451612903
sS'above'
p8
F0.06451612903225806
sS'contrary'
p9
F0.03225806451612903
sS'straightforward'
p10
F0.03225806451612903
sS'opposite'
p11
F0.03225806451612903
sS'clear-cut'
p12
F0.03225806451612903
sS'apparent'
p13
F0.03225806451612903
sS'clearer'
p14
F0.03225806451612903
sS'predictable'
p15
F0.03225806451612903
sS'aforementioned'
p16
F0.06451612903225806
sS'evident'
p17
F0.03225806451612903
sS'clear'
p18
F0.03225806451612903
sS'explicit'
p19
F0.03225806451612903
sS'manifest'
p20
F0.03225806451612903
sS'specific'
p21
F0.03225806451612903
sS'obvious'
p22
F0.03225806451612903
sS'though'
p23
F0.1935483870967742
sS'otherwise'
p24
F0.03225806451612903
s.