(dp0
S'scary'
p1
F0.0625
sS'panicked'
p2
F0.0625
sS'tough'
p3
F0.0625
sS'harsh'
p4
F0.0625
sS'strict'
p5
F0.0625
sS'frightening'
p6
F0.0625
sS'scared'
p7
F0.0625
sS'sore'
p8
F0.25
sS'severe'
p9
F0.0625
sS'stringent'
p10
F0.0625
sS'stern'
p11
F0.0625
sS'frightened'
p12
F0.0625
sS'afraid'
p13
F0.0625
s.