(dp0
S'leaner'
p1
F0.03125
sS'mere'
p2
F0.0625
sS'lighter'
p3
F0.03125
sS'straightforward'
p4
F0.125
sS'simple'
p5
F0.1875
sS'plain'
p6
F0.09375
sS'easiest'
p7
F0.03125
sS'simplistic'
p8
F0.03125
sS'easier'
p9
F0.0625
sS'simply'
p10
F0.03125
sS'easy'
p11
F0.09375
sS'simplest'
p12
F0.03125
sS'simplified'
p13
F0.03125
sS'uncomplicated'
p14
F0.03125
sS'single-ranked'
p15
F0.03125
sS'simpler'
p16
F0.09375
s.