(dp0
S'strengthened'
p1
F0.1111111111111111
sS'greater'
p2
F0.1111111111111111
sS'stepped-up'
p3
F0.1111111111111111
sS'reinforcing'
p4
F0.1111111111111111
sS'enhancement'
p5
F0.1111111111111111
sS'enhanced'
p6
F0.2222222222222222
sS'by'
p7
F0.2222222222222222
s.