(dp0
S'concise'
p1
F0.1111111111111111
sS'simple'
p2
F0.1111111111111111
sS'rationalized'
p3
F0.1111111111111111
sS'efficient'
p4
F0.1111111111111111
sS'simplified'
p5
F0.1111111111111111
sS'simplest'
p6
F0.1111111111111111
sS'simplifying'
p7
F0.1111111111111111
sS'easiest'
p8
F0.1111111111111111
sS'simpler'
p9
F0.1111111111111111
s.