(dp0
S'stringent'
p1
F0.08333333333333333
sS'vigorous'
p2
F0.041666666666666664
sS'tough'
p3
F0.08333333333333333
sS'tight'
p4
F0.041666666666666664
sS'accurate'
p5
F0.041666666666666664
sS'loose'
p6
F0.041666666666666664
sS'stronger'
p7
F0.041666666666666664
sS'inflexible'
p8
F0.041666666666666664
sS'thorough'
p9
F0.041666666666666664
sS'restrictive'
p10
F0.041666666666666664
sS'severe'
p11
F0.041666666666666664
sS'rigid'
p12
F0.08333333333333333
sS'rigorous'
p13
F0.08333333333333333
sS'strictest'
p14
F0.041666666666666664
sS'stricter'
p15
F0.08333333333333333
sS'tougher'
p16
F0.041666666666666664
sS'strict'
p17
F0.041666666666666664
sS'tighter'
p18
F0.041666666666666664
sS'lenient'
p19
F0.041666666666666664
s.