(dp0
S'beautiful'
p1
F0.025
sS'breathtaking'
p2
F0.05
sS'remarkable'
p3
F0.025
sS'outstanding'
p4
F0.025
sS'awesome'
p5
F0.025
sS'magnificent'
p6
F0.025
sS'fantastic'
p7
F0.025
sS'marvelous'
p8
F0.025
sS'fabulous'
p9
F0.025
sS'incredible'
p10
F0.025
sS'noteworthy'
p11
F0.025
sS'dazzling'
p12
F0.025
sS'superb'
p13
F0.025
sS'terrific'
p14
F0.025
sS'amazing'
p15
F0.025
sS'wonderful'
p16
F0.05
sS'pretty'
p17
F0.025
sS'gorgeous'
p18
F0.025
sS'lovely'
p19
F0.025
sS'adorable'
p20
F0.025
sS'ravishing'
p21
F0.025
sS'unbelievable'
p22
F0.025
sS'notable'
p23
F0.025
sS'stunning'
p24
F0.05
sS'charming'
p25
F0.025
sS'dramatic'
p26
F0.025
sS'excellent'
p27
F0.025
sS'exciting'
p28
F0.025
sS'impressive'
p29
F0.025
sS'noticeable'
p30
F0.025
sS'brilliant'
p31
F0.05
sS'admirable'
p32
F0.025
sS'marvellous'
p33
F0.05
sS'delightful'
p34
F0.025
sS'commendable'
p35
F0.025
s.