(dp0
S'deeper'
p1
F0.1111111111111111
sS'greater'
p2
F0.1111111111111111
sS'substantive'
p3
F0.1111111111111111
sS'important'
p4
F0.1111111111111111
sS'significant'
p5
F0.1111111111111111
sS'largest'
p6
F0.1111111111111111
sS'highest'
p7
F0.1111111111111111
sS'substantial'
p8
F0.1111111111111111
sS'more'
p9
F0.1111111111111111
s.