(dp0
S'heavy'
p1
F0.008
sS'strengthened'
p2
F0.008
sS'major'
p3
F0.016
sS'sizeable'
p4
F0.032
sS'daunting'
p5
F0.016
sS'plenty'
p6
F0.008
sS'remarkable'
p7
F0.008
sS'colossal'
p8
F0.008
sS'awesome'
p9
F0.008
sS'in'
p10
F0.016
sS'powerful'
p11
F0.008
sS'taller'
p12
F0.008
sS'majeure'
p13
F0.008
sS'far-reaching'
p14
F0.016
sS'wide-ranging'
p15
F0.008
sS'strongest'
p16
F0.016
sS'substantial'
p17
F0.032
sS'broader'
p18
F0.008
sS'formidable'
p19
F0.024
sS'wider'
p20
F0.008
sS'sharp'
p21
F0.008
sS'abundant'
p22
F0.008
sS'staggering'
p23
F0.008
sS'increased'
p24
F0.008
sS'huge'
p25
F0.016
sS'lengthy'
p26
F0.008
sS'highest'
p27
F0.008
sS'widest'
p28
F0.008
sS'tremendous'
p29
F0.024
sS'phenomenal'
p30
F0.008
sS'crucial'
p31
F0.008
sS'long'
p32
F0.008
sS'fruitful'
p33
F0.008
sS'intensive'
p34
F0.008
sS'immense'
p35
F0.024
sS'critical'
p36
F0.008
sS'bigger'
p37
F0.016
sS'largest'
p38
F0.016
sS'biggest'
p39
F0.016
sS'enlarged'
p40
F0.008
sS'extensive'
p41
F0.016
sS'greatest'
p42
F0.016
sS'numerous'
p43
F0.008
sS'more'
p44
F0.008
sS'paramount'
p45
F0.024
sS'greater'
p46
F0.016
sS'spectacular'
p47
F0.008
sS'comprehensive'
p48
F0.008
sS'material'
p49
F0.008
sS'notable'
p50
F0.008
sS'hilarious'
p51
F0.008
sS'much'
p52
F0.008
sS'extraordinary'
p53
F0.008
sS'important'
p54
F0.008
sS'big'
p55
F0.008
sS'appreciable'
p56
F0.008
sS'significant'
p57
F0.032
sS'emotional'
p58
F0.008
sS'prodigious'
p59
F0.008
sS'strong'
p60
F0.008
sS'meaningful'
p61
F0.008
sS'considerable'
p62
F0.032
sS'momentous'
p63
F0.008
sS'widespread'
p64
F0.008
sS'overwhelming'
p65
F0.008
sS'enormous'
p66
F0.024
sS'impressive'
p67
F0.008
sS'largely'
p68
F0.008
sS'robust'
p69
F0.008
sS'larger'
p70
F0.024
sS'stronger'
p71
F0.016
sS'productive'
p72
F0.008
sS'substantive'
p73
F0.016
sS'large'
p74
F0.008
sS'monumental'
p75
F0.016
sS'dramatic'
p76
F0.016
sS'massive'
p77
F0.008
sS'broad'
p78
F0.008
sS'great'
p79
F0.008
sS'profound'
p80
F0.008
sS'gigantic'
p81
F0.008
sS'higher'
p82
F0.008
sS'loud'
p83
F0.008
sS'vast'
p84
F0.008
sS'deeper'
p85
F0.008
s.