(dp0
S'self-governed'
p1
F0.034482758620689655
sS'self-governing'
p2
F0.034482758620689655
sS'satisfactory'
p3
F0.034482758620689655
sS'excessive'
p4
F0.3448275862068966
sS'ample'
p5
F0.034482758620689655
sS'self-employed'
p6
F0.034482758620689655
sS'self-sustainable'
p7
F0.034482758620689655
sS'self-sustaining'
p8
F0.034482758620689655
sS'self-supporting'
p9
F0.034482758620689655
sS'self-contained'
p10
F0.034482758620689655
sS'independent'
p11
F0.034482758620689655
sS'adequate'
p12
F0.034482758620689655
sS'free-standing'
p13
F0.034482758620689655
sS'enough'
p14
F0.034482758620689655
sS'insufficient'
p15
F0.034482758620689655
sS'autonomous'
p16
F0.034482758620689655
sS'stand-alone'
p17
F0.034482758620689655
sS'self-reliant'
p18
F0.034482758620689655
sS'sufficient'
p19
F0.034482758620689655
sS'self-sufficiency'
p20
F0.034482758620689655
s.