(dp0
S'supportive'
p1
F0.07692307692307693
sS'concerted'
p2
F0.07692307692307693
sS'complementary'
p3
F0.07692307692307693
sS'collective'
p4
F0.07692307692307693
sS'supported'
p5
F0.07692307692307693
sS'interdependent'
p6
F0.07692307692307693
sS'reinforcing'
p7
F0.07692307692307693
sS'supplementary'
p8
F0.07692307692307693
sS'interrelated'
p9
F0.07692307692307693
sS'complements'
p10
F0.07692307692307693
sS'synergistic'
p11
F0.07692307692307693
sS'complimentary'
p12
F0.07692307692307693
sS'supplemental'
p13
F0.07692307692307693
s.