(dp0
S'high'
p1
F0.058823529411764705
sS'taller'
p2
F0.5294117647058824
sS'tremendous'
p3
F0.058823529411764705
sS'great'
p4
F0.058823529411764705
sS'large'
p5
F0.058823529411764705
sS'tall'
p6
F0.058823529411764705
sS'gigantic'
p7
F0.058823529411764705
sS'overwhelming'
p8
F0.058823529411764705
sS'vast'
p9
F0.058823529411764705
s.