(dp0
S'temporary'
p1
F0.125
sS'transitional'
p2
F0.0625
sS'tentative'
p3
F0.0625
sS'ephemeral'
p4
F0.125
sS'transitory'
p5
F0.1875
sS'interim'
p6
F0.0625
sS'transient'
p7
F0.1875
sS'preliminary'
p8
F0.0625
sS'provisional'
p9
F0.0625
sS'momentary'
p10
F0.0625
s.