(dp0
S'beautiful'
p1
F0.031746031746031744
sS'fantastic'
p2
F0.031746031746031744
sS'daunting'
p3
F0.015873015873015872
sS'classic'
p4
F0.015873015873015872
sS'sweet'
p5
F0.015873015873015872
sS'awesome'
p6
F0.031746031746031744
sS'magnificent'
p7
F0.015873015873015872
sS'marvelous'
p8
F0.015873015873015872
sS'fabulous'
p9
F0.031746031746031744
sS'delicious'
p10
F0.015873015873015872
sS'formidable'
p11
F0.015873015873015872
sS'perfect'
p12
F0.015873015873015872
sS'incredible'
p13
F0.031746031746031744
sS'tremendous'
p14
F0.015873015873015872
sS'phenomenal'
p15
F0.031746031746031744
sS'superb'
p16
F0.015873015873015872
sS'terrific'
p17
F0.031746031746031744
sS'genius'
p18
F0.015873015873015872
sS'amazing'
p19
F0.015873015873015872
sS'wonderful'
p20
F0.031746031746031744
sS'gorgeous'
p21
F0.031746031746031744
sS'dynamite'
p22
F0.015873015873015872
sS'lovely'
p23
F0.031746031746031744
sS'ravishing'
p24
F0.015873015873015872
sS'wicked'
p25
F0.015873015873015872
sS'om-mazing'
p26
F0.015873015873015872
sS'spectacular'
p27
F0.015873015873015872
sS'masterful'
p28
F0.015873015873015872
sS'hilarious'
p29
F0.015873015873015872
sS'fanta'
p30
F0.015873015873015872
sS'exciting'
p31
F0.031746031746031744
sS'super'
p32
F0.031746031746031744
sS'than'
p33
F0.015873015873015872
sS'handsome'
p34
F0.015873015873015872
sS'sensational'
p35
F0.015873015873015872
sS'great'
p36
F0.031746031746031744
sS'splendid'
p37
F0.015873015873015872
sS'brilliant'
p38
F0.031746031746031744
sS'cool'
p39
F0.015873015873015872
sS'marvellous'
p40
F0.015873015873015872
sS'stunning'
p41
F0.015873015873015872
sS'neat'
p42
F0.015873015873015872
sS'glorious'
p43
F0.015873015873015872
sS'cherry'
p44
F0.015873015873015872
sS'fun'
p45
F0.015873015873015872
sS'nice'
p46
F0.031746031746031744
sS'exquisite'
p47
F0.031746031746031744
s.