(dp0
S'cute'
p1
F0.00980392156862745
sS'satisfactory'
p2
F0.00980392156862745
sS'managed'
p3
F0.0196078431372549
sS'sweet'
p4
F0.00980392156862745
sS'respectable'
p5
F0.00980392156862745
sS'thoughtful'
p6
F0.00980392156862745
sS'further'
p7
F0.3627450980392157
sS'frightened'
p8
F0.00980392156862745
sS'everybody'
p9
F0.0196078431372549
sS'worthless'
p10
F0.00980392156862745
sS'anymore'
p11
F0.058823529411764705
sS'decent'
p12
F0.00980392156862745
sS'start'
p13
F0.0196078431372549
sS'too'
p14
F0.0784313725490196
sS'lovely'
p15
F0.00980392156862745
sS'truthful'
p16
F0.029411764705882353
sS'independent'
p17
F0.00980392156862745
sS'pleasant'
p18
F0.00980392156862745
sS'understand'
p19
F0.08823529411764706
sS'coming'
p20
F0.0196078431372549
sS'frightening'
p21
F0.00980392156862745
sS'booked'
p22
F0.00980392156862745
sS'like'
p23
F0.14705882352941177
sS'fearful'
p24
F0.00980392156862745
sS'dishonest'
p25
F0.00980392156862745
sS'worried'
p26
F0.00980392156862745
s.