(dp0
S'considerably'
p1
F0.14285714285714285
sS'impenetrable'
p2
F0.2857142857142857
sS'foreverything'
p3
F0.14285714285714285
sS'thin'
p4
F0.14285714285714285
sS'thick'
p5
F0.14285714285714285
sS'jam-packed'
p6
F0.14285714285714285
s.