(dp0
S'detailed'
p1
F0.08
sS'full'
p2
F0.04
sS'fuller'
p3
F0.04
sS'complete'
p4
F0.04
sS'non-exhaustive'
p5
F0.04
sS'comprehensive'
p6
F0.08
sS'meticulous'
p7
F0.08
sS'in-depth'
p8
F0.08
sS'thorough'
p9
F0.08
sS'exhaustive'
p10
F0.04
sS'broader'
p11
F0.04
sS'excellent'
p12
F0.04
sS'rigorous'
p13
F0.04
sS'vigorous'
p14
F0.04
sS'extensive'
p15
F0.08
sS'careful'
p16
F0.04
sS'fullest'
p17
F0.04
sS'deeper'
p18
F0.08
s.