(dp0
S'timely'
p1
F0.03125
sS'working'
p2
F0.046875
sS'last'
p3
F0.09375
sS'longer'
p4
F0.015625
sS'searchable'
p5
F0.03125
sS'that'
p6
F0.15625
sS'any'
p7
F0.15625
sS'later'
p8
F0.15625
sS'specified'
p9
F0.046875
sS'next'
p10
F0.03125
sS'single'
p11
F0.015625
sS'longest'
p12
F0.015625
sS'automated'
p13
F0.078125
sS'alone'
p14
F0.015625
sS'time-consuming'
p15
F0.015625
sS'treated'
p16
F0.03125
sS'time'
p17
F0.015625
sS'best'
p18
F0.046875
s.