(dp0
S'hereby'
p1
F0.021739130434782608
sS'around'
p2
F0.021739130434782608
sS'for'
p3
F0.6086956521739131
sS'to'
p4
F0.17391304347826086
sS'there'
p5
F0.021739130434782608
sS'here'
p6
F0.021739130434782608
sS'next'
p7
F0.06521739130434782
sS'twice'
p8
F0.043478260869565216
sS'as'
p9
F0.021739130434782608
s.