(dp0
S'timely'
p1
F0.2
sS'relevant'
p2
F0.13333333333333333
sS'pertinent'
p3
F0.13333333333333333
sS'newsworthy'
p4
F0.13333333333333333
sS'current'
p5
F0.06666666666666667
sS'topical'
p6
F0.13333333333333333
sS'valid'
p7
F0.13333333333333333
sS'present'
p8
F0.06666666666666667
s.