(dp0
S'tenacious'
p1
F0.006578947368421052
sS'costly'
p2
F0.006578947368421052
sS'challenging'
p3
F0.03289473684210526
sS'tougher'
p4
F0.07236842105263158
sS'problematic'
p5
F0.013157894736842105
sS'elusive'
p6
F0.006578947368421052
sS'hardworking'
p7
F0.03289473684210526
sS'miserable'
p8
F0.006578947368421052
sS'tough'
p9
F0.046052631578947366
sS'cumbersome'
p10
F0.013157894736842105
sS'frightened'
p11
F0.006578947368421052
sS'cold'
p12
F0.006578947368421052
sS'expensive'
p13
F0.006578947368421052
sS'really'
p14
F0.006578947368421052
sS'rough'
p15
F0.03289473684210526
sS'stressful'
p16
F0.006578947368421052
sS'harsh'
p17
F0.03289473684210526
sS'awkward'
p18
F0.013157894736842105
sS'choosy'
p19
F0.006578947368421052
sS'callous'
p20
F0.013157894736842105
sS'bad'
p21
F0.013157894736842105
sS'easy'
p22
F0.006578947368421052
sS'resolute'
p23
F0.006578947368421052
sS'painful'
p24
F0.013157894736842105
sS'difficult'
p25
F0.039473684210526314
sS'firm'
p26
F0.006578947368421052
sS'hard'
p27
F0.03289473684210526
sS'rude'
p28
F0.02631578947368421
sS'impossible'
p29
F0.15789473684210525
sS'executory'
p30
F0.006578947368421052
sS'uneasy'
p31
F0.013157894736842105
sS'dire'
p32
F0.006578947368421052
sS'awful'
p33
F0.013157894736842105
sS'robust'
p34
F0.006578947368421052
sS'strong'
p35
F0.006578947368421052
sS'finicky'
p36
F0.006578947368421052
sS'grim'
p37
F0.006578947368421052
sS'picky'
p38
F0.006578947368421052
sS'tricky'
p39
F0.03289473684210526
sS'scary'
p40
F0.006578947368421052
sS'hardto'
p41
F0.013157894736842105
sS'rugged'
p42
F0.013157894736842105
sS'steadfast'
p43
F0.006578947368421052
sS'shitty'
p44
F0.019736842105263157
sS'shy'
p45
F0.006578947368421052
sS'stiff'
p46
F0.02631578947368421
sS'harder'
p47
F0.03289473684210526
sS'persistent'
p48
F0.006578947368421052
sS'brutal'
p49
F0.019736842105263157
sS'frightening'
p50
F0.006578947368421052
sS'reaily'
p51
F0.006578947368421052
sS'nervous'
p52
F0.006578947368421052
sS'impractical'
p53
F0.013157894736842105
sS'arduous'
p54
F0.02631578947368421
sS'fussy'
p55
F0.013157894736842105
s.