(dp0
S'evident'
p1
F0.041666666666666664
sS'though'
p2
F0.041666666666666664
sS'clear'
p3
F0.041666666666666664
sS'clearer'
p4
F0.08333333333333333
sS'seamless'
p5
F0.125
sS'transparency'
p6
F0.16666666666666666
sS'see-through'
p7
F0.041666666666666664
sS'active'
p8
F0.08333333333333333
sS'non-transparent'
p9
F0.041666666666666664
sS'open'
p10
F0.041666666666666664
sS'clearest'
p11
F0.041666666666666664
sS'transparent'
p12
F0.25
s.