(dp0
S'tricky'
p1
F0.15384615384615385
sS'clever'
p2
F0.07692307692307693
sS'tough'
p3
F0.07692307692307693
sS'challenging'
p4
F0.07692307692307693
sS'awkward'
p5
F0.07692307692307693
sS'problematic'
p6
F0.07692307692307693
sS'complicated'
p7
F0.07692307692307693
sS'impractical'
p8
F0.07692307692307693
sS'cumbersome'
p9
F0.07692307692307693
sS'difficult'
p10
F0.07692307692307693
sS'rough'
p11
F0.07692307692307693
sS'picky'
p12
F0.07692307692307693
s.