(dp0
S'volatile'
p1
F0.1
sS'destabilizing'
p2
F0.1
sS'shaky'
p3
F0.1
sS'turbulent'
p4
F0.1
sS'fluid'
p5
F0.1
sS'unstable'
p6
F0.1
sS'messy'
p7
F0.1
sS'complicated'
p8
F0.1
sS'cumbersome'
p9
F0.1
sS'unsteady'
p10
F0.1
s.