(dp0
S'unsatisfactory'
p1
F0.02564102564102564
sS'unsustainable'
p2
F0.02564102564102564
sS'reprehensible'
p3
F0.038461538461538464
sS'unacceptable'
p4
F0.057692307692307696
sS'obscene'
p5
F0.019230769230769232
sS'improper'
p6
F0.02564102564102564
sS'absurd'
p7
F0.00641025641025641
sS'receivable'
p8
F0.00641025641025641
sS'unbearable'
p9
F0.01282051282051282
sS'inadmissible'
p10
F0.04487179487179487
sS'inappropriate'
p11
F0.02564102564102564
sS'scandalous'
p12
F0.00641025641025641
sS'unconscionable'
p13
F0.02564102564102564
sS'unthinkable'
p14
F0.038461538461538464
sS'disgraceful'
p15
F0.03205128205128205
sS'undesirable'
p16
F0.02564102564102564
sS'ineligible'
p17
F0.02564102564102564
sS'acceptable'
p18
F0.02564102564102564
sS'wrong'
p19
F0.01282051282051282
sS'untenable'
p20
F0.05128205128205128
sS'unreliable'
p21
F0.04487179487179487
sS'inconceivable'
p22
F0.02564102564102564
sS'inexcusable'
p23
F0.00641025641025641
sS'objectionable'
p24
F0.05128205128205128
sS'insufferable'
p25
F0.04487179487179487
sS'unreasonable'
p26
F0.02564102564102564
sS'unexceptable'
p27
F0.04487179487179487
sS'appalling'
p28
F0.01282051282051282
sS'outrageous'
p29
F0.038461538461538464
sS'admissible'
p30
F0.019230769230769232
sS'indefensible'
p31
F0.04487179487179487
sS'impermissible'
p32
F0.05128205128205128
sS'intolerable'
p33
F0.057692307692307696
s.