(dp0
S'unbearable'
p1
F0.125
sS'unsustainable'
p2
F0.125
sS'insufferable'
p3
F0.125
sS'unacceptable'
p4
F0.125
sS'untenable'
p5
F0.125
sS'miserable'
p6
F0.125
sS'unendurable'
p7
F0.125
sS'intolerable'
p8
F0.125
s.