(dp0
S'questionable'
p1
F0.041666666666666664
sS'ambiguous'
p2
F0.041666666666666664
sS'unclear'
p3
F0.125
sS'uncertain'
p4
F0.08333333333333333
sS'equivocal'
p5
F0.041666666666666664
sS'tentative'
p6
F0.08333333333333333
sS'unknown'
p7
F0.08333333333333333
sS'insecure'
p8
F0.125
sS'doubtful'
p9
F0.08333333333333333
sS'interim'
p10
F0.041666666666666664
sS'unpredictable'
p11
F0.041666666666666664
sS'untrue'
p12
F0.041666666666666664
sS'volatile'
p13
F0.041666666666666664
sS'unsettled'
p14
F0.041666666666666664
sS'unsure'
p15
F0.041666666666666664
sS'provisional'
p16
F0.041666666666666664
s.