(dp0
S'unhappy'
p1
F0.15384615384615385
sS'sad'
p2
F0.15384615384615385
sS'unlucky'
p3
F0.15384615384615385
sS'unfortunate'
p4
F0.23076923076923078
sS'miserable'
p5
F0.15384615384615385
sS'unappy'
p6
F0.15384615384615385
s.