(dp0
S'instrumental'
p1
F0.16666666666666666
sS'beneficial'
p2
F0.16666666666666666
sS'useful'
p3
F0.16666666666666666
sS'helpful'
p4
F0.16666666666666666
sS'unhelpful'
p5
F0.16666666666666666
sS'meaningful'
p6
F0.16666666666666666
s.