(dp0
S'undetermined'
p1
F0.06666666666666667
sS'alien'
p2
F0.06666666666666667
sS'unidentified'
p3
F0.06666666666666667
sS'uncertain'
p4
F0.13333333333333333
sS'unknown'
p5
F0.3333333333333333
sS'unspecified'
p6
F0.06666666666666667
sS'strangers'
p7
F0.06666666666666667
sS'impossible'
p8
F0.13333333333333333
sS'obscure'
p9
F0.06666666666666667
s.