(dp0
S'questionable'
p1
F0.058823529411764705
sS'insignificant'
p2
F0.11764705882352941
sS'doubtful'
p3
F0.17647058823529413
sS'improbable'
p4
F0.11764705882352941
sS'likely'
p5
F0.17647058823529413
sS'unlikely'
p6
F0.23529411764705882
sS'implausible'
p7
F0.11764705882352941
s.