(dp0
S'unforeseeable'
p1
F0.16666666666666666
sS'unforeseen'
p2
F0.16666666666666666
sS'dangerous'
p3
F0.16666666666666666
sS'unpredictable'
p4
F0.16666666666666666
sS'volatile'
p5
F0.16666666666666666
sS'very'
p6
F0.16666666666666666
s.