(dp0
S'unwarranted'
p1
F0.1111111111111111
sS'unreasonable'
p2
F0.3333333333333333
sS'unjustified'
p3
F0.1111111111111111
sS'unwise'
p4
F0.1111111111111111
sS'unjustifiable'
p5
F0.1111111111111111
sS'unconscionable'
p6
F0.1111111111111111
sS'unfounded'
p7
F0.1111111111111111
s.