(dp0
S'terrific'
p1
F0.09090909090909091
sS'unbelievable'
p2
F0.09090909090909091
sS'incredible'
p3
F0.09090909090909091
sS'phenomenal'
p4
F0.09090909090909091
sS'awesome'
p5
F0.09090909090909091
sS'astounding'
p6
F0.09090909090909091
sS'fantastic'
p7
F0.09090909090909091
sS'astonishing'
p8
F0.09090909090909091
sS'surreal'
p9
F0.09090909090909091
sS'-lncredible'
p10
F0.09090909090909091
sS'unrealistic'
p11
F0.09090909090909091
s.