(dp0
S'closer'
p1
F0.3181818181818182
sS'equipped'
p2
F0.06818181818181818
sS'unresolved'
p3
F0.022727272727272728
sS'furious'
p4
F0.022727272727272728
sS'fair'
p5
F0.022727272727272728
sS'respectable'
p6
F0.022727272727272728
sS'decent'
p7
F0.022727272727272728
sS'straight'
p8
F0.022727272727272728
sS'responsible'
p9
F0.13636363636363635
sS'dishonest'
p10
F0.022727272727272728
sS'kosher'
p11
F0.022727272727272728
sS'also'
p12
F0.13636363636363635
sS'between'
p13
F0.045454545454545456
sS'prouder'
p14
F0.022727272727272728
sS'comin'
p15
F0.022727272727272728
sS'intact'
p16
F0.045454545454545456
sS'truthful'
p17
F0.022727272727272728
s.