(dp0
S'beneficial'
p1
F0.012195121951219513
sS'worthwhile'
p2
F0.036585365853658534
sS'unworkable'
p3
F0.012195121951219513
sS'uneconomical'
p4
F0.036585365853658534
sS'unprofitable'
p5
F0.024390243902439025
sS'economic'
p6
F0.012195121951219513
sS'achievable'
p7
F0.06097560975609756
sS'tenable'
p8
F0.012195121951219513
sS'profitable'
p9
F0.036585365853658534
sS'uneconomic'
p10
F0.012195121951219513
sS'productive'
p11
F0.012195121951219513
sS'efficient'
p12
F0.024390243902439025
sS'brighter'
p13
F0.012195121951219513
sS'cost-effectively'
p14
F0.036585365853658534
sS'economical'
p15
F0.036585365853658534
sS'workable'
p16
F0.06097560975609756
sS'cost-effective'
p17
F0.036585365853658534
sS'viable'
p18
F0.07317073170731707
sS'affordable'
p19
F0.036585365853658534
sS'doable'
p20
F0.024390243902439025
sS'cost-efficient'
p21
F0.036585365853658534
sS'lucrative'
p22
F0.036585365853658534
sS'attainable'
p23
F0.06097560975609756
sS'manageable'
p24
F0.012195121951219513
sS'feasible'
p25
F0.06097560975609756
sS'practical'
p26
F0.012195121951219513
sS'practicable'
p27
F0.06097560975609756
sS'sustainable'
p28
F0.07317073170731707
sS'costeffective'
p29
F0.024390243902439025
sS'economically'
p30
F0.012195121951219513
s.