(dp0
S'strengthened'
p1
F0.0625
sS'weaker'
p2
F0.0625
sS'vigorous'
p3
F0.0625
sS'efficient'
p4
F0.0625
sS'buoyant'
p5
F0.0625
sS'stepped-up'
p6
F0.0625
sS'stronger'
p7
F0.125
sS'strongest'
p8
F0.125
sS'strengthening'
p9
F0.0625
sS'resilient'
p10
F0.0625
sS'robust'
p11
F0.0625
sS'strong'
p12
F0.125
sS'proactive'
p13
F0.0625
s.