(dp0
S'homicidal'
p1
F0.041666666666666664
sS'murderous'
p2
F0.041666666666666664
sS'abusive'
p3
F0.125
sS'political'
p4
F0.041666666666666664
sS'vicious'
p5
F0.10416666666666667
sS'brutal'
p6
F0.10416666666666667
sS'furious'
p7
F0.08333333333333333
sS'messy'
p8
F0.0625
sS'violent'
p9
F0.10416666666666667
sS'severe'
p10
F0.125
sS'fierce'
p11
F0.08333333333333333
sS'rough'
p12
F0.0625
sS'blunt'
p13
F0.020833333333333332
s.