(dp0
S'accessible'
p1
F0.16326530612244897
sS'strongly'
p2
F0.02040816326530612
sS'flagrant'
p3
F0.01020408163265306
sS'visible'
p4
F0.07142857142857142
sS'clearly'
p5
F0.01020408163265306
sS'necessarily'
p6
F0.04081632653061224
sS'distinct'
p7
F0.01020408163265306
sS'self-explanatory'
p8
F0.02040816326530612
sS'self-evident'
p9
F0.02040816326530612
sS'prominent'
p10
F0.04081632653061224
sS'legible'
p11
F0.02040816326530612
sS'normal'
p12
F0.01020408163265306
sS'apparent'
p13
F0.061224489795918366
sS'notable'
p14
F0.01020408163265306
sS'clearer'
p15
F0.02040816326530612
sS'visibility'
p16
F0.01020408163265306
sS'discernible'
p17
F0.05102040816326531
sS'selfevident'
p18
F0.01020408163265306
sS'palpable'
p19
F0.01020408163265306
sS'overt'
p20
F0.01020408163265306
sS'transparent'
p21
F0.01020408163265306
sS'conspicuous'
p22
F0.05102040816326531
sS'simpler'
p23
F0.01020408163265306
sS'viewable'
p24
F0.030612244897959183
sS'evident'
p25
F0.061224489795918366
sS'noticeable'
p26
F0.07142857142857142
sS'plain'
p27
F0.01020408163265306
sS'clear'
p28
F0.02040816326530612
sS'manifest'
p29
F0.02040816326530612
sS'obvious'
p30
F0.02040816326530612
sS'published'
p31
F0.061224489795918366
sS'invisible'
p32
F0.01020408163265306
s.