(dp0
S'seminal'
p1
F0.02
sS'major'
p2
F0.01
sS'significant'
p3
F0.01
sS'absolutely'
p4
F0.01
sS'integral'
p5
F0.01
sS'primary'
p6
F0.01
sS'alive'
p7
F0.02
sS'urgent'
p8
F0.01
sS'substantial'
p9
F0.01
sS'desperate'
p10
F0.01
sS'principal'
p11
F0.01
sS'perfect'
p12
F0.01
sS'indispensible'
p13
F0.01
sS'conclusive'
p14
F0.02
sS'indispensable'
p15
F0.03
sS'unavoidable'
p16
F0.01
sS'crucial'
p17
F0.06
sS'vital'
p18
F0.06
sS'pivotal'
p19
F0.04
sS'inalienable'
p20
F0.01
sS'basic'
p21
F0.02
sS'imperative'
p22
F0.03
sS'decisive'
p23
F0.03
sS'absolute'
p24
F0.02
sS'prerequisite'
p25
F0.01
sS'greatest'
p26
F0.01
sS'paramount'
p27
F0.06
sS'greater'
p28
F0.01
sS'though'
p29
F0.02
sS'inconclusive'
p30
F0.01
sS'largest'
p31
F0.02
sS'instrumental'
p32
F0.03
sS'primordial'
p33
F0.01
sS'important'
p34
F0.04
sS'key'
p35
F0.03
sS'central'
p36
F0.01
sS'inevitable'
p37
F0.01
sS'bigger'
p38
F0.01
sS'prominent'
p39
F0.01
sS'main'
p40
F0.01
sS'necessary'
p41
F0.01
sS'larger'
p42
F0.01
sS'indisputable'
p43
F0.01
sS'cardinal'
p44
F0.02
sS'critical'
p45
F0.07
sS'fundamental'
p46
F0.03
sS'invaluable'
p47
F0.01
sS'unfettered'
p48
F0.01
sS'essential'
p49
F0.05
s.