(dp0
S'lowest'
p1
F0.015625
sS'smaller'
p2
F0.015625
sS'slower'
p3
F0.015625
sS'less'
p4
F0.015625
sS'shaky'
p5
F0.03125
sS'precarious'
p6
F0.03125
sS'weaker'
p7
F0.046875
sS'tenuous'
p8
F0.03125
sS'helpless'
p9
F0.015625
sS'brittle'
p10
F0.015625
sS'vulnerable'
p11
F0.09375
sS'before'
p12
F0.03125
sS'sensitive'
p13
F0.0625
sS'lackluster'
p14
F0.015625
sS'poorest'
p15
F0.015625
sS'smallest'
p16
F0.015625
sS'volatile'
p17
F0.015625
sS'frail'
p18
F0.015625
sS'sluggish'
p19
F0.015625
sS'poor'
p20
F0.03125
sS'slim'
p21
F0.015625
sS'insecure'
p22
F0.046875
sS'weak'
p23
F0.046875
sS'delicate'
p24
F0.03125
sS'muted'
p25
F0.015625
sS'lower'
p26
F0.015625
sS'elusive'
p27
F0.015625
sS'double'
p28
F0.015625
sS'fragile'
p29
F0.078125
sS'susceptible'
p30
F0.078125
sS'thin'
p31
F0.015625
sS'liable'
p32
F0.015625
sS'unsteady'
p33
F0.015625
sS'soft'
p34
F0.015625
sS'weakest'
p35
F0.03125
s.