(dp0
S'beneficial'
p1
F0.025
sS'welcomed'
p2
F0.075
sS'delighted'
p3
F0.025
sS'acclaimed'
p4
F0.025
sS'pleased'
p5
F0.05
sS'laudable'
p6
F0.05
sS'unwelcome'
p7
F0.025
sS'pray'
p8
F0.075
sS'positive'
p9
F0.025
sS'fortunate'
p10
F0.025
sS'terrific'
p11
F0.025
sS'satisfactory'
p12
F0.025
sS'nice'
p13
F0.025
sS'welcome'
p14
F0.125
sS'praiseworthy'
p15
F0.05
sS'favourable'
p16
F0.025
sS'excellent'
p17
F0.05
sS'precious'
p18
F0.025
sS'overwhelming'
p19
F0.025
sS'glad'
p20
F0.025
sS'happier'
p21
F0.025
sS'helpful'
p22
F0.025
sS'invaluable'
p23
F0.025
sS'happy'
p24
F0.05
sS'commendable'
p25
F0.05
sS'well-received'
p26
F0.025
s.