(dp0
S'wide'
p1
F0.0625
sS'broader'
p2
F0.125
sS'widest'
p3
F0.0625
sS'broad'
p4
F0.125
sS'larger'
p5
F0.1875
sS'large'
p6
F0.0625
sS'wide-ranging'
p7
F0.0625
sS'largest'
p8
F0.0625
sS'wider'
p9
F0.125
sS'international'
p10
F0.0625
sS'broader-based'
p11
F0.0625
s.