(dp0
S'universal'
p1
F0.39436619718309857
sS'general'
p2
F0.014084507042253521
sS'broader'
p3
F0.014084507042253521
sS'wider'
p4
F0.014084507042253521
sS'endemic'
p5
F0.014084507042253521
sS'widest'
p6
F0.014084507042253521
sS'generalized'
p7
F0.014084507042253521
sS'largest'
p8
F0.014084507042253521
sS'biggest'
p9
F0.014084507042253521
sS'widespread'
p10
F0.04225352112676056
sS'increasing'
p11
F0.014084507042253521
sS'pervasive'
p12
F0.04225352112676056
sS'commonplace'
p13
F0.014084507042253521
sS'ubiquitous'
p14
F0.028169014084507043
sS'increased'
p15
F0.014084507042253521
sS'broadest'
p16
F0.014084507042253521
sS'highest'
p17
F0.014084507042253521
sS'rampant'
p18
F0.04225352112676056
sS'extensive'
p19
F0.014084507042253521
sS'bigger'
p20
F0.014084507042253521
sS'generalised'
p21
F0.014084507042253521
sS'prevalent'
p22
F0.056338028169014086
sS'broad-based'
p23
F0.014084507042253521
sS'larger'
p24
F0.014084507042253521
sS'stronger'
p25
F0.014084507042253521
sS'rife'
p26
F0.028169014084507043
sS'common'
p27
F0.07042253521126761
sS'growing'
p28
F0.014084507042253521
sS'broader-based'
p29
F0.014084507042253521
s.