(dp0
S'tough'
p1
F0.029411764705882353
sS'harsh'
p2
F0.029411764705882353
sS'though'
p3
F0.8529411764705882
sS'hard'
p4
F0.029411764705882353
sS'arduous'
p5
F0.029411764705882353
sS'difficult'
p6
F0.029411764705882353
s.