(dp0
S'distressing'
p1
F0.10526315789473684
sS'alarming'
p2
F0.10526315789473684
sS'concerned'
p3
F0.05263157894736842
sS'precarious'
p4
F0.05263157894736842
sS'disquieting'
p5
F0.10526315789473684
sS'disturbing'
p6
F0.05263157894736842
sS'troubling'
p7
F0.10526315789473684
sS'frightening'
p8
F0.05263157894736842
sS'worrying'
p9
F0.21052631578947367
sS'worrisome'
p10
F0.15789473684210525
s.