(dp0
S'worse'
p1
F0.25
sS'horrendous'
p2
F0.08333333333333333
sS'terrible'
p3
F0.08333333333333333
sS'terrific'
p4
F0.08333333333333333
sS'severe'
p5
F0.08333333333333333
sS'worst'
p6
F0.16666666666666666
sS'seriously'
p7
F0.08333333333333333
sS'horrible'
p8
F0.08333333333333333
sS'serious'
p9
F0.08333333333333333
s.