(dp0
S'right'
p1
F0.16666666666666666
sS'worthwhile'
p2
F0.16666666666666666
sS'rigght'
p3
F0.16666666666666666
sS'worrying'
p4
F0.16666666666666666
sS'worthy'
p5
F0.16666666666666666
sS'worth'
p6
F0.16666666666666666
s.