(dp0
S'useful'
p1
F0.08333333333333333
sS'helpful'
p2
F0.08333333333333333
sS'remarkable'
p3
F0.08333333333333333
sS'in'
p4
F0.25
sS'valuable'
p5
F0.08333333333333333
sS'worthy'
p6
F0.08333333333333333
sS'invaluable'
p7
F0.08333333333333333
sS'precious'
p8
F0.08333333333333333
sS'handy'
p9
F0.08333333333333333
sS'worthwhile'
p10
F0.08333333333333333
s.