(dp0
S'on'
p1
F0.22580645161290322
sS'fair'
p2
F0.03225806451612903
sS'disciplined'
p3
F0.03225806451612903
sS'straight'
p4
F0.03225806451612903
sS'dishonest'
p5
F0.03225806451612903
sS'honest'
p6
F0.03225806451612903
sS'respectable'
p7
F0.03225806451612903
sS'too'
p8
F0.12903225806451613
sS'in'
p9
F0.41935483870967744
sS'truthful'
p10
F0.03225806451612903
s.