(dp0
S'marvellous'
p1
F0.1
sS'scrumptious'
p2
F0.1
sS'awesome'
p3
F0.1
sS'terrific'
p4
F0.1
sS'delightful'
p5
F0.1
sS'fabulous'
p6
F0.1
sS'delicious'
p7
F0.1
sS'sweet'
p8
F0.1
sS'wonderful'
p9
F0.1
sS'lovely'
p10
F0.1
s.