(dp0
Vcommensurate
p1
F0.07692307692307693
sVresilient
p2
F0.07692307692307693
sVadaptable
p3
F0.15384615384615385
sVappropriate
p4
F0.15384615384615385
sVresponsive
p5
F0.07692307692307693
sVadequate
p6
F0.07692307692307693
sVsuitable
p7
F0.15384615384615385
sVadapted
p8
F0.07692307692307693
sVadaptive
p9
F0.07692307692307693
sVspecial
p10
F0.07692307692307693
s.