(dp0
Vloveable
p1
F0.1
sVcute
p2
F0.1
sVsweet
p3
F0.1
sVamazing
p4
F0.05
sVcharming
p5
F0.05
sVlovable
p6
F0.1
sVdelightful
p7
F0.1
sVwonderful
p8
F0.1
sVprecious
p9
F0.05
sVlovely
p10
F0.1
sVadorable
p11
F0.05
sVdarling
p12
F0.05
sVnice
p13
F0.05
s.