(dp0
Vscary
p1
F0.03333333333333333
sVafraid
p2
F0.2
sVanymore
p3
F0.03333333333333333
sVfearful
p4
F0.1
sVshy
p5
F0.03333333333333333
sVscared
p6
F0.06666666666666667
sVupset
p7
F0.03333333333333333
sVworried
p8
F0.1
sVfrightening
p9
F0.06666666666666667
sValright
p10
F0.03333333333333333
sVpanicked
p11
F0.03333333333333333
sVterrifying
p12
F0.03333333333333333
sVterrified
p13
F0.06666666666666667
sVfurious
p14
F0.03333333333333333
sVfrightened
p15
F0.1
sVnervous
p16
F0.03333333333333333
s.