(dp0
Vunharmed
p1
F0.0625
sVliving
p2
F0.25
sVresident
p3
F0.0625
sVvibrant
p4
F0.0625
sVdead
p5
F0.0625
sVlive
p6
F0.125
sValive
p7
F0.1875
sValright
p8
F0.0625
sVkilled
p9
F0.0625
sVlively
p10
F0.0625
s.