(dp0
Vsmaller
p1
F0.045454545454545456
sVambitious
p2
F0.4090909090909091
sVover-ambitious
p3
F0.09090909090909091
sVfar-reaching
p4
F0.22727272727272727
sVbroader
p5
F0.045454545454545456
sVoverambitious
p6
F0.09090909090909091
sVchallenging
p7
F0.09090909090909091
s.