(dp0
Vfunny
p1
F0.15
sVcute
p2
F0.05
sVwitty
p3
F0.05
sVenjoyable
p4
F0.05
sVstrange
p5
F0.05
sVsilly
p6
F0.05
sVamusing
p7
F0.1
sVhilarious
p8
F0.15
sVfun
p9
F0.05
sVdroll
p10
F0.05
sVentertaining
p11
F0.1
sVexciting
p12
F0.05
sVodd
p13
F0.05
sVweird
p14
F0.05
s.