(dp0
Vapplied
p1
F0.07142857142857142
sVactionable
p2
F0.03571428571428571
sVrelevant
p3
F0.03571428571428571
sVnecessary
p4
F0.07142857142857142
sVuniversal
p5
F0.03571428571428571
sVrequired
p6
F0.03571428571428571
sVapplicable
p7
F0.10714285714285714
sVenforceable
p8
F0.07142857142857142
sVcurrent
p9
F0.03571428571428571
sVpayable
p10
F0.03571428571428571
sVappropriate
p11
F0.10714285714285714
sVvalid
p12
F0.03571428571428571
sVpracticable
p13
F0.03571428571428571
sVworkable
p14
F0.03571428571428571
sVpertinent
p15
F0.03571428571428571
sVextant
p16
F0.03571428571428571
sVself-executing
p17
F0.07142857142857142
sVnon-self-executing
p18
F0.03571428571428571
sVimplementable
p19
F0.03571428571428571
sVfeasible
p20
F0.03571428571428571
s.