(dp0
Vparticularly
p1
F0.14285714285714285
sVlike
p2
F0.14285714285714285
sVe.g.
p3
F0.14285714285714285
sVwhilst
p4
F0.14285714285714285
sVas
p5
F0.14285714285714285
sVso
p6
F0.14285714285714285
sVparticular
p7
F0.14285714285714285
s.