(dp0
Voutrageous
p1
F0.09090909090909091
sVembarrassing
p2
F0.09090909090909091
sVshy
p3
F0.09090909090909091
sVhumiliating
p4
F0.09090909090909091
sVterrible
p5
F0.09090909090909091
sVembarrassed
p6
F0.09090909090909091
sVshameful
p7
F0.09090909090909091
sVhorrible
p8
F0.09090909090909091
sVawful
p9
F0.09090909090909091
sVweird
p10
F0.09090909090909091
sVdisgraceful
p11
F0.09090909090909091
s.