(dp0
Vgeneral
p1
F0.041666666666666664
sVwide-ranging
p2
F0.041666666666666664
sVdiverse
p3
F0.041666666666666664
sVbroader
p4
F0.041666666666666664
sVbroad
p5
F0.041666666666666664
sVenvironmentally-friendly
p6
F0.041666666666666664
sVgeographically
p7
F0.041666666666666664
sVeco-friendly
p8
F0.041666666666666664
sVgeographical
p9
F0.041666666666666664
sVwidespread
p10
F0.041666666666666664
sVscience-based
p11
F0.041666666666666664
sVacross-the-board
p12
F0.041666666666666664
sVscientific
p13
F0.041666666666666664
sVbroadest
p14
F0.041666666666666664
sVenvironmental
p15
F0.041666666666666664
sVecological
p16
F0.041666666666666664
sVhistoric
p17
F0.041666666666666664
sVecologically
p18
F0.041666666666666664
sVtechnical
p19
F0.041666666666666664
sVbroad-based
p20
F0.041666666666666664
sVall-encompassing
p21
F0.041666666666666664
sVall-inclusive
p22
F0.041666666666666664
sVhistorical
p23
F0.041666666666666664
sVgeographic
p24
F0.041666666666666664
s.