(dp0
Vcute
p1
F0.01873536299765808
sVfantastic
p2
F0.02107728337236534
sVbright
p3
F0.01405152224824356
sVfine
p4
F0.02107728337236534
sVperfect
p5
F0.00936768149882904
sVridonc
p6
F0.00468384074941452
sVcherry
p7
F0.00936768149882904
sVhot
p8
F0.00702576112412178
sVbetter
p9
F0.00234192037470726
sVbrighter
p10
F0.00234192037470726
sVattractive
p11
F0.00936768149882904
sVeasy
p12
F0.00234192037470726
sVadmirable
p13
F0.00234192037470726
sVfiner
p14
F0.00468384074941452
sVspectacular
p15
F0.0234192037470726
sVsunny
p16
F0.00702576112412178
sVfat
p17
F0.00234192037470726
sVbonnie
p18
F0.00468384074941452
sVdreamy
p19
F0.00468384074941452
sVcool
p20
F0.00234192037470726
sViovely
p21
F0.01405152224824356
sVradiant
p22
F0.00234192037470726
sVmarvellous
p23
F0.02107728337236534
sVdelightful
p24
F0.01405152224824356
sVexquisite
p25
F0.02107728337236534
sVfair
p26
F0.00468384074941452
sVmagnificent
p27
F0.02810304449648712
sVfabulous
p28
F0.02107728337236534
sVdivine
p29
F0.00702576112412178
sVbest
p30
F0.00234192037470726
sVlovelier
p31
F0.00234192037470726
sVsuperb
p32
F0.02107728337236534
sVwondrous
p33
F0.00234192037470726
sVadorable
p34
F0.00702576112412178
sVom-mazing
p35
F0.00468384074941452
sVmasterful
p36
F0.0117096018735363
sVpleasant
p37
F0.00234192037470726
sVgood-looking
p38
F0.01405152224824356
sVsexy
p39
F0.0117096018735363
sVsuper
p40
F0.00468384074941452
sVgreat
p41
F0.01873536299765808
sVbrilliant
p42
F0.02107728337236534
sVflawless
p43
F0.00234192037470726
sVglorious
p44
F0.01405152224824356
sVbreathtaking
p45
F0.0234192037470726
sVfinest
p46
F0.00468384074941452
sVsweet
p47
F0.0234192037470726
sVmarvelous
p48
F0.0234192037470726
sVdelicious
p49
F0.0117096018735363
sVimpeccable
p50
F0.00234192037470726
sVtremendous
p51
F0.00468384074941452
sVcomfy
p52
F0.00234192037470726
sVwonderful
p53
F0.02810304449648712
sVprettier
p54
F0.01639344262295082
sVwonderfui
p55
F0.00234192037470726
sVgorgeous
p56
F0.0234192037470726
sVcuter
p57
F0.00234192037470726
sVlovely
p58
F0.03044496487119438
sVravishing
p59
F0.00234192037470726
sVpretty
p60
F0.03278688524590164
sVelse
p61
F0.00234192037470726
sVmama
p62
F0.00234192037470726
sVwarm
p63
F0.00234192037470726
sVexcellent
p64
F0.00702576112412178
sVhandsome
p65
F0.02576112412177986
sVglowing
p66
F0.00234192037470726
sVugly
p67
F0.01405152224824356
sVstunning
p68
F0.00234192037470726
sVneat
p69
F0.00468384074941452
sVsweeter
p70
F0.0117096018735363
sVsublime
p71
F0.0117096018735363
sVsunnier
p72
F0.00234192037470726
sVbeautiful
p73
F0.0234192037470726
sVcrazy
p74
F0.00234192037470726
sVbeautifui
p75
F0.01639344262295082
sVnicer
p76
F0.0117096018735363
sVoutstanding
p77
F0.00234192037470726
sVawesome
p78
F0.0234192037470726
sVfairer
p79
F0.00468384074941452
sVincredible
p80
F0.0117096018735363
sVbelle
p81
F0.00936768149882904
sVterrific
p82
F0.0234192037470726
sVamazing
p83
F0.01639344262295082
sVgrand
p84
F0.00702576112412178
sVnice
p85
F0.02810304449648712
sVunbelievable
p86
F0.00234192037470726
sVpurty
p87
F0.00702576112412178
sVcharming
p88
F0.00936768149882904
sVsplendid
p89
F0.0234192037470726
sVphenomenal
p90
F0.00702576112412178
s.