(dp0
Vbeautiful
p1
F0.16666666666666666
sVunabated
p2
F0.16666666666666666
sVbetter-iooking
p3
F0.16666666666666666
sVprettier
p4
F0.16666666666666666
sVpretty
p5
F0.16666666666666666
sVfairer
p6
F0.16666666666666666
s.