(dp0
Vsensible
p1
F0.05263157894736842
sVcautious
p2
F0.10526315789473684
sVwise
p3
F0.10526315789473684
sVwary
p4
F0.10526315789473684
sVprudent
p5
F0.15789473684210525
sVconservative
p6
F0.10526315789473684
sVwiser
p7
F0.05263157894736842
sVvigilant
p8
F0.10526315789473684
sVcareful
p9
F0.15789473684210525
sValert
p10
F0.05263157894736842
s.