(dp0
Vsure
p1
F0.11904761904761904
sVuncertain
p2
F0.023809523809523808
sVsecure
p3
F0.07142857142857142
sVassured
p4
F0.047619047619047616
sVcourse
p5
F0.047619047619047616
sVsafest
p6
F0.023809523809523808
sVcertain
p7
F0.14285714285714285
sVreliable
p8
F0.047619047619047616
sVdefinite
p9
F0.07142857142857142
sVclearer
p10
F0.023809523809523808
sVdoubtful
p11
F0.047619047619047616
sVconfident
p12
F0.14285714285714285
sVmaintained
p13
F0.023809523809523808
sVright
p14
F0.023809523809523808
sVtrue
p15
F0.07142857142857142
sVwarmest
p16
F0.023809523809523808
sVwarm
p17
F0.023809523809523808
sVconvinced
p18
F0.023809523809523808
s.