(dp0
Vbeautiful
p1
F0.02
sVown
p2
F0.02
sVsweet
p3
F0.02
sVright
p4
F0.02
sVtasty
p5
F0.02
sVproper
p6
F0.02
sVfine
p7
F0.04
sVwell
p8
F0.02
sVperfect
p9
F0.02
sVhouse-trained
p10
F0.02
sVenvironmentally-friendly
p11
F0.02
sVhealthier
p12
F0.02
sVeco-friendly
p13
F0.02
sVneat
p14
F0.1
sVnet
p15
F0.02
sVlovely
p16
F0.02
sVcorrect
p17
F0.02
sVnice
p18
F0.02
sVhousebroken
p19
F0.04
sVspotless
p20
F0.06
sVenvironmental
p21
F0.02
sVecological
p22
F0.02
sVecologically
p23
F0.02
sVforgiving
p24
F0.02
sVimpeccable
p25
F0.02
sVsuper
p26
F0.02
sVcool
p27
F0.02
sVallright
p28
F0.02
sVhealthy
p29
F0.02
sVsmooth
p30
F0.02
sVflawless
p31
F0.02
sVorderly
p32
F0.02
sVsane
p33
F0.02
sVgreen
p34
F0.02
sVclean
p35
F0.12
sValright
p36
F0.02
sVstale
p37
F0.02
s.