(dp0
Vcloser
p1
F0.12
sVprecise
p2
F0.02
sVaround
p3
F0.06
sVclosest
p4
F0.16
sVpractically
p5
F0.06
sVvery
p6
F0.02
sVaway
p7
F0.02
sVexactly
p8
F0.02
sVnearest
p9
F0.02
sValmost
p10
F0.08
sVnear
p11
F0.12
sVnearly
p12
F0.06
sVcarefully
p13
F0.02
sVclose
p14
F0.18
sVintense
p15
F0.02
sVvirtually
p16
F0.02
s.