(dp0
Vincompatible
p1
F0.11764705882352941
sVconsistent
p2
F0.11764705882352941
sVsupported
p3
F0.11764705882352941
sVenvironmentally-friendly
p4
F0.058823529411764705
sVcompatible
p5
F0.17647058823529413
sVcompliant
p6
F0.11764705882352941
sVgreen
p7
F0.058823529411764705
sVinconsistent
p8
F0.058823529411764705
sVreconcilable
p9
F0.058823529411764705
sVinteroperable
p10
F0.058823529411764705
sVenvironment-friendly
p11
F0.058823529411764705
s.