(dp0
Vcomplete
p1
F0.1111111111111111
sVcomplementary
p2
F0.2222222222222222
sVinterdependent
p3
F0.1111111111111111
sVsupplementary
p4
F0.1111111111111111
sVcomplements
p5
F0.1111111111111111
sVcomplimentary
p6
F0.1111111111111111
sVsupplemental
p7
F0.1111111111111111
sVadditional
p8
F0.1111111111111111
s.