(dp0
Voff-the-record
p1
F0.18181818181818182
sVconfidentiality
p2
F0.045454545454545456
sVconfidential
p3
F0.2727272727272727
sVclassified
p4
F0.18181818181818182
sVsecret
p5
F0.045454545454545456
sVneed-to-know
p6
F0.18181818181818182
sVanonymous
p7
F0.045454545454545456
sVprivileged
p8
F0.045454545454545456
s.