(dp0
Vgone
p1
F0.03125
sVunclear
p2
F0.0625
sVuncertain
p3
F0.03125
sVlost
p4
F0.09375
sVupset
p5
F0.03125
sVconfused
p6
F0.125
sVdisorientated
p7
F0.0625
sVdisoriented
p8
F0.09375
sVembarrassed
p9
F0.0625
sVdisturbed
p10
F0.03125
sVfuzzy
p11
F0.03125
sVn'tunderstand
p12
F0.03125
sVmessy
p13
F0.0625
sVclueless
p14
F0.03125
sVsorry
p15
F0.03125
sVtroubled
p16
F0.03125
sVoverwhelmed
p17
F0.0625
sVblurry
p18
F0.03125
sVconfusing
p19
F0.0625
s.