(dp0
Vgreat
p1
F0.06666666666666667
sVfirst-rate
p2
F0.06666666666666667
sVsplendid
p3
F0.06666666666666667
sVoutstanding
p4
F0.06666666666666667
sVpositive
p5
F0.06666666666666667
sVmagnificent
p6
F0.06666666666666667
sVconstructive
p7
F0.2
sVwonderful
p8
F0.06666666666666667
sVexcellent
p9
F0.06666666666666667
sVmeaningful
p10
F0.26666666666666666
s.