(dp0
Vprofitable
p1
F0.05263157894736842
sVworthwhile
p2
F0.05263157894736842
sVeffective
p3
F0.05263157894736842
sVcost-efficient
p4
F0.10526315789473684
sVefficient
p5
F0.15789473684210525
sVcheapest
p6
F0.05263157894736842
sVcheaper
p7
F0.05263157894736842
sVcost-effectively
p8
F0.10526315789473684
sVlucrative
p9
F0.10526315789473684
sVeconomical
p10
F0.05263157894736842
sVcost-effective
p11
F0.10526315789473684
sVcosteffective
p12
F0.05263157894736842
sVcost-effectiveness
p13
F0.05263157894736842
s.