(dp0
Vtimely
p1
F0.125
sVpast
p2
F0.0625
sVupdated
p3
F0.125
sVnewest
p4
F0.0625
sVlater
p5
F0.0625
sVyounger
p6
F0.0625
sVexisting
p7
F0.0625
sVcurrent
p8
F0.0625
sVongoing
p9
F0.0625
sVnewer
p10
F0.0625
sVlast
p11
F0.0625
sVrecent
p12
F0.0625
sVpresent
p13
F0.0625
sVlatest
p14
F0.0625
s.