(dp0
V-ready
p1
F0.043478260869565216
sVdire
p2
F0.13043478260869565
sVneedy
p3
F0.08695652173913043
sVforlorn
p4
F0.08695652173913043
sVprepared
p5
F0.043478260869565216
sVwilling
p6
F0.043478260869565216
sVfrantic
p7
F0.08695652173913043
sVhopeless
p8
F0.17391304347826086
sVdesperate
p9
F0.08695652173913043
sVready
p10
F0.043478260869565216
sVbereft
p11
F0.08695652173913043
sVreckless
p12
F0.08695652173913043
s.