(dp0
Vfixated
p1
F0.14285714285714285
sVgeographical
p2
F0.14285714285714285
sVgeographically
p3
F0.14285714285714285
sVdetermined
p4
F0.14285714285714285
sVdeterminable
p5
F0.14285714285714285
sVdecisive
p6
F0.14285714285714285
sVgeographic
p7
F0.14285714285714285
s.