(dp0
Vquestionable
p1
F0.14285714285714285
sVcontestable
p2
F0.14285714285714285
sVcontentious
p3
F0.14285714285714285
sVdisputable
p4
F0.14285714285714285
sVobjectionable
p5
F0.14285714285714285
sVdubious
p6
F0.14285714285714285
sVdebatable
p7
F0.14285714285714285
s.