(dp0
Vdistressing
p1
F0.05
sVworse
p2
F0.05
sValarming
p3
F0.05
sVtroubling
p4
F0.1
sVdisquieting
p5
F0.05
sVuncomfortable
p6
F0.05
sVsobering
p7
F0.05
sVworst
p8
F0.05
sVdire
p9
F0.05
sVstaggering
p10
F0.05
sVdisturbing
p11
F0.15
sVshocking
p12
F0.05
sValarmed
p13
F0.05
sVfrightening
p14
F0.05
sVworrying
p15
F0.05
sVworrisome
p16
F0.05
sVconfusing
p17
F0.05
s.