(dp0
Vwide
p1
F0.03125
sVdifferent
p2
F0.0625
sVmanifold
p3
F0.03125
sVvaried
p4
F0.0625
sVdisparate
p5
F0.03125
sVbroad
p6
F0.03125
sVdiversified
p7
F0.09375
sVmulticultural
p8
F0.03125
sVmultifaceted
p9
F0.03125
sVwide-ranging
p10
F0.0625
sVwider
p11
F0.03125
sVcultural
p12
F0.03125
sVdiverse
p13
F0.15625
sVvarious
p14
F0.09375
sVculturally
p15
F0.03125
sVbroader
p16
F0.0625
sVmixed
p17
F0.0625
sVpluralistic
p18
F0.03125
sVnumerous
p19
F0.03125
s.