(dp0
Vconsiderable
p1
F0.03125
sVstraightforward
p2
F0.03125
sVsimple
p3
F0.09375
sVconvenient
p4
F0.03125
sVsmoother
p5
F0.125
sVeasier
p6
F0.125
sVsimplified
p7
F0.0625
sVeasy
p8
F0.125
sVsimplest
p9
F0.09375
sVeasiest
p10
F0.15625
sVsimpler
p11
F0.125
s.