(dp0
Vtroublesome
p1
F0.03571428571428571
sVembarrassing
p2
F0.03571428571428571
sVconfused
p3
F0.03571428571428571
sVembarrassed
p4
F0.07142857142857142
sVdistracting
p5
F0.03571428571428571
sVuncomfortable
p6
F0.03571428571428571
sVmessy
p7
F0.03571428571428571
sVdisturbing
p8
F0.03571428571428571
sVannoying
p9
F0.03571428571428571
sVconfusing
p10
F0.03571428571428571
sVawkward
p11
F0.03571428571428571
sVnervous
p12
F0.03571428571428571
sVhorrible
p13
F0.03571428571428571
sVsorry
p14
F0.03571428571428571
sVdisgraceful
p15
F0.03571428571428571
sVhumiliating
p16
F0.03571428571428571
sVshameful
p17
F0.03571428571428571
sVashamed
p18
F0.03571428571428571
sVawful
p19
F0.03571428571428571
sVinconvenient
p20
F0.03571428571428571
sVinexcusable
p21
F0.03571428571428571
sVshy
p22
F0.03571428571428571
sVterrible
p23
F0.03571428571428571
sVoutrageous
p24
F0.03571428571428571
sVbothersome
p25
F0.03571428571428571
sVmixed
p26
F0.03571428571428571
sVweird
p27
F0.03571428571428571
s.