(dp0
Vstrengthened
p1
F0.16666666666666666
sVstrengthening
p2
F0.16666666666666666
sVincreased
p3
F0.16666666666666666
sVreinforcing
p4
F0.16666666666666666
sVenhancement
p5
F0.16666666666666666
sVenhanced
p6
F0.16666666666666666
s.