(dp0
Vhuge
p1
F0.0784313725490196
sVenormous
p2
F0.058823529411764705
sVdaunting
p3
F0.0196078431372549
sVtremendous
p4
F0.0784313725490196
sVbig
p5
F0.058823529411764705
sVawesome
p6
F0.0784313725490196
sVhilarious
p7
F0.0784313725490196
sVgrotesque
p8
F0.0392156862745098
sVrad
p9
F0.0196078431372549
sVstaggering
p10
F0.0392156862745098
sVterrific
p11
F0.0196078431372549
sVimmense
p12
F0.0784313725490196
sVmassive
p13
F0.0784313725490196
sVformidable
p14
F0.0784313725490196
sVgigantic
p15
F0.0784313725490196
sVoverwhelming
p16
F0.0784313725490196
sVvast
p17
F0.0392156862745098
s.