(dp0
Vbeautiful
p1
F0.09090909090909091
sVfantastic
p2
F0.09090909090909091
sVearliest
p3
F0.09090909090909091
sVpremier
p4
F0.09090909090909091
sVsooner
p5
F0.09090909090909091
sVfirst
p6
F0.09090909090909091
sVwonderful
p7
F0.09090909090909091
sVfirstly
p8
F0.09090909090909091
sVlovely
p9
F0.09090909090909091
sVunprecedented
p10
F0.09090909090909091
sVbefore
p11
F0.09090909090909091
s.