(dp0
Vunambiguous
p1
F0.0625
sVprecise
p2
F0.0625
sVevident
p3
F0.125
sVstraightforward
p4
F0.125
sVplain
p5
F0.0625
sVaccurate
p6
F0.0625
sVapparent
p7
F0.0625
sVclearer
p8
F0.125
sVclear
p9
F0.125
sVobvious
p10
F0.0625
sVself-explanatory
p11
F0.125
s.