(dp0
Vawesome
p1
F0.03225806451612903
sVformidable
p2
F0.03225806451612903
sVchubby
p3
F0.03225806451612903
sVtremendous
p4
F0.03225806451612903
sVgrotesque
p5
F0.03225806451612903
sVterrific
p6
F0.03225806451612903
sVimmense
p7
F0.03225806451612903
sVbigger
p8
F0.03225806451612903
sVstaggering
p9
F0.03225806451612903
sVbiggest
p10
F0.03225806451612903
sVsensational
p11
F0.03225806451612903
sVbig
p12
F0.03225806451612903
sVoverweight
p13
F0.0967741935483871
sVfat
p14
F0.0967741935483871
sVstocky
p15
F0.03225806451612903
sVstout
p16
F0.03225806451612903
sVoverwhelming
p17
F0.03225806451612903
sVvast
p18
F0.03225806451612903
sVfatter
p19
F0.12903225806451613
sVenormous
p20
F0.03225806451612903
sVlarger
p21
F0.03225806451612903
sVmonumental
p22
F0.03225806451612903
sVdirty
p23
F0.03225806451612903
sVgigantic
p24
F0.03225806451612903
s.