(dp0
Vunsatisfactory
p1
F0.02
sVbeneficial
p2
F0.02
sVfinest
p3
F0.04
sVunfavourable
p4
F0.04
sVless
p5
F0.02
sVappropriate
p6
F0.02
sVsupportive
p7
F0.02
sVbest
p8
F0.04
sVgreater
p9
F0.02
sVterrific
p10
F0.02
sVadvantageous
p11
F0.02
sVbrighter
p12
F0.04
sVpositive
p13
F0.02
sVnegative
p14
F0.02
sVsuperb
p15
F0.02
sVbetter
p16
F0.04
sVadverse
p17
F0.02
sVpreferable
p18
F0.04
sVfriendly
p19
F0.02
sVpropitious
p20
F0.02
sVconducive
p21
F0.04
sVpoor
p22
F0.02
sVgood
p23
F0.04
sVworse
p24
F0.02
sVcheaper
p25
F0.04
sVdisadvantaged
p26
F0.02
sVfavourable
p27
F0.02
sVecological
p28
F0.02
sVfavorable
p29
F0.06
sVexcellent
p30
F0.02
sVstrong
p31
F0.02
sVsound
p32
F0.04
sVstellar
p33
F0.02
sVimproved
p34
F0.02
sVsplendid
p35
F0.02
sVbrilliant
p36
F0.02
sVgreen
p37
F0.02
sVsuitable
p38
F0.02
s.