(dp0
Vterminated
p1
F0.08333333333333333
sVfull
p2
F0.08333333333333333
sVcomplete
p3
F0.16666666666666666
sVanymore
p4
F0.08333333333333333
sVgone
p5
F0.08333333333333333
sVcomprehensive
p6
F0.08333333333333333
sVcompleted
p7
F0.08333333333333333
sVfinished
p8
F0.08333333333333333
sVdone
p9
F0.08333333333333333
sVfinite
p10
F0.08333333333333333
sVover
p11
F0.08333333333333333
s.