(dp0
Vhairy
p1
F0.05263157894736842
sVscary
p2
F0.10526315789473684
sVdreadful
p3
F0.05263157894736842
sVfreaky
p4
F0.05263157894736842
sVawesome
p5
F0.05263157894736842
sVterrible
p6
F0.05263157894736842
sVcreepy
p7
F0.10526315789473684
sVappalling
p8
F0.05263157894736842
sVterrific
p9
F0.05263157894736842
sVterrifying
p10
F0.10526315789473684
sVawful
p11
F0.10526315789473684
sVhorrifying
p12
F0.10526315789473684
sVfrightening
p13
F0.05263157894736842
sVfrightful
p14
F0.05263157894736842
s.