(dp0
Vcute
p1
F0.033707865168539325
sVcrazy
p2
F0.0449438202247191
sVsweet
p3
F0.02247191011235955
sVenjoyable
p4
F0.011235955056179775
sVcurious
p5
F0.011235955056179775
sVwonderful
p6
F0.02247191011235955
sVodd
p7
F0.02247191011235955
sVconfusing
p8
F0.011235955056179775
sVfunny
p9
F0.19101123595505617
sVunusual
p10
F0.02247191011235955
sVfun-loving
p11
F0.011235955056179775
sVwitty
p12
F0.033707865168539325
sVstrange
p13
F0.06741573033707865
sVamusing
p14
F0.011235955056179775
sVhilarious
p15
F0.0898876404494382
sVlovely
p16
F0.011235955056179775
sVnice
p17
F0.011235955056179775
sVclever
p18
F0.011235955056179775
sVyo
p19
F0.011235955056179775
sVdreadful
p20
F0.033707865168539325
sVindiscriminate
p21
F0.011235955056179775
sVridiculous
p22
F0.02247191011235955
sVcool
p23
F0.011235955056179775
sVfunky
p24
F0.011235955056179775
sVsilly
p25
F0.033707865168539325
sVfun
p26
F0.1797752808988764
sVweird
p27
F0.0449438202247191
s.