(dp0
Vmajor
p1
F0.034482758620689655
sVmain
p2
F0.034482758620689655
sVgreater
p3
F0.06896551724137931
sVwidest
p4
F0.06896551724137931
sVolder
p5
F0.06896551724137931
sVprincipal
p6
F0.034482758620689655
sVlarger
p7
F0.06896551724137931
sVstronger
p8
F0.034482758620689655
sVprimary
p9
F0.034482758620689655
sVmajeure
p10
F0.034482758620689655
sV2nd
p11
F0.034482758620689655
sVmost
p12
F0.034482758620689655
sVsecond
p13
F0.034482758620689655
sVgreatest
p14
F0.06896551724137931
sVlargest
p15
F0.06896551724137931
sVbiggest
p16
F0.034482758620689655
sVhighest
p17
F0.06896551724137931
sVbigger
p18
F0.06896551724137931
sVwider
p19
F0.034482758620689655
sVhigher
p20
F0.06896551724137931
s.