(dp0
Vgross
p1
F0.125
sVworthless
p2
F0.0625
sVrotten
p3
F0.0625
sVrough
p4
F0.0625
sVterrible
p5
F0.0625
sVdisgusting
p6
F0.0625
sVoff-putting
p7
F0.0625
sVzero
p8
F0.0625
sVhopeless
p9
F0.0625
sVbogus
p10
F0.0625
sVhorrible
p11
F0.0625
sVhelpless
p12
F0.0625
sVhideous
p13
F0.0625
sVrepugnant
p14
F0.0625
sVuseless
p15
F0.0625
s.