(dp0
Vheavy
p1
F0.16279069767441862
sVtough
p2
F0.046511627906976744
sVhigh
p3
F0.023255813953488372
sVsubstantial
p4
F0.023255813953488372
sVformidable
p5
F0.023255813953488372
sVcumbersome
p6
F0.023255813953488372
sVhuge
p7
F0.046511627906976744
sVonerous
p8
F0.023255813953488372
sVharsh
p9
F0.046511627906976744
sVburdensome
p10
F0.046511627906976744
sVconsiderable
p11
F0.023255813953488372
sVimmense
p12
F0.046511627906976744
sVheavier
p13
F0.046511627906976744
sVdisproportionate
p14
F0.023255813953488372
sVdifficult
p15
F0.023255813953488372
sVenormous
p16
F0.046511627906976744
sVsevere
p17
F0.046511627906976744
sVsignificant
p18
F0.023255813953488372
sVintense
p19
F0.023255813953488372
sVvast
p20
F0.046511627906976744
sVgreat
p21
F0.046511627906976744
sVlarge
p22
F0.046511627906976744
sVinsurmountable
p23
F0.023255813953488372
sVmassive
p24
F0.046511627906976744
sVserious
p25
F0.023255813953488372
s.