(dp0
Vsupreme
p1
F0.047619047619047616
sVlarger
p2
F0.047619047619047616
sVthird
p3
F0.047619047619047616
sVwidest
p4
F0.047619047619047616
sVtop
p5
F0.047619047619047616
sVearlier
p6
F0.047619047619047616
sVsecondary
p7
F0.047619047619047616
sVtaller
p8
F0.047619047619047616
sVgreater
p9
F0.09523809523809523
sV2nd
p10
F0.047619047619047616
sVsecond
p11
F0.047619047619047616
sVgreatest
p12
F0.09523809523809523
sVabove
p13
F0.047619047619047616
sVlargest
p14
F0.047619047619047616
sVuppermost
p15
F0.047619047619047616
sVhighest
p16
F0.047619047619047616
sVbigger
p17
F0.047619047619047616
sVhigher
p18
F0.09523809523809523
s.