(dp0
Vtroublesome
p1
F0.05555555555555555
sVembarrassing
p2
F0.1111111111111111
sVbothersome
p3
F0.05555555555555555
sVawkward
p4
F0.05555555555555555
sVhumiliating
p5
F0.05555555555555555
sVembarrassed
p6
F0.05555555555555555
sVdistracting
p7
F0.05555555555555555
sVdegrading
p8
F0.1111111111111111
sVuncomfortable
p9
F0.05555555555555555
sVdemeaning
p10
F0.1111111111111111
sVmessy
p11
F0.05555555555555555
sVdisturbing
p12
F0.05555555555555555
sVinconvenient
p13
F0.05555555555555555
sVannoying
p14
F0.05555555555555555
sVweird
p15
F0.05555555555555555
s.