(dp0
Vstraightaway
p1
F0.05
sVquicker
p2
F0.05
sVprompt
p3
F0.1
sVfaster
p4
F0.05
sVstraightforward
p5
F0.05
sVforthwith
p6
F0.05
sVimminent
p7
F0.05
sVparamount
p8
F0.05
sVdirect
p9
F0.05
sVimmediate
p10
F0.1
sVurgent
p11
F0.1
sVover-the-air
p12
F0.05
sVimperative
p13
F0.05
sVsooner
p14
F0.05
sVimmediately
p15
F0.1
sVfirst
p16
F0.05
s.