(dp0
Vindispensible
p1
F0.08
sVnecessary
p2
F0.04
sVabsolutely
p3
F0.04
sVindispensable
p4
F0.08
sVcrucial
p5
F0.08
sVinevitable
p6
F0.08
sVimperative
p7
F0.12
sVvital
p8
F0.08
sVcompelling
p9
F0.08
sVcritical
p10
F0.04
sVmandatory
p11
F0.08
sVcompulsory
p12
F0.04
sVprerequisite
p13
F0.08
sVessential
p14
F0.08
s.