(dp0
Vdelighted
p1
F0.16666666666666666
sVblessed
p2
F0.16666666666666666
sVfortunate
p3
F0.16666666666666666
sVgrateful
p4
F0.16666666666666666
sVhappiest
p5
F0.16666666666666666
sVpleased
p6
F0.16666666666666666
s.