(dp0
Vavailable
p1
F0.015625
sVunclear
p2
F0.015625
sVnoteworthy
p3
F0.015625
sVcelebrities
p4
F0.03125
sVwell-known
p5
F0.109375
sVforthcoming
p6
F0.015625
sVopen
p7
F0.015625
sVrenowned
p8
F0.015625
sVunknown
p9
F0.0625
sVcelebrated
p10
F0.015625
sVnote
p11
F0.015625
sVsecret
p12
F0.015625
sVrecognised
p13
F0.015625
sVextensive
p14
F0.015625
sVpublic
p15
F0.015625
sVknowing
p16
F0.03125
sVsure
p17
F0.015625
sVfamiliar
p18
F0.078125
sVapparent
p19
F0.03125
sVclearer
p20
F0.015625
sVaware
p21
F0.03125
sVfamous
p22
F0.046875
sVknow
p23
F0.03125
sVknown
p24
F0.109375
sVwidespread
p25
F0.015625
sVinfamous
p26
F0.015625
sVwide
p27
F0.015625
sVnoticeable
p28
F0.015625
sVlargely
p29
F0.015625
sVclear
p30
F0.015625
sVwell-established
p31
F0.03125
sVstrange
p32
F0.015625
sVobvious
p33
F0.015625
sVbroad
p34
F0.015625
sVpopular
p35
F0.015625
sVnotorious
p36
F0.03125
s.