(dp0
Vlimited
p1
F0.006666666666666667
sVequally
p2
F0.006666666666666667
sVsmaller
p3
F0.08
sVslower
p4
F0.02
sVless
p5
F0.07333333333333333
sVnarrower
p6
F0.013333333333333334
sVweaker
p7
F0.013333333333333334
sVsame
p8
F0.006666666666666667
sVenhanced
p9
F0.013333333333333334
sVfurther
p10
F0.006666666666666667
sVworse
p11
F0.013333333333333334
sVeven
p12
F0.013333333333333334
sVlittle
p13
F0.006666666666666667
sVno
p14
F0.006666666666666667
sVleast
p15
F0.07333333333333333
sVshorter
p16
F0.04
sVreduction
p17
F0.006666666666666667
sVmuch
p18
F0.006666666666666667
sVlow
p19
F0.006666666666666667
sVinferior
p20
F0.02666666666666667
sVmore
p21
F0.02
sVlowest
p22
F0.03333333333333333
sVyounger
p23
F0.02
sVcomparable
p24
F0.006666666666666667
sVincreased
p25
F0.013333333333333334
sVminimal
p26
F0.006666666666666667
sVdifferent
p27
F0.006666666666666667
sVelse
p28
F0.006666666666666667
sVmost
p29
F0.006666666666666667
sValone
p30
F0.02
sVpoorer
p31
F0.006666666666666667
sVconsiderable
p32
F0.006666666666666667
sVbigger
p33
F0.006666666666666667
sVlower
p34
F0.04666666666666667
sVolder
p35
F0.006666666666666667
sVcheaper
p36
F0.013333333333333334
sVsimilarly
p37
F0.006666666666666667
sVstronger
p38
F0.006666666666666667
sVequal
p39
F0.006666666666666667
sVfewer
p40
F0.08666666666666667
sVminus
p41
F0.05333333333333334
sVlesser
p42
F0.07333333333333333
sVbelow
p43
F0.03333333333333333
sVsubstantial
p44
F0.006666666666666667
sVminor
p45
F0.006666666666666667
sVidentical
p46
F0.006666666666666667
sVhigher
p47
F0.013333333333333334
sVsimilar
p48
F0.006666666666666667
sVgreater
p49
F0.02
sVotherwise
p50
F0.006666666666666667
s.