(dp0
Vsmaller
p1
F0.018867924528301886
sVslower
p2
F0.018867924528301886
sVless
p3
F0.03773584905660377
sVforeseeable
p4
F0.05660377358490566
sVdoubtful
p5
F0.03773584905660377
sVplausible
p6
F0.03773584905660377
sVimprobable
p7
F0.018867924528301886
sVlikely
p8
F0.11320754716981132
sVweaker
p9
F0.018867924528301886
sVunlikely
p10
F0.11320754716981132
sVprobable
p11
F0.09433962264150944
sVsusceptible
p12
F0.018867924528301886
sVinsignificant
p13
F0.018867924528301886
sVleast
p14
F0.03773584905660377
sVpotential
p15
F0.018867924528301886
sVarguable
p16
F0.018867924528301886
sVprobably
p17
F0.03773584905660377
sVconceivable
p18
F0.03773584905660377
sVmore
p19
F0.03773584905660377
sVgreater
p20
F0.018867924528301886
sVclosest
p21
F0.018867924528301886
sVearlier
p22
F0.018867924528301886
sVpossible
p23
F0.018867924528301886
sVmost
p24
F0.03773584905660377
sVprevalent
p25
F0.018867924528301886
sVolder
p26
F0.018867924528301886
sVlesser
p27
F0.03773584905660377
sVrather
p28
F0.018867924528301886
s.