(dp0
Vlowest
p1
F0.058823529411764705
sVlesser
p2
F0.029411764705882353
sVlower
p3
F0.23529411764705882
sVsmaller
p4
F0.029411764705882353
sVslower
p5
F0.058823529411764705
sVless
p6
F0.11764705882352941
sVslight
p7
F0.029411764705882353
sVnarrower
p8
F0.058823529411764705
sVlittle
p9
F0.029411764705882353
sVfewer
p10
F0.029411764705882353
sVshorter
p11
F0.029411764705882353
sVbelow
p12
F0.058823529411764705
sVsmallest
p13
F0.058823529411764705
sVleast
p14
F0.029411764705882353
sVlow
p15
F0.14705882352941177
s.