(dp0
Vbeautiful
p1
F0.05
sVbreathtaking
p2
F0.05
sVsplendid
p3
F0.05
sVspectacular
p4
F0.05
sVbrilliant
p5
F0.05
sVawesome
p6
F0.05
sVmagnificent
p7
F0.05
sVfantastic
p8
F0.05
sVsuperb
p9
F0.05
sVterrific
p10
F0.05
sVmarvelous
p11
F0.05
sVstunning
p12
F0.05
sVfabulous
p13
F0.05
sVglorious
p14
F0.05
sVgorgeous
p15
F0.05
sVwonderful
p16
F0.05
sVlovely
p17
F0.05
sVamazing
p18
F0.05
sVmarvellous
p19
F0.05
sVexquisite
p20
F0.05
s.