(dp0
Vabove-mentioned
p1
F0.10526315789473684
sVabove
p2
F0.15789473684210525
sVformerly
p3
F0.05263157894736842
sVpreviously
p4
F0.05263157894736842
sVover
p5
F0.05263157894736842
sVearlier
p6
F0.05263157894736842
sVquestion
p7
F0.05263157894736842
sVherein
p8
F0.05263157894736842
sVsupra
p9
F0.05263157894736842
sVaforesaid
p10
F0.10526315789473684
sVlisted
p11
F0.05263157894736842
sVaforementioned
p12
F0.10526315789473684
sVmentioned
p13
F0.05263157894736842
sVissue
p14
F0.05263157894736842
s.