(dp0
Vsmaller
p1
F0.018518518518518517
sVless
p2
F0.018518518518518517
sVsimple
p3
F0.018518518518518517
sVmarginal
p4
F0.037037037037037035
sVnarrower
p5
F0.018518518518518517
sVmeaningless
p6
F0.018518518518518517
sVmild
p7
F0.018518518518518517
sVminimum
p8
F0.018518518518518517
sVtrivial
p9
F0.037037037037037035
sVlittle
p10
F0.05555555555555555
sVminuscule
p11
F0.018518518518518517
sVinsignificant
p12
F0.037037037037037035
sVtiny
p13
F0.037037037037037035
sVshorter
p14
F0.018518518518518517
sVfew
p15
F0.018518518518518517
sVsmallest
p16
F0.018518518518518517
sVlow
p17
F0.05555555555555555
sVinsubstantial
p18
F0.018518518518518517
sVunderage
p19
F0.018518518518518517
sVminor
p20
F0.09259259259259259
sVlowest
p21
F0.018518518518518517
sVslight
p22
F0.05555555555555555
sVinconsiderable
p23
F0.018518518518518517
sVnominal
p24
F0.018518518518518517
sVlower
p25
F0.018518518518518517
sVshortly
p26
F0.018518518518518517
sVimmaterial
p27
F0.018518518518518517
sVincidental
p28
F0.018518518518518517
sVunimportant
p29
F0.037037037037037035
sVlesser
p30
F0.018518518518518517
sVmodest
p31
F0.05555555555555555
sVnegligible
p32
F0.037037037037037035
sVminimal
p33
F0.05555555555555555
sVsmall
p34
F0.018518518518518517
s.