(dp0
Vinsignificant
p1
F0.16666666666666666
sVtiny
p2
F0.16666666666666666
sVnegligible
p3
F0.16666666666666666
sVminute
p4
F0.16666666666666666
sVminuscule
p5
F0.16666666666666666
sVminimal
p6
F0.16666666666666666
s.