(dp0
Vabsent
p1
F0.2
sVnon-existent
p2
F0.2
sVlacking
p3
F0.13333333333333333
sVpractically
p4
F0.06666666666666667
sVfully
p5
F0.06666666666666667
sVnonexistent
p6
F0.13333333333333333
sVwholly
p7
F0.06666666666666667
sVcompletely
p8
F0.06666666666666667
sVentirely
p9
F0.06666666666666667
s.