(dp0
Vcustomary
p1
F0.017094017094017096
sVabnormal
p2
F0.03418803418803419
sVlogical
p3
F0.017094017094017096
sVproper
p4
F0.017094017094017096
sVfine
p5
F0.017094017094017096
sVunusual
p6
F0.017094017094017096
sVunavoidable
p7
F0.017094017094017096
sVcurrent
p8
F0.008547008547008548
sVfitting
p9
F0.03418803418803419
sVroutine
p10
F0.06837606837606838
sVordinary
p11
F0.08547008547008547
sVunremarkable
p12
F0.008547008547008548
sVcommonplace
p13
F0.008547008547008548
sVokay
p14
F0.017094017094017096
sVnormal
p15
F0.05982905982905983
sVacceptable
p16
F0.008547008547008548
sVstandard
p17
F0.07692307692307693
sVregular
p18
F0.06837606837606838
sVunderstandable
p19
F0.06837606837606838
sVabove-board
p20
F0.05128205128205128
sVnatural
p21
F0.02564102564102564
sVok
p22
F0.017094017094017096
sVprevalent
p23
F0.008547008547008548
sVfluent
p24
F0.008547008547008548
sVdisturbed
p25
F0.017094017094017096
sVreasonable
p26
F0.017094017094017096
sValright
p27
F0.017094017094017096
sVweird
p28
F0.017094017094017096
sVusual
p29
F0.08547008547008547
sVtypical
p30
F0.08547008547008547
s.