(dp0
Veven
p1
F0.0625
sVlate
p2
F0.0625
sVgood
p3
F0.0625
sV-ready
p4
F0.0625
sVaround
p5
F0.0625
sVthere
p6
F0.0625
sVwell
p7
F0.0625
sVherein
p8
F0.0625
sVhere
p9
F0.0625
sVprepared
p10
F0.0625
sVbetter
p11
F0.0625
sVhereto
p12
F0.0625
sVready
p13
F0.0625
sVhereby
p14
F0.0625
sVnow
p15
F0.0625
sVbest
p16
F0.0625
s.