(dp0
Vlower
p1
F0.05
sVsmaller
p2
F0.05
sVmultiple
p3
F0.05
sVgreater
p4
F0.05
sVless
p5
F0.05
sVmany
p6
F0.1
sVlarger
p7
F0.1
sVfewer
p8
F0.05
sVmost
p9
F0.05
sVgreatest
p10
F0.05
sVlargest
p11
F0.1
sVextensive
p12
F0.05
sVhighest
p13
F0.05
sVnumerous
p14
F0.05
sVbigger
p15
F0.05
sVmore
p16
F0.1
s.