(dp0
Vinclusive
p1
F0.047619047619047616
sVopen
p2
F0.16666666666666666
sVopened
p3
F0.047619047619047616
sVunlocked
p4
F0.047619047619047616
sVfreer
p5
F0.023809523809523808
sVwide-open
p6
F0.023809523809523808
sVopening-up
p7
F0.023809523809523808
sVunanswered
p8
F0.023809523809523808
sVunrestricted
p9
F0.023809523809523808
sVblunt
p10
F0.023809523809523808
sVopen-ended
p11
F0.09523809523809523
sVstraightforward
p12
F0.023809523809523808
sVfrank
p13
F0.047619047619047616
sVunoccupied
p14
F0.023809523809523808
sVprepared
p15
F0.023809523809523808
sVcommenced
p16
F0.023809523809523808
sVupfront
p17
F0.023809523809523808
sVtransparent
p18
F0.047619047619047616
sVunresolved
p19
F0.023809523809523808
sVopen-minded
p20
F0.07142857142857142
sVreceptive
p21
F0.023809523809523808
sVhonest
p22
F0.07142857142857142
sVoutstanding
p23
F0.023809523809523808
sVtransparency
p24
F0.023809523809523808
s.