(dp0
Vinadmissible
p1
F0.06666666666666667
sVscandalous
p2
F0.2
sVdisgusting
p3
F0.06666666666666667
sVobscene
p4
F0.06666666666666667
sVunacceptable
p5
F0.06666666666666667
sVoutrageous
p6
F0.13333333333333333
sVshameful
p7
F0.13333333333333333
sVshocking
p8
F0.06666666666666667
sVappalling
p9
F0.06666666666666667
sVdisgraceful
p10
F0.13333333333333333
s.