(dp0
Vlonger
p1
F0.16666666666666666
sVlongstanding
p2
F0.16666666666666666
sVlong
p3
F0.16666666666666666
sVlong-lived
p4
F0.16666666666666666
sVlong-standing
p5
F0.16666666666666666
sVoverdue
p6
F0.16666666666666666
s.