(dp0
Vunpopular
p1
F0.047619047619047616
sVsuccessful
p2
F0.047619047619047616
sVbroadest
p3
F0.047619047619047616
sVmost
p4
F0.047619047619047616
sVgreatest
p5
F0.047619047619047616
sVlargest
p6
F0.047619047619047616
sVpopular
p7
F0.5238095238095238
sVwidespread
p8
F0.047619047619047616
sVhighest
p9
F0.047619047619047616
sVpreferable
p10
F0.047619047619047616
sVwell-received
p11
F0.047619047619047616
s.