(dp0
Vsatisfactory
p1
F0.009615384615384616
sVhiv-positive
p2
F0.009615384615384616
sVuseful
p3
F0.019230769230769232
sVworthwhile
p4
F0.028846153846153848
sVoutstanding
p5
F0.009615384615384616
sVsweet
p6
F0.009615384615384616
sVoverwhelming
p7
F0.038461538461538464
sVbeneficial
p8
F0.028846153846153848
sVvaluable
p9
F0.009615384615384616
sVaffirmative
p10
F0.038461538461538464
sVfinest
p11
F0.009615384615384616
sVokay
p12
F0.009615384615384616
sVaggressive
p13
F0.019230769230769232
sVsupportive
p14
F0.019230769230769232
sVfine
p15
F0.009615384615384616
sVbest
p16
F0.009615384615384616
sVterrific
p17
F0.009615384615384616
sVstrong
p18
F0.009615384615384616
sVadvantageous
p19
F0.009615384615384616
sVcategorical
p20
F0.009615384615384616
sVpositive
p21
F0.0673076923076923
sVdefinite
p22
F0.009615384615384616
sVfortunate
p23
F0.019230769230769232
sVbetter
p24
F0.009615384615384616
sVbrighter
p25
F0.019230769230769232
sVwonderful
p26
F0.009615384615384616
sVinfected
p27
F0.009615384615384616
sVhlv-positive
p28
F0.009615384615384616
sVupbeat
p29
F0.009615384615384616
sVlovely
p30
F0.009615384615384616
sVconducive
p31
F0.019230769230769232
sVconstructive
p32
F0.019230769230769232
sVgood
p33
F0.009615384615384616
sVvigorous
p34
F0.019230769230769232
sVdefinitive
p35
F0.009615384615384616
sVhiv
p36
F0.009615384615384616
sVsuccessful
p37
F0.009615384615384616
sVwelcome
p38
F0.028846153846153848
sVpraiseworthy
p39
F0.009615384615384616
sVencouraging
p40
F0.009615384615384616
sVfavourable
p41
F0.028846153846153848
sVimportant
p42
F0.009615384615384616
sVseropositive
p43
F0.019230769230769232
sVfavorable
p44
F0.019230769230769232
sVexcellent
p45
F0.019230769230769232
sVactive
p46
F0.019230769230769232
sVhelpful
p47
F0.009615384615384616
sVadamant
p48
F0.009615384615384616
sVpositively
p49
F0.028846153846153848
sVsplendid
p50
F0.009615384615384616
sVsound
p51
F0.009615384615384616
sVgreat
p52
F0.009615384615384616
sVfirst-rate
p53
F0.009615384615384616
sVimpressive
p54
F0.009615384615384616
sVinstructive
p55
F0.009615384615384616
sVsolid
p56
F0.009615384615384616
sVenthusiastic
p57
F0.019230769230769232
sVwell
p58
F0.009615384615384616
sVpromising
p59
F0.009615384615384616
sVbrilliant
p60
F0.009615384615384616
sVactively
p61
F0.019230769230769232
sVhiv-infected
p62
F0.009615384615384616
sVdecent
p63
F0.009615384615384616
sVnice
p64
F0.009615384615384616
sVcommendable
p65
F0.019230769230769232
sVproactive
p66
F0.019230769230769232
s.