(dp0
Vsensible
p1
F0.0625
sVachievable
p2
F0.0625
sVreasonably
p3
F0.0625
sVunreasonable
p4
F0.0625
sVfeasible
p5
F0.0625
sVsane
p6
F0.0625
sVpracticable
p7
F0.0625
sVreasonable
p8
F0.0625
sVworkable
p9
F0.0625
sVpossible
p10
F0.0625
sVattainable
p11
F0.0625
sVconceivable
p12
F0.0625
sVmanageable
p13
F0.0625
sVenforceable
p14
F0.0625
sVrealisable
p15
F0.0625
sVreasonnable
p16
F0.0625
s.