(dp0
Vaction-oriented
p1
F0.16666666666666666
sVpractice-oriented
p2
F0.16666666666666666
sVtask-oriented
p3
F0.16666666666666666
sVpractical
p4
F0.16666666666666666
sVrealistic
p5
F0.16666666666666666
sVresults-oriented
p6
F0.16666666666666666
s.