(dp0
Vfragile
p1
F0.1
sVuncertain
p2
F0.1
sVdire
p3
F0.05
sVinsecure
p4
F0.05
sVshaky
p5
F0.1
sVweak
p6
F0.05
sVprecarious
p7
F0.1
sVuneasy
p8
F0.05
sVunstable
p9
F0.1
sVtenuous
p10
F0.1
sVvolatile
p11
F0.15
sVperilous
p12
F0.05
s.