(dp0
Vterrific
p1
F0.07142857142857142
sVsplendid
p2
F0.07142857142857142
sVbrilliant
p3
F0.07142857142857142
sVawesome
p4
F0.07142857142857142
sVwell-prepared
p5
F0.07142857142857142
sVprepared
p6
F0.07142857142857142
sVstellar
p7
F0.07142857142857142
sVunprepared
p8
F0.07142857142857142
sVwilling
p9
F0.07142857142857142
sVexcellent
p10
F0.07142857142857142
sVready
p11
F0.14285714285714285
sVwonderful
p12
F0.07142857142857142
sVsuperb
p13
F0.07142857142857142
s.