(dp0
Vtricky
p1
F0.0625
sVtroublesome
p2
F0.0625
sVchallenging
p3
F0.125
sVtougher
p4
F0.0625
sVproblematic
p5
F0.25
sVharder
p6
F0.0625
sVhardest
p7
F0.0625
sVproblematical
p8
F0.125
sVtroubling
p9
F0.0625
sVworse
p10
F0.0625
sVdifficult
p11
F0.0625
s.