(dp0
Vprofitable
p1
F0.06818181818181818
sVaffordable
p2
F0.09090909090909091
sVworthwhile
p3
F0.06818181818181818
sVeffective
p4
F0.022727272727272728
sVcost-efficient
p5
F0.09090909090909091
sVunprofitable
p6
F0.045454545454545456
sVuneconomical
p7
F0.06818181818181818
sVprofitability
p8
F0.022727272727272728
sVuneconomic
p9
F0.045454545454545456
sVcost-effectively
p10
F0.06818181818181818
sVlucrative
p11
F0.06818181818181818
sVeconomical
p12
F0.06818181818181818
sVcost-effective
p13
F0.11363636363636363
sVcosteffective
p14
F0.045454545454545456
sVcost-effectiveness
p15
F0.022727272727272728
sVviable
p16
F0.09090909090909091
s.