(dp0
Vright
p1
F0.03125
sVfair
p2
F0.03125
sVaccurate
p3
F0.03125
sVapt
p4
F0.03125
sVappropriate
p5
F0.03125
sVproper
p6
F0.0625
sVfine
p7
F0.03125
sVfairer
p8
F0.03125
sVbest
p9
F0.03125
sVopportune
p10
F0.03125
sVincorrect
p11
F0.03125
sVfit
p12
F0.03125
sVdecent
p13
F0.03125
sVwell-formed
p14
F0.0625
sVbetter
p15
F0.03125
sVfitting
p16
F0.03125
sVjustified
p17
F0.03125
sVshifty
p18
F0.03125
sVcorrect
p19
F0.0625
sVokay
p20
F0.03125
sVupright
p21
F0.03125
sVtrue
p22
F0.03125
sVcool
p23
F0.03125
sVok
p24
F0.03125
sVfully
p25
F0.03125
sVexpedient
p26
F0.03125
sValright
p27
F0.03125
sVadvisable
p28
F0.03125
sVsuitable
p29
F0.03125
s.