(dp0
Vbooming
p1
F0.125
sVprosperous
p2
F0.125
sVsuccessful
p3
F0.08333333333333333
sVbuoyant
p4
F0.041666666666666664
sVwell-off
p5
F0.041666666666666664
sVrichest
p6
F0.08333333333333333
sVricher
p7
F0.041666666666666664
sVhealthier
p8
F0.041666666666666664
sVwealthier
p9
F0.041666666666666664
sVrich
p10
F0.041666666666666664
sVwealthy
p11
F0.08333333333333333
sVrobust
p12
F0.041666666666666664
sVthriving
p13
F0.08333333333333333
sVflourishing
p14
F0.125
s.