(dp0
Vmajor
p1
F0.020833333333333332
sVcolossal
p2
F0.020833333333333332
sVsubstantial
p3
F0.020833333333333332
sVreality
p4
F0.020833333333333332
sVreally
p5
F0.020833333333333332
sVspecific
p6
F0.020833333333333332
sVgenuine
p7
F0.041666666666666664
sVauthoritative
p8
F0.020833333333333332
sVauthentic
p9
F0.020833333333333332
sVactually
p10
F0.020833333333333332
sVmeaningful
p11
F0.020833333333333332
sVfatal
p12
F0.020833333333333332
sVtruthful
p13
F0.041666666666666664
sVreal
p14
F0.10416666666666667
sVapparent
p15
F0.020833333333333332
sVreai
p16
F0.041666666666666664
sVvery
p17
F0.020833333333333332
sVexactly
p18
F0.020833333333333332
sVtruly
p19
F0.020833333333333332
sVpalpable
p20
F0.020833333333333332
sVtrue
p21
F0.0625
sVgrave
p22
F0.020833333333333332
sVgreat
p23
F0.020833333333333332
sVactual
p24
F0.0625
sVtangible
p25
F0.020833333333333332
sVrealist
p26
F0.020833333333333332
sVclear
p27
F0.020833333333333332
sVfeasible
p28
F0.020833333333333332
sVpractical
p29
F0.020833333333333332
sVrealistic
p30
F0.041666666666666664
sVsevere
p31
F0.020833333333333332
sVmassive
p32
F0.020833333333333332
sVsubstantive
p33
F0.020833333333333332
sVserious
p34
F0.041666666666666664
sVgenuinely
p35
F0.020833333333333332
s.