(dp0
Vemerging
p1
F0.01818181818181818
sVnewest
p2
F0.01818181818181818
sVinconclusive
p3
F0.01818181818181818
sVup-to-date
p4
F0.01818181818181818
sVpast
p5
F0.03636363636363636
sVfurther
p6
F0.01818181818181818
sVclose
p7
F0.01818181818181818
sVfine
p8
F0.01818181818181818
sVprevious
p9
F0.01818181818181818
sVcloser
p10
F0.01818181818181818
sVdifferent
p11
F0.01818181818181818
sVlatter
p12
F0.01818181818181818
sVbrief
p13
F0.01818181818181818
sVleast
p14
F0.01818181818181818
sVlately
p15
F0.03636363636363636
sVcurrent
p16
F0.01818181818181818
sVother
p17
F0.01818181818181818
sVupdating
p18
F0.01818181818181818
sVcool
p19
F0.01818181818181818
sVfinal
p20
F0.01818181818181818
sVmore
p21
F0.01818181818181818
sVupdated
p22
F0.03636363636363636
sVrecently
p23
F0.09090909090909091
sVelse
p24
F0.01818181818181818
sVyoungest
p25
F0.05454545454545454
sVmost
p26
F0.01818181818181818
sVnewer
p27
F0.01818181818181818
sVchanging
p28
F0.01818181818181818
sVpresent
p29
F0.01818181818181818
sVrecent
p30
F0.09090909090909091
sVtimely
p31
F0.01818181818181818
sVyounger
p32
F0.01818181818181818
sVlast
p33
F0.03636363636363636
sVlater
p34
F0.03636363636363636
sVshortly
p35
F0.01818181818181818
sVgreatest
p36
F0.01818181818181818
sVfresh
p37
F0.03636363636363636
sVlatest
p38
F0.03636363636363636
s.