(dp0
Vacross-the-board
p1
F0.1111111111111111
sVcomprehensive
p2
F0.1111111111111111
sVbroad-based
p3
F0.1111111111111111
sVthorough
p4
F0.1111111111111111
sVall-encompassing
p5
F0.1111111111111111
sVcomprehensively
p6
F0.1111111111111111
sVfully
p7
F0.1111111111111111
sVexhaustive
p8
F0.1111111111111111
sVall-out
p9
F0.1111111111111111
s.