(dp0
Vsound
p1
F0.030303030303030304
sVsensible
p2
F0.09090909090909091
sVfinest
p3
F0.030303030303030304
sVwise
p4
F0.09090909090909091
sVrational
p5
F0.030303030303030304
sVnicer
p6
F0.030303030303030304
sVsmarter
p7
F0.030303030303030304
sVunwise
p8
F0.06060606060606061
sVunreasonable
p9
F0.09090909090909091
sVlogical
p10
F0.09090909090909091
sVbetter
p11
F0.06060606060606061
sVbrighter
p12
F0.030303030303030304
sVmanageable
p13
F0.030303030303030304
sVbest
p14
F0.030303030303030304
sVreasonable
p15
F0.09090909090909091
sVwiser
p16
F0.030303030303030304
sVadvisable
p17
F0.030303030303030304
sVprudent
p18
F0.030303030303030304
sVpreferable
p19
F0.030303030303030304
sVsmart
p20
F0.030303030303030304
sVreasonnable
p21
F0.030303030303030304
s.