(dp0
Vheavy
p1
F0.02197802197802198
sVmajor
p2
F0.01098901098901099
sVstringent
p3
F0.01098901098901099
sVtough
p4
F0.01098901098901099
sVlighter
p5
F0.01098901098901099
sVless
p6
F0.01098901098901099
sVharder
p7
F0.01098901098901099
sVhard
p8
F0.01098901098901099
sVsevere
p9
F0.03296703296703297
sVdeep
p10
F0.01098901098901099
sVaggravated
p11
F0.01098901098901099
sVrigorous
p12
F0.01098901098901099
sVstrongest
p13
F0.01098901098901099
sVsmaller
p14
F0.01098901098901099
sVgravest
p15
F0.02197802197802198
sVmessy
p16
F0.01098901098901099
sVgreater
p17
F0.02197802197802198
sVgross
p18
F0.01098901098901099
sVharsh
p19
F0.01098901098901099
sVlarge
p20
F0.01098901098901099
sVtougher
p21
F0.02197802197802198
sVbad
p22
F0.03296703296703297
sVstark
p23
F0.01098901098901099
sVstrict
p24
F0.01098901098901099
sVseriously
p25
F0.02197802197802198
sVcritical
p26
F0.01098901098901099
sVtighter
p27
F0.01098901098901099
sVlargest
p28
F0.01098901098901099
sVheavier
p29
F0.03296703296703297
sVdifficult
p30
F0.01098901098901099
sVmilder
p31
F0.01098901098901099
sVheaviest
p32
F0.01098901098901099
sVgrievous
p33
F0.02197802197802198
sVworse
p34
F0.04395604395604396
sVdeeper
p35
F0.01098901098901099
sVseverely
p36
F0.01098901098901099
sVpoorer
p37
F0.01098901098901099
sVmost
p38
F0.01098901098901099
sVheavy-handed
p39
F0.01098901098901099
sVdisastrous
p40
F0.01098901098901099
sVworst
p41
F0.04395604395604396
sVdire
p42
F0.02197802197802198
sVnasty
p43
F0.01098901098901099
sVhighest
p44
F0.01098901098901099
sVgrave
p45
F0.04395604395604396
sVgraver
p46
F0.02197802197802198
sVacute
p47
F0.03296703296703297
sVlower
p48
F0.01098901098901099
sVfatal
p49
F0.01098901098901099
sVsteeper
p50
F0.01098901098901099
sVprofound
p51
F0.01098901098901099
sVlight
p52
F0.01098901098901099
sVstronger
p53
F0.02197802197802198
sVterrible
p54
F0.01098901098901099
sVoutrageous
p55
F0.01098901098901099
sVhardest
p56
F0.01098901098901099
sVdramatic
p57
F0.01098901098901099
sVgreatest
p58
F0.02197802197802198
sVserious
p59
F0.04395604395604396
sVstricter
p60
F0.02197802197802198
s.