(dp0
Vprecise
p1
F0.09090909090909091
sVstrong
p2
F0.09090909090909091
sVpowerful
p3
F0.09090909090909091
sVintense
p4
F0.09090909090909091
sVspecific
p5
F0.09090909090909091
sVsignificant
p6
F0.09090909090909091
sVrobust
p7
F0.09090909090909091
sVfierce
p8
F0.09090909090909091
sVsharp
p9
F0.09090909090909091
sVlovely
p10
F0.09090909090909091
sVconsiderable
p11
F0.09090909090909091
s.