(dp0
Vinsane
p1
F0.030927835051546393
sVcrazy
p2
F0.030927835051546393
sVembarrassing
p3
F0.020618556701030927
sVrubbish
p4
F0.010309278350515464
sVsenseless
p5
F0.020618556701030927
sVincongruous
p6
F0.010309278350515464
sVmeaningless
p7
F0.010309278350515464
sVpreposterous
p8
F0.030927835051546393
sVoverkill
p9
F0.010309278350515464
sVdumb
p10
F0.020618556701030927
sVpointless
p11
F0.010309278350515464
sVcheesy
p12
F0.020618556701030927
sVperverse
p13
F0.010309278350515464
sVlame
p14
F0.020618556701030927
sVidiot
p15
F0.041237113402061855
sVchildish
p16
F0.020618556701030927
sVgrotesque
p17
F0.020618556701030927
sVtiny
p18
F0.010309278350515464
sVstupid-looking
p19
F0.020618556701030927
sVidiots
p20
F0.010309278350515464
sVgoofy
p21
F0.020618556701030927
sVpoppycock
p22
F0.010309278350515464
sVmoronic
p23
F0.010309278350515464
sVludicrous
p24
F0.030927835051546393
sVpathetic
p25
F0.020618556701030927
sVnonsense
p26
F0.030927835051546393
sVridiculous
p27
F0.05154639175257732
sVignorant
p28
F0.010309278350515464
sVasinine
p29
F0.020618556701030927
sVawful
p30
F0.010309278350515464
sVlaughable
p31
F0.020618556701030927
sVfilthy
p32
F0.010309278350515464
sVbullshit
p33
F0.010309278350515464
sVbrainless
p34
F0.030927835051546393
sVridiculus
p35
F0.010309278350515464
sVunreasonable
p36
F0.010309278350515464
sVidiotic
p37
F0.05154639175257732
sVoutrageous
p38
F0.010309278350515464
sVstupid
p39
F0.061855670103092786
sVsilly
p40
F0.05154639175257732
sVabsurd
p41
F0.030927835051546393
sVretarded
p42
F0.020618556701030927
sVweird
p43
F0.010309278350515464
sVfoolish
p44
F0.061855670103092786
sVnonsensical
p45
F0.010309278350515464
s.