(dp0
Vlowest
p1
F0.045454545454545456
sVshorter
p2
F0.045454545454545456
sVlittle
p3
F0.045454545454545456
sVsmaller
p4
F0.09090909090909091
sVless
p5
F0.09090909090909091
sVfewer
p6
F0.09090909090909091
sVweaker
p7
F0.045454545454545456
sVinferior
p8
F0.045454545454545456
sVnarrower
p9
F0.045454545454545456
sVlower
p10
F0.045454545454545456
sVleast
p11
F0.045454545454545456
sVpoorer
p12
F0.045454545454545456
sVlesser
p13
F0.045454545454545456
sVsmallest
p14
F0.09090909090909091
sVtiny
p15
F0.045454545454545456
sVsmall
p16
F0.045454545454545456
sVminor
p17
F0.045454545454545456
sVsmall-scale
p18
F0.045454545454545456
s.