(dp0
Vsound
p1
F0.09375
sVfirm
p2
F0.0625
sVsturdy
p3
F0.0625
sVsolid
p4
F0.09375
sVsteady
p5
F0.03125
sVtougher
p6
F0.03125
sVstronger
p7
F0.09375
sVfirmer
p8
F0.0625
sVbetter
p9
F0.03125
sVstrongest
p10
F0.0625
sVstable
p11
F0.0625
sVresilient
p12
F0.0625
sVrobust
p13
F0.125
sVstrong
p14
F0.09375
sVbest
p15
F0.03125
s.