(dp0
Vafraid
p1
F0.0625
sVrestless
p2
F0.0625
sVfrightened
p3
F0.0625
sVfearful
p4
F0.0625
sVnervous
p5
F0.125
sVconcerned
p6
F0.0625
sVupset
p7
F0.0625
sVworried
p8
F0.125
sVanxious
p9
F0.0625
sVuneasy
p10
F0.0625
sVpanicked
p11
F0.0625
sVtroubled
p12
F0.0625
sVfrightening
p13
F0.0625
sVscared
p14
F0.0625
s.