(dp0
Vfantastic
p1
F0.014925373134328358
sVparticularly
p2
F0.014925373134328358
sVremarkable
p3
F0.014925373134328358
sVoutstanding
p4
F0.04477611940298507
sVawesome
p5
F0.029850746268656716
sVexcellent
p6
F0.014925373134328358
sVmagnificent
p7
F0.029850746268656716
sVmarvelous
p8
F0.014925373134328358
sVsingle
p9
F0.014925373134328358
sVspecial
p10
F0.07462686567164178
sVstartling
p11
F0.014925373134328358
sVunusual
p12
F0.04477611940298507
sVgrand
p13
F0.014925373134328358
sVincredible
p14
F0.014925373134328358
sVdistinct
p15
F0.014925373134328358
sVdistinctive
p16
F0.014925373134328358
sVseparate
p17
F0.014925373134328358
sVterrific
p18
F0.029850746268656716
sVamazing
p19
F0.014925373134328358
sVwonderful
p20
F0.029850746268656716
sVhilarious
p21
F0.014925373134328358
sVprivileged
p22
F0.014925373134328358
sVnoticeable
p23
F0.014925373134328358
sVspectacular
p24
F0.014925373134328358
sVexceptional
p25
F0.04477611940298507
sVvery
p26
F0.014925373134328358
sVsole
p27
F0.014925373134328358
sVuncommon
p28
F0.014925373134328358
sVextraordinary
p29
F0.04477611940298507
sVimportant
p30
F0.014925373134328358
sVsignificant
p31
F0.014925373134328358
sVparticular
p32
F0.014925373134328358
sVspecific
p33
F0.029850746268656716
sVunique
p34
F0.04477611940298507
sVpeculiar
p35
F0.029850746268656716
sVvast
p36
F0.014925373134328358
sVespecially
p37
F0.014925373134328358
sVgreat
p38
F0.014925373134328358
sVnoteworthy
p39
F0.014925373134328358
sVimpressive
p40
F0.014925373134328358
sVsurprising
p41
F0.014925373134328358
sVmarvellous
p42
F0.029850746268656716
sVlarge
p43
F0.014925373134328358
sVtremendous
p44
F0.014925373134328358
sVcommendable
p45
F0.014925373134328358
sVbrilliant
p46
F0.014925373134328358
s.