(dp0
Vprecise
p1
F0.04
sVanti-constitutional
p2
F0.04
sVinconsistent
p3
F0.04
sVclearly
p4
F0.04
sVunambiguous
p5
F0.04
sVself-explanatory
p6
F0.04
sVunequivocal
p7
F0.04
sVabove
p8
F0.08
sVcontrary
p9
F0.04
sVstraightforward
p10
F0.04
sVopposite
p11
F0.04
sVclear-cut
p12
F0.04
sVapparent
p13
F0.04
sVclearer
p14
F0.04
sVpredictable
p15
F0.04
sVaforementioned
p16
F0.08
sVevident
p17
F0.04
sVclear
p18
F0.04
sVexplicit
p19
F0.04
sVmanifest
p20
F0.04
sVspecific
p21
F0.04
sVobvious
p22
F0.04
sVotherwise
p23
F0.04
s.