(dp0
Vscary
p1
F0.08333333333333333
sVpanicked
p2
F0.08333333333333333
sVtough
p3
F0.08333333333333333
sVharsh
p4
F0.08333333333333333
sVfrightening
p5
F0.08333333333333333
sVscared
p6
F0.08333333333333333
sVstrict
p7
F0.08333333333333333
sVsevere
p8
F0.08333333333333333
sVstringent
p9
F0.08333333333333333
sVstern
p10
F0.08333333333333333
sVfrightened
p11
F0.08333333333333333
sVafraid
p12
F0.08333333333333333
s.