(dp0
Vcute
p1
F0.004975124378109453
sVcrazy
p2
F0.01990049751243781
sVremarkable
p3
F0.014925373134328358
sVspooky
p4
F0.01990049751243781
sVrandom
p5
F0.009950248756218905
sVinquisitive
p6
F0.004975124378109453
sVironic
p7
F0.03482587064676617
sVcurious
p8
F0.04975124378109453
sVbizarre
p9
F0.05472636815920398
sVodd
p10
F0.06467661691542288
sVconfusing
p11
F0.014925373134328358
sVfunny
p12
F0.029850746268656716
sVunusual
p13
F0.05472636815920398
sVawkward
p14
F0.03980099502487562
sVeerie
p15
F0.03980099502487562
sVfunky
p16
F0.009950248756218905
sVwitty
p17
F0.004975124378109453
sVwierd
p18
F0.014925373134328358
sVstrange
p19
F0.05472636815920398
sVhilarious
p20
F0.009950248756218905
sVmysterious
p21
F0.03980099502487562
sVfreaky
p22
F0.01990049751243781
sVsurprised
p23
F0.009950248756218905
sVstartling
p24
F0.004975124378109453
sVstaggering
p25
F0.004975124378109453
sVloose
p26
F0.004975124378109453
sVuncommon
p27
F0.009950248756218905
sVextraordinary
p28
F0.009950248756218905
sVwrong
p29
F0.009950248756218905
sVpeculiar
p30
F0.04975124378109453
sVintriguing
p31
F0.04477611940298507
sVrare
p32
F0.009950248756218905
sVnoticeable
p33
F0.004975124378109453
sVsurprising
p34
F0.014925373134328358
sVnosy
p35
F0.004975124378109453
sVstranger
p36
F0.03482587064676617
sVcreepy
p37
F0.024875621890547265
sVnosey
p38
F0.004975124378109453
sVastonishing
p39
F0.004975124378109453
sVsketchy
p40
F0.01990049751243781
sVuncanny
p41
F0.03980099502487562
sVweird
p42
F0.06467661691542288
sVweirder
p43
F0.009950248756218905
s.