(dp0
Vself-governed
p1
F0.05263157894736842
sVself-governing
p2
F0.05263157894736842
sVsatisfactory
p3
F0.05263157894736842
sVample
p4
F0.05263157894736842
sVself-employed
p5
F0.05263157894736842
sVself-sustainable
p6
F0.05263157894736842
sVself-sustaining
p7
F0.05263157894736842
sVself-supporting
p8
F0.05263157894736842
sVself-contained
p9
F0.05263157894736842
sVindependent
p10
F0.05263157894736842
sVadequate
p11
F0.05263157894736842
sVfree-standing
p12
F0.05263157894736842
sVenough
p13
F0.05263157894736842
sVinsufficient
p14
F0.05263157894736842
sVautonomous
p15
F0.05263157894736842
sVstand-alone
p16
F0.05263157894736842
sVself-reliant
p17
F0.05263157894736842
sVsufficient
p18
F0.05263157894736842
sVself-sufficiency
p19
F0.05263157894736842
s.