(dp0
Vsupportive
p1
F0.07692307692307693
sVconcerted
p2
F0.07692307692307693
sVcomplementary
p3
F0.07692307692307693
sVcollective
p4
F0.07692307692307693
sVsupported
p5
F0.07692307692307693
sVinterdependent
p6
F0.07692307692307693
sVreinforcing
p7
F0.07692307692307693
sVsupplementary
p8
F0.07692307692307693
sVinterrelated
p9
F0.07692307692307693
sVcomplements
p10
F0.07692307692307693
sVsynergistic
p11
F0.07692307692307693
sVcomplimentary
p12
F0.07692307692307693
sVsupplemental
p13
F0.07692307692307693
s.