(dp0
Vstartling
p1
F0.02
sVunusual
p2
F0.04
sVunexpected
p3
F0.1
sVremarkable
p4
F0.04
sVsurprising
p5
F0.12
sVstriking
p6
F0.04
sVstaggering
p7
F0.02
sVastounding
p8
F0.02
sVstunning
p9
F0.02
sVsudden
p10
F0.02
sVastonishing
p11
F0.08
sVextraordinary
p12
F0.02
sVamazing
p13
F0.08
sVstrange
p14
F0.08
sVuncanny
p15
F0.02
sVtroubling
p16
F0.02
sVshocking
p17
F0.06
sVodd
p18
F0.08
sVsurprised
p19
F0.08
sVpuzzling
p20
F0.04
s.