(dp0
Vbeautiful
p1
F0.017699115044247787
sVcute
p2
F0.02654867256637168
sVfantastic
p3
F0.008849557522123894
sVnicer
p4
F0.004424778761061947
sVsweet
p5
F0.035398230088495575
sVawesome
p6
F0.02654867256637168
sVrad
p7
F0.004424778761061947
sVlovable
p8
F0.022123893805309734
sVgentle
p9
F0.03982300884955752
sVthoughtful
p10
F0.02654867256637168
sVfabulous
p11
F0.004424778761061947
sVdainty
p12
F0.004424778761061947
sVfine
p13
F0.01327433628318584
sVprecious
p14
F0.022123893805309734
sVbriiliant
p15
F0.004424778761061947
sVloveable
p16
F0.017699115044247787
sVfunny
p17
F0.004424778761061947
sVgenerous
p18
F0.004424778761061947
sVsquat
p19
F0.004424778761061947
sVgenius
p20
F0.004424778761061947
sVhon
p21
F0.004424778761061947
sVdecent
p22
F0.01327433628318584
sVamazing
p23
F0.017699115044247787
sVterrific
p24
F0.008849557522123894
sVharmless
p25
F0.01327433628318584
sVhot
p26
F0.017699115044247787
sVwonderful
p27
F0.02654867256637168
sVattractive
p28
F0.01327433628318584
sVpretty
p29
F0.022123893805309734
sVgorgeous
p30
F0.022123893805309734
sVcuter
p31
F0.017699115044247787
sVdarling
p32
F0.017699115044247787
sVlovely
p33
F0.04424778761061947
sVadorable
p34
F0.022123893805309734
sVfriendly
p35
F0.017699115044247787
sVnice
p36
F0.030973451327433628
sVprettier
p37
F0.008849557522123894
sVgood
p38
F0.004424778761061947
sVeasy
p39
F0.004424778761061947
sVcozy
p40
F0.01327433628318584
sVgreat
p41
F0.01327433628318584
sVdead-on
p42
F0.004424778761061947
sVlucky
p43
F0.01327433628318584
sVcharming
p44
F0.02654867256637168
sVpleasant
p45
F0.01327433628318584
sVwhassup
p46
F0.004424778761061947
sVgood-looking
p47
F0.01327433628318584
sVpurty
p48
F0.01327433628318584
sVmimi
p49
F0.004424778761061947
sVcabbage
p50
F0.004424778761061947
sVsuper
p51
F0.004424778761061947
sVenchanting
p52
F0.004424778761061947
sVloverly
p53
F0.008849557522123894
sVkind
p54
F0.017699115044247787
sVhelpful
p55
F0.004424778761061947
sVanything
p56
F0.004424778761061947
sVmarvelous
p57
F0.004424778761061947
sViovely
p58
F0.01327433628318584
sVcool
p59
F0.022123893805309734
sVnothingg
p60
F0.004424778761061947
sVsmooth
p61
F0.008849557522123894
sVmild
p62
F0.004424778761061947
sVhandsome
p63
F0.022123893805309734
sVugly
p64
F0.004424778761061947
sVdelightful
p65
F0.02654867256637168
sVgood-natured
p66
F0.02654867256637168
sVneat
p67
F0.008849557522123894
sVtouching
p68
F0.008849557522123894
sVbelle
p69
F0.008849557522123894
sVfun
p70
F0.004424778761061947
sVfresh
p71
F0.008849557522123894
sVsoft
p72
F0.017699115044247787
sVbrilliant
p73
F0.008849557522123894
sVsmokin
p74
F0.004424778761061947
s.