(dp0
Vtemporary
p1
F0.125
sVtransitional
p2
F0.0625
sVtentative
p3
F0.0625
sVephemeral
p4
F0.125
sVtransitory
p5
F0.1875
sVinterim
p6
F0.0625
sVtransient
p7
F0.1875
sVpreliminary
p8
F0.0625
sVprovisional
p9
F0.0625
sVmomentary
p10
F0.0625
s.