(dp0
Vdetailed
p1
F0.08
sVfull
p2
F0.04
sVfuller
p3
F0.04
sVcomplete
p4
F0.04
sVnon-exhaustive
p5
F0.04
sVcomprehensive
p6
F0.08
sVmeticulous
p7
F0.08
sVin-depth
p8
F0.08
sVthorough
p9
F0.08
sVexhaustive
p10
F0.04
sVbroader
p11
F0.04
sVexcellent
p12
F0.04
sVrigorous
p13
F0.04
sVvigorous
p14
F0.04
sVextensive
p15
F0.08
sVcareful
p16
F0.04
sVfullest
p17
F0.04
sVdeeper
p18
F0.08
s.