(dp0
Vcute
p1
F0.0625
sVsweet
p2
F0.0625
sVlovable
p3
F0.03125
sVgentle
p4
F0.0625
sVthoughtful
p5
F0.03125
sVloveable
p6
F0.03125
sVdecent
p7
F0.03125
sVharmless
p8
F0.03125
sVamazing
p9
F0.03125
sVwonderful
p10
F0.03125
sVdarling
p11
F0.03125
sVlovely
p12
F0.0625
sVadorable
p13
F0.03125
sVfriendly
p14
F0.0625
sVnice
p15
F0.0625
sVlucky
p16
F0.03125
sVcharming
p17
F0.03125
sVprecious
p18
F0.03125
sVcool
p19
F0.03125
sVkind
p20
F0.03125
sVhelpful
p21
F0.03125
sVsensitive
p22
F0.03125
sVdelightful
p23
F0.03125
sVgood-natured
p24
F0.0625
sVsoft
p25
F0.03125
s.