(dp0
Vunwarranted
p1
F0.1111111111111111
sVunreasonable
p2
F0.3333333333333333
sVunjustified
p3
F0.1111111111111111
sVunwise
p4
F0.1111111111111111
sVunjustifiable
p5
F0.1111111111111111
sVunconscionable
p6
F0.1111111111111111
sVunfounded
p7
F0.1111111111111111
s.