(dp0
Vunsatisfactory
p1
F0.02
sVweaker
p2
F0.06
sVinsignificant
p3
F0.02
sVinadequate
p4
F0.02
sVawesome
p5
F0.01
sVshaky
p6
F0.01
sVprecarious
p7
F0.01
sVmeagre
p8
F0.02
sVmild
p9
F0.02
sVsmaller
p10
F0.01
sVtenuous
p11
F0.01
sVlightweight
p12
F0.02
sVlacklustre
p13
F0.01
sVdestitute
p14
F0.01
sVvulnerable
p15
F0.01
sVslow
p16
F0.01
sVphenomenal
p17
F0.01
sVlowest
p18
F0.01
sVfaint
p19
F0.02
sVterrific
p20
F0.01
sVwonderful
p21
F0.01
sVlow
p22
F0.09
sVfrail
p23
F0.01
sVlovely
p24
F0.01
sVsweet
p25
F0.01
sVindigent
p26
F0.01
sVwicked
p27
F0.01
sVpoor
p28
F0.04
sVslim
p29
F0.01
sVquestionable
p30
F0.01
sVslight
p31
F0.05
sVshallow
p32
F0.01
sVweak
p33
F0.09
sVgreat
p34
F0.01
sVflawed
p35
F0.01
sVmodest
p36
F0.02
sVfeeble
p37
F0.04
sVthready
p38
F0.02
sVcool
p39
F0.01
sVsensational
p40
F0.01
sVlower
p41
F0.02
sVshortly
p42
F0.01
sVdeficient
p43
F0.01
sVsluggish
p44
F0.03
sVfragile
p45
F0.01
sVdepressed
p46
F0.01
sVminimal
p47
F0.01
sVsparse
p48
F0.02
sVsmall
p49
F0.04
sVinsufficient
p50
F0.02
sVnarrow
p51
F0.01
sVweakest
p52
F0.01
s.