(dp0
Vbeneficial
p1
F0.025
sVwelcomed
p2
F0.075
sVdelighted
p3
F0.025
sVacclaimed
p4
F0.025
sVpleased
p5
F0.05
sVlaudable
p6
F0.05
sVunwelcome
p7
F0.025
sVpray
p8
F0.075
sVpositive
p9
F0.025
sVfortunate
p10
F0.025
sVterrific
p11
F0.025
sVsatisfactory
p12
F0.025
sVnice
p13
F0.025
sVwelcome
p14
F0.125
sVpraiseworthy
p15
F0.05
sVfavourable
p16
F0.025
sVexcellent
p17
F0.05
sVprecious
p18
F0.025
sVoverwhelming
p19
F0.025
sVglad
p20
F0.025
sVhappier
p21
F0.025
sVhelpful
p22
F0.025
sVinvaluable
p23
F0.025
sVhappy
p24
F0.05
sVcommendable
p25
F0.05
sVwell-received
p26
F0.025
s.