(dp0
Voff
p1
F0.14285714285714285
sVoverridden
p2
F0.14285714285714285
sVde-insured
p3
F0.14285714285714285
sVrescinded
p4
F0.14285714285714285
sVannulled
p5
F0.14285714285714285
sVcancelled
p6
F0.14285714285714285
sVwithdrawn
p7
F0.14285714285714285
s.