(dp0
Vworse
p1
F0.24
sVharder
p2
F0.08
sVterrible
p3
F0.12
sVevil
p4
F0.04
sVpoorer
p5
F0.08
sVwrong
p6
F0.08
sVbad
p7
F0.12
sVworst
p8
F0.12
sVmessy
p9
F0.04
sVcomplicated
p10
F0.04
sVdeeper
p11
F0.04
s.