(dp0
Vfair
p1
F0.14285714285714285
sVrespectable
p2
F0.14285714285714285
sVstraight
p3
F0.14285714285714285
sVdishonest
p4
F0.14285714285714285
sVhonest
p5
F0.14285714285714285
sVdisciplined
p6
F0.14285714285714285
sVtruthful
p7
F0.14285714285714285
s.