(dp0
Vmarvellous
p1
F0.1
sVscrumptious
p2
F0.1
sVawesome
p3
F0.1
sVterrific
p4
F0.1
sVdelightful
p5
F0.1
sVfabulous
p6
F0.1
sVdelicious
p7
F0.1
sVsweet
p8
F0.1
sVwonderful
p9
F0.1
sVlovely
p10
F0.1
s.